
game：     文件格式 elf32-i386


Disassembly of section .text:

00800000 <sulp>:
  800000:	55                   	push   %ebp
  800001:	89 e5                	mov    %esp,%ebp
  800003:	53                   	push   %ebx
  800004:	89 cb                	mov    %ecx,%ebx
  800006:	83 ec 14             	sub    $0x14,%esp
  800009:	89 45 f0             	mov    %eax,-0x10(%ebp)
  80000c:	89 55 f4             	mov    %edx,-0xc(%ebp)
  80000f:	dd 45 f0             	fldl   -0x10(%ebp)
  800012:	dd 1c 24             	fstpl  (%esp)
  800015:	e8 16 ae 03 00       	call   83ae30 <__ulp>
  80001a:	85 db                	test   %ebx,%ebx
  80001c:	74 2c                	je     80004a <sulp+0x4a>
  80001e:	8b 55 f4             	mov    -0xc(%ebp),%edx
  800021:	b8 6b 00 00 00       	mov    $0x6b,%eax
  800026:	81 e2 00 00 f0 7f    	and    $0x7ff00000,%edx
  80002c:	c1 ea 14             	shr    $0x14,%edx
  80002f:	29 d0                	sub    %edx,%eax
  800031:	85 c0                	test   %eax,%eax
  800033:	7e 15                	jle    80004a <sulp+0x4a>
  800035:	c1 e0 14             	shl    $0x14,%eax
  800038:	05 00 00 f0 3f       	add    $0x3ff00000,%eax
  80003d:	89 45 f4             	mov    %eax,-0xc(%ebp)
  800040:	c7 45 f0 00 00 00 00 	movl   $0x0,-0x10(%ebp)
  800047:	dc 4d f0             	fmull  -0x10(%ebp)
  80004a:	83 c4 14             	add    $0x14,%esp
  80004d:	5b                   	pop    %ebx
  80004e:	5d                   	pop    %ebp
  80004f:	c3                   	ret    

00800050 <in_byte>:
  800050:	55                   	push   %ebp
  800051:	89 e5                	mov    %esp,%ebp
  800053:	83 ec 14             	sub    $0x14,%esp
  800056:	e8 81 01 00 00       	call   8001dc <__x86.get_pc_thunk.ax>
  80005b:	05 a5 af 04 00       	add    $0x4afa5,%eax
  800060:	8b 45 08             	mov    0x8(%ebp),%eax
  800063:	66 89 45 ec          	mov    %ax,-0x14(%ebp)
  800067:	0f b7 45 ec          	movzwl -0x14(%ebp),%eax
  80006b:	89 c2                	mov    %eax,%edx
  80006d:	ec                   	in     (%dx),%al
  80006e:	88 45 ff             	mov    %al,-0x1(%ebp)
  800071:	0f b6 45 ff          	movzbl -0x1(%ebp),%eax
  800075:	c9                   	leave  
  800076:	c3                   	ret    

00800077 <out_byte>:
  800077:	55                   	push   %ebp
  800078:	89 e5                	mov    %esp,%ebp
  80007a:	83 ec 08             	sub    $0x8,%esp
  80007d:	e8 5a 01 00 00       	call   8001dc <__x86.get_pc_thunk.ax>
  800082:	05 7e af 04 00       	add    $0x4af7e,%eax
  800087:	8b 55 08             	mov    0x8(%ebp),%edx
  80008a:	8b 45 0c             	mov    0xc(%ebp),%eax
  80008d:	66 89 55 fc          	mov    %dx,-0x4(%ebp)
  800091:	88 45 f8             	mov    %al,-0x8(%ebp)
  800094:	0f b6 45 f8          	movzbl -0x8(%ebp),%eax
  800098:	0f b7 55 fc          	movzwl -0x4(%ebp),%edx
  80009c:	ee                   	out    %al,(%dx)
  80009d:	90                   	nop
  80009e:	c9                   	leave  
  80009f:	c3                   	ret    

008000a0 <write_palette>:
  8000a0:	55                   	push   %ebp
  8000a1:	89 e5                	mov    %esp,%ebp
  8000a3:	83 ec 10             	sub    $0x10,%esp
  8000a6:	e8 31 01 00 00       	call   8001dc <__x86.get_pc_thunk.ax>
  8000ab:	05 55 af 04 00       	add    $0x4af55,%eax
  8000b0:	8b 45 08             	mov    0x8(%ebp),%eax
  8000b3:	89 45 f8             	mov    %eax,-0x8(%ebp)
  8000b6:	6a 00                	push   $0x0
  8000b8:	68 c8 03 00 00       	push   $0x3c8
  8000bd:	e8 b5 ff ff ff       	call   800077 <out_byte>
  8000c2:	83 c4 08             	add    $0x8,%esp
  8000c5:	c7 45 fc 00 00 00 00 	movl   $0x0,-0x4(%ebp)
  8000cc:	eb 78                	jmp    800146 <write_palette+0xa6>
  8000ce:	8b 45 fc             	mov    -0x4(%ebp),%eax
  8000d1:	8d 14 85 00 00 00 00 	lea    0x0(,%eax,4),%edx
  8000d8:	8b 45 f8             	mov    -0x8(%ebp),%eax
  8000db:	01 d0                	add    %edx,%eax
  8000dd:	0f b6 00             	movzbl (%eax),%eax
  8000e0:	c0 e8 02             	shr    $0x2,%al
  8000e3:	0f be c0             	movsbl %al,%eax
  8000e6:	50                   	push   %eax
  8000e7:	68 c9 03 00 00       	push   $0x3c9
  8000ec:	e8 86 ff ff ff       	call   800077 <out_byte>
  8000f1:	83 c4 08             	add    $0x8,%esp
  8000f4:	8b 45 fc             	mov    -0x4(%ebp),%eax
  8000f7:	8d 14 85 00 00 00 00 	lea    0x0(,%eax,4),%edx
  8000fe:	8b 45 f8             	mov    -0x8(%ebp),%eax
  800101:	01 d0                	add    %edx,%eax
  800103:	0f b6 40 01          	movzbl 0x1(%eax),%eax
  800107:	c0 e8 02             	shr    $0x2,%al
  80010a:	0f be c0             	movsbl %al,%eax
  80010d:	50                   	push   %eax
  80010e:	68 c9 03 00 00       	push   $0x3c9
  800113:	e8 5f ff ff ff       	call   800077 <out_byte>
  800118:	83 c4 08             	add    $0x8,%esp
  80011b:	8b 45 fc             	mov    -0x4(%ebp),%eax
  80011e:	8d 14 85 00 00 00 00 	lea    0x0(,%eax,4),%edx
  800125:	8b 45 f8             	mov    -0x8(%ebp),%eax
  800128:	01 d0                	add    %edx,%eax
  80012a:	0f b6 40 02          	movzbl 0x2(%eax),%eax
  80012e:	c0 e8 02             	shr    $0x2,%al
  800131:	0f be c0             	movsbl %al,%eax
  800134:	50                   	push   %eax
  800135:	68 c9 03 00 00       	push   $0x3c9
  80013a:	e8 38 ff ff ff       	call   800077 <out_byte>
  80013f:	83 c4 08             	add    $0x8,%esp
  800142:	83 45 fc 01          	addl   $0x1,-0x4(%ebp)
  800146:	8b 45 fc             	mov    -0x4(%ebp),%eax
  800149:	3b 45 0c             	cmp    0xc(%ebp),%eax
  80014c:	7c 80                	jl     8000ce <write_palette+0x2e>
  80014e:	90                   	nop
  80014f:	c9                   	leave  
  800150:	c3                   	ret    

00800151 <read_palette>:
  800151:	55                   	push   %ebp
  800152:	89 e5                	mov    %esp,%ebp
  800154:	53                   	push   %ebx
  800155:	83 ec 14             	sub    $0x14,%esp
  800158:	e8 83 00 00 00       	call   8001e0 <__x86.get_pc_thunk.bx>
  80015d:	81 c3 a3 ae 04 00    	add    $0x4aea3,%ebx
  800163:	6a 00                	push   $0x0
  800165:	68 c7 03 00 00       	push   $0x3c7
  80016a:	e8 08 ff ff ff       	call   800077 <out_byte>
  80016f:	83 c4 08             	add    $0x8,%esp
  800172:	c7 45 f4 00 00 00 00 	movl   $0x0,-0xc(%ebp)
  800179:	eb 52                	jmp    8001cd <read_palette+0x7c>
  80017b:	68 c9 03 00 00       	push   $0x3c9
  800180:	e8 cb fe ff ff       	call   800050 <in_byte>
  800185:	83 c4 04             	add    $0x4,%esp
  800188:	88 45 f3             	mov    %al,-0xd(%ebp)
  80018b:	68 c9 03 00 00       	push   $0x3c9
  800190:	e8 bb fe ff ff       	call   800050 <in_byte>
  800195:	83 c4 04             	add    $0x4,%esp
  800198:	88 45 f2             	mov    %al,-0xe(%ebp)
  80019b:	68 c9 03 00 00       	push   $0x3c9
  8001a0:	e8 ab fe ff ff       	call   800050 <in_byte>
  8001a5:	83 c4 04             	add    $0x4,%esp
  8001a8:	88 45 f1             	mov    %al,-0xf(%ebp)
  8001ab:	0f b6 4d f1          	movzbl -0xf(%ebp),%ecx
  8001af:	0f b6 55 f2          	movzbl -0xe(%ebp),%edx
  8001b3:	0f b6 45 f3          	movzbl -0xd(%ebp),%eax
  8001b7:	51                   	push   %ecx
  8001b8:	52                   	push   %edx
  8001b9:	50                   	push   %eax
  8001ba:	8d 83 40 64 ff ff    	lea    -0x9bc0(%ebx),%eax
  8001c0:	50                   	push   %eax
  8001c1:	e8 4a 22 03 00       	call   832410 <printf>
  8001c6:	83 c4 10             	add    $0x10,%esp
  8001c9:	83 45 f4 01          	addl   $0x1,-0xc(%ebp)
  8001cd:	81 7d f4 ff 00 00 00 	cmpl   $0xff,-0xc(%ebp)
  8001d4:	7e a5                	jle    80017b <read_palette+0x2a>
  8001d6:	90                   	nop
  8001d7:	8b 5d fc             	mov    -0x4(%ebp),%ebx
  8001da:	c9                   	leave  
  8001db:	c3                   	ret    

008001dc <__x86.get_pc_thunk.ax>:
  8001dc:	8b 04 24             	mov    (%esp),%eax
  8001df:	c3                   	ret    

008001e0 <__x86.get_pc_thunk.bx>:
  8001e0:	8b 1c 24             	mov    (%esp),%ebx
  8001e3:	c3                   	ret    

008001e4 <out_byte>:
  8001e4:	55                   	push   %ebp
  8001e5:	89 e5                	mov    %esp,%ebp
  8001e7:	83 ec 08             	sub    $0x8,%esp
  8001ea:	e8 ed ff ff ff       	call   8001dc <__x86.get_pc_thunk.ax>
  8001ef:	05 11 ae 04 00       	add    $0x4ae11,%eax
  8001f4:	8b 55 08             	mov    0x8(%ebp),%edx
  8001f7:	8b 45 0c             	mov    0xc(%ebp),%eax
  8001fa:	66 89 55 fc          	mov    %dx,-0x4(%ebp)
  8001fe:	88 45 f8             	mov    %al,-0x8(%ebp)
  800201:	0f b6 45 f8          	movzbl -0x8(%ebp),%eax
  800205:	0f b7 55 fc          	movzwl -0x4(%ebp),%edx
  800209:	ee                   	out    %al,(%dx)
  80020a:	90                   	nop
  80020b:	c9                   	leave  
  80020c:	c3                   	ret    

0080020d <cli>:
  80020d:	55                   	push   %ebp
  80020e:	89 e5                	mov    %esp,%ebp
  800210:	e8 c7 ff ff ff       	call   8001dc <__x86.get_pc_thunk.ax>
  800215:	05 eb ad 04 00       	add    $0x4adeb,%eax
  80021a:	fa                   	cli    
  80021b:	90                   	nop
  80021c:	5d                   	pop    %ebp
  80021d:	c3                   	ret    

0080021e <init_timer>:
  80021e:	55                   	push   %ebp
  80021f:	89 e5                	mov    %esp,%ebp
  800221:	53                   	push   %ebx
  800222:	83 ec 14             	sub    $0x14,%esp
  800225:	e8 b6 ff ff ff       	call   8001e0 <__x86.get_pc_thunk.bx>
  80022a:	81 c3 d6 ad 04 00    	add    $0x4add6,%ebx
  800230:	c7 45 f4 9b 2e 00 00 	movl   $0x2e9b,-0xc(%ebp)
  800237:	81 7d f4 ff ff 00 00 	cmpl   $0xffff,-0xc(%ebp)
  80023e:	7e 34                	jle    800274 <init_timer+0x56>
  800240:	e8 c8 ff ff ff       	call   80020d <cli>
  800245:	83 ec 0c             	sub    $0xc,%esp
  800248:	8d 83 58 64 ff ff    	lea    -0x9ba8(%ebx),%eax
  80024e:	50                   	push   %eax
  80024f:	8d 83 cc 64 ff ff    	lea    -0x9b34(%ebx),%eax
  800255:	50                   	push   %eax
  800256:	6a 08                	push   $0x8
  800258:	8d 83 68 64 ff ff    	lea    -0x9b98(%ebx),%eax
  80025e:	50                   	push   %eax
  80025f:	8d 83 84 64 ff ff    	lea    -0x9b7c(%ebx),%eax
  800265:	50                   	push   %eax
  800266:	e8 a5 21 03 00       	call   832410 <printf>
  80026b:	83 c4 20             	add    $0x20,%esp
  80026e:	b8 01 00 00 00       	mov    $0x1,%eax
  800273:	82 83 ec 08 6a 34 6a 	addb   $0x6a,0x346a08ec(%ebx)
  80027a:	43                   	inc    %ebx
  80027b:	e8 64 ff ff ff       	call   8001e4 <out_byte>
  800280:	83 c4 10             	add    $0x10,%esp
  800283:	8b 45 f4             	mov    -0xc(%ebp),%eax
  800286:	99                   	cltd   
  800287:	c1 ea 18             	shr    $0x18,%edx
  80028a:	01 d0                	add    %edx,%eax
  80028c:	0f b6 c0             	movzbl %al,%eax
  80028f:	29 d0                	sub    %edx,%eax
  800291:	0f be c0             	movsbl %al,%eax
  800294:	83 ec 08             	sub    $0x8,%esp
  800297:	50                   	push   %eax
  800298:	6a 40                	push   $0x40
  80029a:	e8 45 ff ff ff       	call   8001e4 <out_byte>
  80029f:	83 c4 10             	add    $0x10,%esp
  8002a2:	8b 45 f4             	mov    -0xc(%ebp),%eax
  8002a5:	8d 90 ff 00 00 00    	lea    0xff(%eax),%edx
  8002ab:	85 c0                	test   %eax,%eax
  8002ad:	0f 48 c2             	cmovs  %edx,%eax
  8002b0:	c1 f8 08             	sar    $0x8,%eax
  8002b3:	0f be c0             	movsbl %al,%eax
  8002b6:	83 ec 08             	sub    $0x8,%esp
  8002b9:	50                   	push   %eax
  8002ba:	6a 40                	push   $0x40
  8002bc:	e8 23 ff ff ff       	call   8001e4 <out_byte>
  8002c1:	83 c4 10             	add    $0x10,%esp
  8002c4:	90                   	nop
  8002c5:	8b 5d fc             	mov    -0x4(%ebp),%ebx
  8002c8:	c9                   	leave  
  8002c9:	c3                   	ret    

008002ca <cli>:
  8002ca:	55                   	push   %ebp
  8002cb:	89 e5                	mov    %esp,%ebp
  8002cd:	e8 0a ff ff ff       	call   8001dc <__x86.get_pc_thunk.ax>
  8002d2:	05 2e ad 04 00       	add    $0x4ad2e,%eax
  8002d7:	fa                   	cli    
  8002d8:	90                   	nop
  8002d9:	5d                   	pop    %ebp
  8002da:	c3                   	ret    

008002db <draw_pixel>:
  8002db:	55                   	push   %ebp
  8002dc:	89 e5                	mov    %esp,%ebp
  8002de:	53                   	push   %ebx
  8002df:	83 ec 04             	sub    $0x4,%esp
  8002e2:	e8 f9 fe ff ff       	call   8001e0 <__x86.get_pc_thunk.bx>
  8002e7:	81 c3 19 ad 04 00    	add    $0x4ad19,%ebx
  8002ed:	83 7d 08 00          	cmpl   $0x0,0x8(%ebp)
  8002f1:	78 18                	js     80030b <draw_pixel+0x30>
  8002f3:	83 7d 0c 00          	cmpl   $0x0,0xc(%ebp)
  8002f7:	78 12                	js     80030b <draw_pixel+0x30>
  8002f9:	81 7d 08 c7 00 00 00 	cmpl   $0xc7,0x8(%ebp)
  800300:	7f 09                	jg     80030b <draw_pixel+0x30>
  800302:	81 7d 0c 3f 01 00 00 	cmpl   $0x13f,0xc(%ebp)
  800309:	7e 34                	jle    80033f <draw_pixel+0x64>
  80030b:	e8 ba ff ff ff       	call   8002ca <cli>
  800310:	83 ec 0c             	sub    $0xc,%esp
  800313:	8d 83 d8 64 ff ff    	lea    -0x9b28(%ebx),%eax
  800319:	50                   	push   %eax
  80031a:	8d 83 ac 65 ff ff    	lea    -0x9a54(%ebx),%eax
  800320:	50                   	push   %eax
  800321:	6a 0f                	push   $0xf
  800323:	8d 83 0c 65 ff ff    	lea    -0x9af4(%ebx),%eax
  800329:	50                   	push   %eax
  80032a:	8d 83 28 65 ff ff    	lea    -0x9ad8(%ebx),%eax
  800330:	50                   	push   %eax
  800331:	e8 da 20 03 00       	call   832410 <printf>
  800336:	83 c4 20             	add    $0x20,%esp
  800339:	b8 01 00 00 00       	mov    $0x1,%eax
  80033e:	82 8b 83 20 04 00 00 	orb    $0x0,0x42083(%ebx)
  800345:	8b 55 08             	mov    0x8(%ebp),%edx
  800348:	89 d1                	mov    %edx,%ecx
  80034a:	c1 e1 08             	shl    $0x8,%ecx
  80034d:	8b 55 08             	mov    0x8(%ebp),%edx
  800350:	c1 e2 06             	shl    $0x6,%edx
  800353:	01 d1                	add    %edx,%ecx
  800355:	8b 55 0c             	mov    0xc(%ebp),%edx
  800358:	01 ca                	add    %ecx,%edx
  80035a:	01 d0                	add    %edx,%eax
  80035c:	8b 55 10             	mov    0x10(%ebp),%edx
  80035f:	88 10                	mov    %dl,(%eax)
  800361:	90                   	nop
  800362:	8b 5d fc             	mov    -0x4(%ebp),%ebx
  800365:	c9                   	leave  
  800366:	c3                   	ret    

00800367 <prepare_buffer>:
  800367:	55                   	push   %ebp
  800368:	89 e5                	mov    %esp,%ebp
  80036a:	53                   	push   %ebx
  80036b:	83 ec 04             	sub    $0x4,%esp
  80036e:	e8 69 fe ff ff       	call   8001dc <__x86.get_pc_thunk.ax>
  800373:	05 8d ac 04 00       	add    $0x4ac8d,%eax
  800378:	8b 90 20 04 00 00    	mov    0x420(%eax),%edx
  80037e:	83 ec 04             	sub    $0x4,%esp
  800381:	68 00 fa 00 00       	push   $0xfa00
  800386:	6a 00                	push   $0x0
  800388:	52                   	push   %edx
  800389:	89 c3                	mov    %eax,%ebx
  80038b:	e8 4d 1f 03 00       	call   8322dd <memset>
  800390:	83 c4 10             	add    $0x10,%esp
  800393:	90                   	nop
  800394:	8b 5d fc             	mov    -0x4(%ebp),%ebx
  800397:	c9                   	leave  
  800398:	c3                   	ret    

00800399 <display_buffer>:
  800399:	55                   	push   %ebp
  80039a:	89 e5                	mov    %esp,%ebp
  80039c:	57                   	push   %edi
  80039d:	56                   	push   %esi
  80039e:	53                   	push   %ebx
  80039f:	e8 38 fe ff ff       	call   8001dc <__x86.get_pc_thunk.ax>
  8003a4:	05 5c ac 04 00       	add    $0x4ac5c,%eax
  8003a9:	8b 80 20 04 00 00    	mov    0x420(%eax),%eax
  8003af:	ba 80 3e 00 00       	mov    $0x3e80,%edx
  8003b4:	bb 00 00 0a 00       	mov    $0xa0000,%ebx
  8003b9:	89 d1                	mov    %edx,%ecx
  8003bb:	89 c6                	mov    %eax,%esi
  8003bd:	89 df                	mov    %ebx,%edi
  8003bf:	fc                   	cld    
  8003c0:	f3 a5                	rep movsl %ds:(%esi),%es:(%edi)
  8003c2:	90                   	nop
  8003c3:	5b                   	pop    %ebx
  8003c4:	5e                   	pop    %esi
  8003c5:	5f                   	pop    %edi
  8003c6:	5d                   	pop    %ebp
  8003c7:	c3                   	ret    

008003c8 <draw_character>:
  8003c8:	55                   	push   %ebp
  8003c9:	89 e5                	mov    %esp,%ebp
  8003cb:	53                   	push   %ebx
  8003cc:	83 ec 24             	sub    $0x24,%esp
  8003cf:	e8 0c fe ff ff       	call   8001e0 <__x86.get_pc_thunk.bx>
  8003d4:	81 c3 2c ac 04 00    	add    $0x4ac2c,%ebx
  8003da:	8b 45 08             	mov    0x8(%ebp),%eax
  8003dd:	88 45 e4             	mov    %al,-0x1c(%ebp)
  8003e0:	80 7d e4 00          	cmpb   $0x0,-0x1c(%ebp)
  8003e4:	79 34                	jns    80041a <draw_character+0x52>
  8003e6:	e8 df fe ff ff       	call   8002ca <cli>
  8003eb:	83 ec 0c             	sub    $0xc,%esp
  8003ee:	8d 83 70 65 ff ff    	lea    -0x9a90(%ebx),%eax
  8003f4:	50                   	push   %eax
  8003f5:	8d 83 9c 65 ff ff    	lea    -0x9a64(%ebx),%eax
  8003fb:	50                   	push   %eax
  8003fc:	6a 18                	push   $0x18
  8003fe:	8d 83 81 65 ff ff    	lea    -0x9a7f(%ebx),%eax
  800404:	50                   	push   %eax
  800405:	8d 83 28 65 ff ff    	lea    -0x9ad8(%ebx),%eax
  80040b:	50                   	push   %eax
  80040c:	e8 ff 1f 03 00       	call   832410 <printf>
  800411:	83 c4 20             	add    $0x20,%esp
  800414:	b8 01 00 00 00       	mov    $0x1,%eax
  800419:	82 0f be             	orb    $0xbe,(%edi)
  80041c:	45                   	inc    %ebp
  80041d:	e4 8d                	in     $0x8d,%al
  80041f:	14 c5                	adc    $0xc5,%al
  800421:	00 00                	add    %al,(%eax)
  800423:	00 00                	add    %al,(%eax)
  800425:	c7 c0 20 b0 84 00    	mov    $0x84b020,%eax
  80042b:	01 d0                	add    %edx,%eax
  80042d:	89 45 ec             	mov    %eax,-0x14(%ebp)
  800430:	c7 45 f4 00 00 00 00 	movl   $0x0,-0xc(%ebp)
  800437:	eb 55                	jmp    80048e <draw_character+0xc6>
  800439:	c7 45 f0 00 00 00 00 	movl   $0x0,-0x10(%ebp)
  800440:	eb 42                	jmp    800484 <draw_character+0xbc>
  800442:	8b 55 f4             	mov    -0xc(%ebp),%edx
  800445:	8b 45 ec             	mov    -0x14(%ebp),%eax
  800448:	01 d0                	add    %edx,%eax
  80044a:	0f b6 00             	movzbl (%eax),%eax
  80044d:	0f be d0             	movsbl %al,%edx
  800450:	8b 45 f0             	mov    -0x10(%ebp),%eax
  800453:	89 c1                	mov    %eax,%ecx
  800455:	d3 fa                	sar    %cl,%edx
  800457:	89 d0                	mov    %edx,%eax
  800459:	83 e0 01             	and    $0x1,%eax
  80045c:	85 c0                	test   %eax,%eax
  80045e:	74 20                	je     800480 <draw_character+0xb8>
  800460:	8b 55 10             	mov    0x10(%ebp),%edx
  800463:	8b 45 f0             	mov    -0x10(%ebp),%eax
  800466:	01 c2                	add    %eax,%edx
  800468:	8b 4d 0c             	mov    0xc(%ebp),%ecx
  80046b:	8b 45 f4             	mov    -0xc(%ebp),%eax
  80046e:	01 c8                	add    %ecx,%eax
  800470:	83 ec 04             	sub    $0x4,%esp
  800473:	ff 75 14             	pushl  0x14(%ebp)
  800476:	52                   	push   %edx
  800477:	50                   	push   %eax
  800478:	e8 5e fe ff ff       	call   8002db <draw_pixel>
  80047d:	83 c4 10             	add    $0x10,%esp
  800480:	83 45 f0 01          	addl   $0x1,-0x10(%ebp)
  800484:	83 7d f0 07          	cmpl   $0x7,-0x10(%ebp)
  800488:	7e b8                	jle    800442 <draw_character+0x7a>
  80048a:	83 45 f4 01          	addl   $0x1,-0xc(%ebp)
  80048e:	83 7d f4 07          	cmpl   $0x7,-0xc(%ebp)
  800492:	7e a5                	jle    800439 <draw_character+0x71>
  800494:	90                   	nop
  800495:	8b 5d fc             	mov    -0x4(%ebp),%ebx
  800498:	c9                   	leave  
  800499:	c3                   	ret    

0080049a <draw_string>:
  80049a:	55                   	push   %ebp
  80049b:	89 e5                	mov    %esp,%ebp
  80049d:	83 ec 08             	sub    $0x8,%esp
  8004a0:	e8 37 fd ff ff       	call   8001dc <__x86.get_pc_thunk.ax>
  8004a5:	05 5b ab 04 00       	add    $0x4ab5b,%eax
  8004aa:	eb 3f                	jmp    8004eb <draw_string+0x51>
  8004ac:	8b 45 08             	mov    0x8(%ebp),%eax
  8004af:	8d 50 01             	lea    0x1(%eax),%edx
  8004b2:	89 55 08             	mov    %edx,0x8(%ebp)
  8004b5:	0f b6 00             	movzbl (%eax),%eax
  8004b8:	0f be c0             	movsbl %al,%eax
  8004bb:	ff 75 14             	pushl  0x14(%ebp)
  8004be:	ff 75 10             	pushl  0x10(%ebp)
  8004c1:	ff 75 0c             	pushl  0xc(%ebp)
  8004c4:	50                   	push   %eax
  8004c5:	e8 fe fe ff ff       	call   8003c8 <draw_character>
  8004ca:	83 c4 10             	add    $0x10,%esp
  8004cd:	8b 45 10             	mov    0x10(%ebp),%eax
  8004d0:	83 c0 08             	add    $0x8,%eax
  8004d3:	3d 3f 01 00 00       	cmp    $0x13f,%eax
  8004d8:	7e 0d                	jle    8004e7 <draw_string+0x4d>
  8004da:	83 45 0c 08          	addl   $0x8,0xc(%ebp)
  8004de:	c7 45 10 00 00 00 00 	movl   $0x0,0x10(%ebp)
  8004e5:	eb 04                	jmp    8004eb <draw_string+0x51>
  8004e7:	83 45 10 08          	addl   $0x8,0x10(%ebp)
  8004eb:	8b 45 08             	mov    0x8(%ebp),%eax
  8004ee:	0f b6 00             	movzbl (%eax),%eax
  8004f1:	84 c0                	test   %al,%al
  8004f3:	75 b7                	jne    8004ac <draw_string+0x12>
  8004f5:	90                   	nop
  8004f6:	c9                   	leave  
  8004f7:	c3                   	ret    

008004f8 <syscall>:
  8004f8:	55                   	push   %ebp
  8004f9:	89 e5                	mov    %esp,%ebp
  8004fb:	53                   	push   %ebx
  8004fc:	83 ec 10             	sub    $0x10,%esp
  8004ff:	e8 d8 fc ff ff       	call   8001dc <__x86.get_pc_thunk.ax>
  800504:	05 fc aa 04 00       	add    $0x4aafc,%eax
  800509:	8d 45 08             	lea    0x8(%ebp),%eax
  80050c:	89 45 f8             	mov    %eax,-0x8(%ebp)
  80050f:	8b 45 f8             	mov    -0x8(%ebp),%eax
  800512:	8b 00                	mov    (%eax),%eax
  800514:	8b 55 f8             	mov    -0x8(%ebp),%edx
  800517:	83 c2 04             	add    $0x4,%edx
  80051a:	8b 1a                	mov    (%edx),%ebx
  80051c:	8b 55 f8             	mov    -0x8(%ebp),%edx
  80051f:	83 c2 08             	add    $0x8,%edx
  800522:	8b 0a                	mov    (%edx),%ecx
  800524:	8b 55 f8             	mov    -0x8(%ebp),%edx
  800527:	83 c2 0c             	add    $0xc,%edx
  80052a:	8b 12                	mov    (%edx),%edx
  80052c:	cd 80                	int    $0x80
  80052e:	89 45 f4             	mov    %eax,-0xc(%ebp)
  800531:	8b 45 f4             	mov    -0xc(%ebp),%eax
  800534:	83 c4 10             	add    $0x10,%esp
  800537:	5b                   	pop    %ebx
  800538:	5d                   	pop    %ebp
  800539:	c3                   	ret    

0080053a <_exit>:
  80053a:	55                   	push   %ebp
  80053b:	89 e5                	mov    %esp,%ebp
  80053d:	53                   	push   %ebx
  80053e:	83 ec 04             	sub    $0x4,%esp
  800541:	e8 96 fc ff ff       	call   8001dc <__x86.get_pc_thunk.ax>
  800546:	05 ba aa 04 00       	add    $0x4aaba,%eax
  80054b:	8d 90 fc 65 ff ff    	lea    -0x9a04(%eax),%edx
  800551:	52                   	push   %edx
  800552:	6a 0e                	push   $0xe
  800554:	8d 90 b8 65 ff ff    	lea    -0x9a48(%eax),%edx
  80055a:	52                   	push   %edx
  80055b:	8d 90 d4 65 ff ff    	lea    -0x9a2c(%eax),%edx
  800561:	52                   	push   %edx
  800562:	89 c3                	mov    %eax,%ebx
  800564:	e8 a7 1e 03 00       	call   832410 <printf>
  800569:	83 c4 10             	add    $0x10,%esp
  80056c:	83 7d 08 00          	cmpl   $0x0,0x8(%ebp)
  800570:	74 06                	je     800578 <_exit+0x3e>
  800572:	b8 01 00 00 00       	mov    $0x1,%eax
  800577:	82 90 8b 5d fc c9 c3 	adcb   $0xc3,-0x3603a275(%eax)

0080057e <open>:
  80057e:	55                   	push   %ebp
  80057f:	89 e5                	mov    %esp,%ebp
  800581:	e8 56 fc ff ff       	call   8001dc <__x86.get_pc_thunk.ax>
  800586:	05 7a aa 04 00       	add    $0x4aa7a,%eax
  80058b:	ff 75 0c             	pushl  0xc(%ebp)
  80058e:	ff 75 08             	pushl  0x8(%ebp)
  800591:	6a 05                	push   $0x5
  800593:	e8 60 ff ff ff       	call   8004f8 <syscall>
  800598:	83 c4 0c             	add    $0xc,%esp
  80059b:	c9                   	leave  
  80059c:	c3                   	ret    

0080059d <read>:
  80059d:	55                   	push   %ebp
  80059e:	89 e5                	mov    %esp,%ebp
  8005a0:	e8 37 fc ff ff       	call   8001dc <__x86.get_pc_thunk.ax>
  8005a5:	05 5b aa 04 00       	add    $0x4aa5b,%eax
  8005aa:	ff 75 10             	pushl  0x10(%ebp)
  8005ad:	ff 75 0c             	pushl  0xc(%ebp)
  8005b0:	ff 75 08             	pushl  0x8(%ebp)
  8005b3:	6a 03                	push   $0x3
  8005b5:	e8 3e ff ff ff       	call   8004f8 <syscall>
  8005ba:	83 c4 10             	add    $0x10,%esp
  8005bd:	c9                   	leave  
  8005be:	c3                   	ret    

008005bf <write>:
  8005bf:	55                   	push   %ebp
  8005c0:	89 e5                	mov    %esp,%ebp
  8005c2:	e8 15 fc ff ff       	call   8001dc <__x86.get_pc_thunk.ax>
  8005c7:	05 39 aa 04 00       	add    $0x4aa39,%eax
  8005cc:	ff 75 10             	pushl  0x10(%ebp)
  8005cf:	ff 75 0c             	pushl  0xc(%ebp)
  8005d2:	ff 75 08             	pushl  0x8(%ebp)
  8005d5:	6a 04                	push   $0x4
  8005d7:	e8 1c ff ff ff       	call   8004f8 <syscall>
  8005dc:	83 c4 10             	add    $0x10,%esp
  8005df:	c9                   	leave  
  8005e0:	c3                   	ret    

008005e1 <lseek>:
  8005e1:	55                   	push   %ebp
  8005e2:	89 e5                	mov    %esp,%ebp
  8005e4:	e8 f3 fb ff ff       	call   8001dc <__x86.get_pc_thunk.ax>
  8005e9:	05 17 aa 04 00       	add    $0x4aa17,%eax
  8005ee:	ff 75 10             	pushl  0x10(%ebp)
  8005f1:	ff 75 0c             	pushl  0xc(%ebp)
  8005f4:	ff 75 08             	pushl  0x8(%ebp)
  8005f7:	6a 13                	push   $0x13
  8005f9:	e8 fa fe ff ff       	call   8004f8 <syscall>
  8005fe:	83 c4 10             	add    $0x10,%esp
  800601:	c9                   	leave  
  800602:	c3                   	ret    

00800603 <sbrk>:
  800603:	55                   	push   %ebp
  800604:	89 e5                	mov    %esp,%ebp
  800606:	53                   	push   %ebx
  800607:	83 ec 10             	sub    $0x10,%esp
  80060a:	e8 d1 fb ff ff       	call   8001e0 <__x86.get_pc_thunk.bx>
  80060f:	81 c3 f1 a9 04 00    	add    $0x4a9f1,%ebx
  800615:	8b 83 80 0f 01 00    	mov    0x10f80(%ebx),%eax
  80061b:	85 c0                	test   %eax,%eax
  80061d:	75 0c                	jne    80062b <sbrk+0x28>
  80061f:	c7 c0 dc 39 86 00    	mov    $0x8639dc,%eax
  800625:	89 83 80 0f 01 00    	mov    %eax,0x10f80(%ebx)
  80062b:	8b 93 80 0f 01 00    	mov    0x10f80(%ebx),%edx
  800631:	8b 45 08             	mov    0x8(%ebp),%eax
  800634:	01 d0                	add    %edx,%eax
  800636:	50                   	push   %eax
  800637:	6a 2d                	push   $0x2d
  800639:	e8 ba fe ff ff       	call   8004f8 <syscall>
  80063e:	83 c4 08             	add    $0x8,%esp
  800641:	85 c0                	test   %eax,%eax
  800643:	74 06                	je     80064b <sbrk+0x48>
  800645:	b8 01 00 00 00       	mov    $0x1,%eax
  80064a:	82 8b 83 80 0f 01 00 	orb    $0x0,0x10f8083(%ebx)
  800651:	89 45 f8             	mov    %eax,-0x8(%ebp)
  800654:	8b 93 80 0f 01 00    	mov    0x10f80(%ebx),%edx
  80065a:	8b 45 08             	mov    0x8(%ebp),%eax
  80065d:	01 d0                	add    %edx,%eax
  80065f:	89 83 80 0f 01 00    	mov    %eax,0x10f80(%ebx)
  800665:	8b 45 f8             	mov    -0x8(%ebp),%eax
  800668:	8b 5d fc             	mov    -0x4(%ebp),%ebx
  80066b:	c9                   	leave  
  80066c:	c3                   	ret    

0080066d <close>:
  80066d:	55                   	push   %ebp
  80066e:	89 e5                	mov    %esp,%ebp
  800670:	e8 67 fb ff ff       	call   8001dc <__x86.get_pc_thunk.ax>
  800675:	05 8b a9 04 00       	add    $0x4a98b,%eax
  80067a:	ff 75 08             	pushl  0x8(%ebp)
  80067d:	6a 06                	push   $0x6
  80067f:	e8 74 fe ff ff       	call   8004f8 <syscall>
  800684:	83 c4 08             	add    $0x8,%esp
  800687:	c9                   	leave  
  800688:	c3                   	ret    

00800689 <fstat>:
  800689:	55                   	push   %ebp
  80068a:	89 e5                	mov    %esp,%ebp
  80068c:	e8 4b fb ff ff       	call   8001dc <__x86.get_pc_thunk.ax>
  800691:	05 6f a9 04 00       	add    $0x4a96f,%eax
  800696:	8b 45 0c             	mov    0xc(%ebp),%eax
  800699:	c7 40 04 00 20 00 00 	movl   $0x2000,0x4(%eax)
  8006a0:	b8 00 00 00 00       	mov    $0x0,%eax
  8006a5:	5d                   	pop    %ebp
  8006a6:	c3                   	ret    

008006a7 <isatty>:
  8006a7:	55                   	push   %ebp
  8006a8:	89 e5                	mov    %esp,%ebp
  8006aa:	e8 2d fb ff ff       	call   8001dc <__x86.get_pc_thunk.ax>
  8006af:	05 51 a9 04 00       	add    $0x4a951,%eax
  8006b4:	b8 00 00 00 00       	mov    $0x0,%eax
  8006b9:	5d                   	pop    %ebp
  8006ba:	c3                   	ret    

008006bb <cli>:
  8006bb:	55                   	push   %ebp
  8006bc:	89 e5                	mov    %esp,%ebp
  8006be:	e8 19 fb ff ff       	call   8001dc <__x86.get_pc_thunk.ax>
  8006c3:	05 3d a9 04 00       	add    $0x4a93d,%eax
  8006c8:	fa                   	cli    
  8006c9:	90                   	nop
  8006ca:	5d                   	pop    %ebp
  8006cb:	c3                   	ret    

008006cc <add_irq_handle>:
  8006cc:	55                   	push   %ebp
  8006cd:	89 e5                	mov    %esp,%ebp
  8006cf:	53                   	push   %ebx
  8006d0:	83 ec 04             	sub    $0x4,%esp
  8006d3:	e8 04 fb ff ff       	call   8001dc <__x86.get_pc_thunk.ax>
  8006d8:	05 28 a9 04 00       	add    $0x4a928,%eax
  8006dd:	83 ec 04             	sub    $0x4,%esp
  8006e0:	ff 75 0c             	pushl  0xc(%ebp)
  8006e3:	ff 75 08             	pushl  0x8(%ebp)
  8006e6:	6a 00                	push   $0x0
  8006e8:	89 c3                	mov    %eax,%ebx
  8006ea:	e8 09 fe ff ff       	call   8004f8 <syscall>
  8006ef:	83 c4 10             	add    $0x10,%esp
  8006f2:	90                   	nop
  8006f3:	8b 5d fc             	mov    -0x4(%ebp),%ebx
  8006f6:	c9                   	leave  
  8006f7:	c3                   	ret    

008006f8 <game_init>:
  8006f8:	55                   	push   %ebp
  8006f9:	89 e5                	mov    %esp,%ebp
  8006fb:	53                   	push   %ebx
  8006fc:	83 ec 04             	sub    $0x4,%esp
  8006ff:	e8 dc fa ff ff       	call   8001e0 <__x86.get_pc_thunk.bx>
  800704:	81 c3 fc a8 04 00    	add    $0x4a8fc,%ebx
  80070a:	e8 0f fb ff ff       	call   80021e <init_timer>
  80070f:	83 ec 08             	sub    $0x8,%esp
  800712:	c7 c0 7a 11 82 00    	mov    $0x82117a,%eax
  800718:	50                   	push   %eax
  800719:	6a 00                	push   $0x0
  80071b:	e8 ac ff ff ff       	call   8006cc <add_irq_handle>
  800720:	83 c4 10             	add    $0x10,%esp
  800723:	83 ec 08             	sub    $0x8,%esp
  800726:	c7 c0 73 0e 82 00    	mov    $0x820e73,%eax
  80072c:	50                   	push   %eax
  80072d:	6a 01                	push   $0x1
  80072f:	e8 98 ff ff ff       	call   8006cc <add_irq_handle>
  800734:	83 c4 10             	add    $0x10,%esp
  800737:	8d 83 8c 66 ff ff    	lea    -0x9974(%ebx),%eax
  80073d:	50                   	push   %eax
  80073e:	6a 12                	push   $0x12
  800740:	8d 83 04 66 ff ff    	lea    -0x99fc(%ebx),%eax
  800746:	50                   	push   %eax
  800747:	8d 83 18 66 ff ff    	lea    -0x99e8(%ebx),%eax
  80074d:	50                   	push   %eax
  80074e:	e8 bd 1c 03 00       	call   832410 <printf>
  800753:	83 c4 10             	add    $0x10,%esp
  800756:	e8 4f 5a 01 00       	call   8161aa <main_loop>
  80075b:	e8 5b ff ff ff       	call   8006bb <cli>
  800760:	83 ec 0c             	sub    $0xc,%esp
  800763:	8d 83 42 66 ff ff    	lea    -0x99be(%ebx),%eax
  800769:	50                   	push   %eax
  80076a:	8d 83 8c 66 ff ff    	lea    -0x9974(%ebx),%eax
  800770:	50                   	push   %eax
  800771:	6a 16                	push   $0x16
  800773:	8d 83 04 66 ff ff    	lea    -0x99fc(%ebx),%eax
  800779:	50                   	push   %eax
  80077a:	8d 83 44 66 ff ff    	lea    -0x99bc(%ebx),%eax
  800780:	50                   	push   %eax
  800781:	e8 8a 1c 03 00       	call   832410 <printf>
  800786:	83 c4 20             	add    $0x20,%esp
  800789:	b8 01 00 00 00       	mov    $0x1,%eax
  80078e:	82 90 8b 5d fc c9 c3 	adcb   $0xc3,-0x3603a275(%eax)

00800795 <PAL_GetPalette>:
  800795:	55                   	push   %ebp
  800796:	89 e5                	mov    %esp,%ebp
  800798:	53                   	push   %ebx
  800799:	81 ec 14 06 00 00    	sub    $0x614,%esp
  80079f:	e8 3c fa ff ff       	call   8001e0 <__x86.get_pc_thunk.bx>
  8007a4:	81 c3 5c a8 04 00    	add    $0x4a85c,%ebx
  8007aa:	83 ec 0c             	sub    $0xc,%esp
  8007ad:	8d 83 96 66 ff ff    	lea    -0x996a(%ebx),%eax
  8007b3:	50                   	push   %eax
  8007b4:	e8 d2 35 00 00       	call   803d8b <UTIL_OpenRequiredFile>
  8007b9:	83 c4 10             	add    $0x10,%esp
  8007bc:	89 45 f0             	mov    %eax,-0x10(%ebp)
  8007bf:	8b 45 08             	mov    0x8(%ebp),%eax
  8007c2:	ff 75 f0             	pushl  -0x10(%ebp)
  8007c5:	50                   	push   %eax
  8007c6:	68 00 06 00 00       	push   $0x600
  8007cb:	8d 85 f0 f9 ff ff    	lea    -0x610(%ebp),%eax
  8007d1:	50                   	push   %eax
  8007d2:	e8 83 5b 02 00       	call   82635a <PAL_MKFReadChunk>
  8007d7:	83 c4 10             	add    $0x10,%esp
  8007da:	89 45 f4             	mov    %eax,-0xc(%ebp)
  8007dd:	83 ec 0c             	sub    $0xc,%esp
  8007e0:	ff 75 f0             	pushl  -0x10(%ebp)
  8007e3:	e8 78 f9 02 00       	call   830160 <fclose>
  8007e8:	83 c4 10             	add    $0x10,%esp
  8007eb:	83 7d f4 00          	cmpl   $0x0,-0xc(%ebp)
  8007ef:	79 0a                	jns    8007fb <PAL_GetPalette+0x66>
  8007f1:	b8 00 00 00 00       	mov    $0x0,%eax
  8007f6:	e9 db 00 00 00       	jmp    8008d6 <PAL_GetPalette+0x141>
  8007fb:	81 7d f4 00 03 00 00 	cmpl   $0x300,-0xc(%ebp)
  800802:	7f 07                	jg     80080b <PAL_GetPalette+0x76>
  800804:	c7 45 0c 00 00 00 00 	movl   $0x0,0xc(%ebp)
  80080b:	c7 45 f4 00 00 00 00 	movl   $0x0,-0xc(%ebp)
  800812:	e9 ac 00 00 00       	jmp    8008c3 <PAL_GetPalette+0x12e>
  800817:	83 7d 0c 00          	cmpl   $0x0,0xc(%ebp)
  80081b:	74 07                	je     800824 <PAL_GetPalette+0x8f>
  80081d:	b9 00 03 00 00       	mov    $0x300,%ecx
  800822:	eb 05                	jmp    800829 <PAL_GetPalette+0x94>
  800824:	b9 00 00 00 00       	mov    $0x0,%ecx
  800829:	8b 55 f4             	mov    -0xc(%ebp),%edx
  80082c:	89 d0                	mov    %edx,%eax
  80082e:	01 c0                	add    %eax,%eax
  800830:	01 d0                	add    %edx,%eax
  800832:	01 c8                	add    %ecx,%eax
  800834:	0f b6 84 05 f0 f9 ff 	movzbl -0x610(%ebp,%eax,1),%eax
  80083b:	ff 
  80083c:	8d 14 85 00 00 00 00 	lea    0x0(,%eax,4),%edx
  800843:	8b 45 f4             	mov    -0xc(%ebp),%eax
  800846:	88 94 83 a0 0f 01 00 	mov    %dl,0x10fa0(%ebx,%eax,4)
  80084d:	83 7d 0c 00          	cmpl   $0x0,0xc(%ebp)
  800851:	74 07                	je     80085a <PAL_GetPalette+0xc5>
  800853:	b9 00 03 00 00       	mov    $0x300,%ecx
  800858:	eb 05                	jmp    80085f <PAL_GetPalette+0xca>
  80085a:	b9 00 00 00 00       	mov    $0x0,%ecx
  80085f:	8b 55 f4             	mov    -0xc(%ebp),%edx
  800862:	89 d0                	mov    %edx,%eax
  800864:	01 c0                	add    %eax,%eax
  800866:	01 d0                	add    %edx,%eax
  800868:	01 c8                	add    %ecx,%eax
  80086a:	83 c0 01             	add    $0x1,%eax
  80086d:	0f b6 84 05 f0 f9 ff 	movzbl -0x610(%ebp,%eax,1),%eax
  800874:	ff 
  800875:	8d 14 85 00 00 00 00 	lea    0x0(,%eax,4),%edx
  80087c:	8b 45 f4             	mov    -0xc(%ebp),%eax
  80087f:	88 94 83 a1 0f 01 00 	mov    %dl,0x10fa1(%ebx,%eax,4)
  800886:	83 7d 0c 00          	cmpl   $0x0,0xc(%ebp)
  80088a:	74 07                	je     800893 <PAL_GetPalette+0xfe>
  80088c:	b9 00 03 00 00       	mov    $0x300,%ecx
  800891:	eb 05                	jmp    800898 <PAL_GetPalette+0x103>
  800893:	b9 00 00 00 00       	mov    $0x0,%ecx
  800898:	8b 55 f4             	mov    -0xc(%ebp),%edx
  80089b:	89 d0                	mov    %edx,%eax
  80089d:	01 c0                	add    %eax,%eax
  80089f:	01 d0                	add    %edx,%eax
  8008a1:	01 c8                	add    %ecx,%eax
  8008a3:	83 c0 02             	add    $0x2,%eax
  8008a6:	0f b6 84 05 f0 f9 ff 	movzbl -0x610(%ebp,%eax,1),%eax
  8008ad:	ff 
  8008ae:	8d 14 85 00 00 00 00 	lea    0x0(,%eax,4),%edx
  8008b5:	8b 45 f4             	mov    -0xc(%ebp),%eax
  8008b8:	88 94 83 a2 0f 01 00 	mov    %dl,0x10fa2(%ebx,%eax,4)
  8008bf:	83 45 f4 01          	addl   $0x1,-0xc(%ebp)
  8008c3:	81 7d f4 ff 00 00 00 	cmpl   $0xff,-0xc(%ebp)
  8008ca:	0f 8e 47 ff ff ff    	jle    800817 <PAL_GetPalette+0x82>
  8008d0:	8d 83 a0 0f 01 00    	lea    0x10fa0(%ebx),%eax
  8008d6:	8b 5d fc             	mov    -0x4(%ebp),%ebx
  8008d9:	c9                   	leave  
  8008da:	c3                   	ret    

008008db <PAL_SetPalette>:
  8008db:	55                   	push   %ebp
  8008dc:	89 e5                	mov    %esp,%ebp
  8008de:	53                   	push   %ebx
  8008df:	83 ec 14             	sub    $0x14,%esp
  8008e2:	e8 f9 f8 ff ff       	call   8001e0 <__x86.get_pc_thunk.bx>
  8008e7:	81 c3 19 a7 04 00    	add    $0x4a719,%ebx
  8008ed:	83 ec 08             	sub    $0x8,%esp
  8008f0:	ff 75 0c             	pushl  0xc(%ebp)
  8008f3:	ff 75 08             	pushl  0x8(%ebp)
  8008f6:	e8 9a fe ff ff       	call   800795 <PAL_GetPalette>
  8008fb:	83 c4 10             	add    $0x10,%esp
  8008fe:	89 45 f4             	mov    %eax,-0xc(%ebp)
  800901:	83 7d f4 00          	cmpl   $0x0,-0xc(%ebp)
  800905:	74 0e                	je     800915 <PAL_SetPalette+0x3a>
  800907:	83 ec 0c             	sub    $0xc,%esp
  80090a:	ff 75 f4             	pushl  -0xc(%ebp)
  80090d:	e8 92 19 00 00       	call   8022a4 <VIDEO_SetPalette>
  800912:	83 c4 10             	add    $0x10,%esp
  800915:	90                   	nop
  800916:	8b 5d fc             	mov    -0x4(%ebp),%ebx
  800919:	c9                   	leave  
  80091a:	c3                   	ret    

0080091b <PAL_FadeOut>:
  80091b:	55                   	push   %ebp
  80091c:	89 e5                	mov    %esp,%ebp
  80091e:	53                   	push   %ebx
  80091f:	81 ec 14 08 00 00    	sub    $0x814,%esp
  800925:	e8 b6 f8 ff ff       	call   8001e0 <__x86.get_pc_thunk.bx>
  80092a:	81 c3 d6 a6 04 00    	add    $0x4a6d6,%ebx
  800930:	c7 45 f4 00 00 00 00 	movl   $0x0,-0xc(%ebp)
  800937:	eb 1f                	jmp    800958 <PAL_FadeOut+0x3d>
  800939:	e8 bd 1a 00 00       	call   8023fb <VIDEO_GetPalette>
  80093e:	89 c2                	mov    %eax,%edx
  800940:	8b 45 f4             	mov    -0xc(%ebp),%eax
  800943:	c1 e0 02             	shl    $0x2,%eax
  800946:	01 c2                	add    %eax,%edx
  800948:	8b 45 f4             	mov    -0xc(%ebp),%eax
  80094b:	8b 12                	mov    (%edx),%edx
  80094d:	89 94 85 ec fb ff ff 	mov    %edx,-0x414(%ebp,%eax,4)
  800954:	83 45 f4 01          	addl   $0x1,-0xc(%ebp)
  800958:	81 7d f4 ff 00 00 00 	cmpl   $0xff,-0xc(%ebp)
  80095f:	7e d8                	jle    800939 <PAL_FadeOut+0x1e>
  800961:	e8 70 08 02 00       	call   8211d6 <SDL_GetTicks>
  800966:	89 c2                	mov    %eax,%edx
  800968:	8b 45 08             	mov    0x8(%ebp),%eax
  80096b:	69 c0 58 02 00 00    	imul   $0x258,%eax,%eax
  800971:	01 d0                	add    %edx,%eax
  800973:	89 45 f0             	mov    %eax,-0x10(%ebp)
  800976:	e8 5b 08 02 00       	call   8211d6 <SDL_GetTicks>
  80097b:	89 c2                	mov    %eax,%edx
  80097d:	8b 45 f0             	mov    -0x10(%ebp),%eax
  800980:	29 d0                	sub    %edx,%eax
  800982:	99                   	cltd   
  800983:	f7 7d 08             	idivl  0x8(%ebp)
  800986:	89 c1                	mov    %eax,%ecx
  800988:	ba 67 66 66 66       	mov    $0x66666667,%edx
  80098d:	89 c8                	mov    %ecx,%eax
  80098f:	f7 ea                	imul   %edx
  800991:	c1 fa 02             	sar    $0x2,%edx
  800994:	89 c8                	mov    %ecx,%eax
  800996:	c1 f8 1f             	sar    $0x1f,%eax
  800999:	29 c2                	sub    %eax,%edx
  80099b:	89 d0                	mov    %edx,%eax
  80099d:	89 45 ec             	mov    %eax,-0x14(%ebp)
  8009a0:	83 7d ec 00          	cmpl   $0x0,-0x14(%ebp)
  8009a4:	0f 88 9d 00 00 00    	js     800a47 <PAL_FadeOut+0x12c>
  8009aa:	c7 45 f4 00 00 00 00 	movl   $0x0,-0xc(%ebp)
  8009b1:	eb 67                	jmp    800a1a <PAL_FadeOut+0xff>
  8009b3:	8b 45 f4             	mov    -0xc(%ebp),%eax
  8009b6:	0f b6 84 85 ec fb ff 	movzbl -0x414(%ebp,%eax,4),%eax
  8009bd:	ff 
  8009be:	0f b6 c0             	movzbl %al,%eax
  8009c1:	0f af 45 ec          	imul   -0x14(%ebp),%eax
  8009c5:	c1 f8 06             	sar    $0x6,%eax
  8009c8:	89 c2                	mov    %eax,%edx
  8009ca:	8b 45 f4             	mov    -0xc(%ebp),%eax
  8009cd:	88 94 85 ec f7 ff ff 	mov    %dl,-0x814(%ebp,%eax,4)
  8009d4:	8b 45 f4             	mov    -0xc(%ebp),%eax
  8009d7:	0f b6 84 85 ed fb ff 	movzbl -0x413(%ebp,%eax,4),%eax
  8009de:	ff 
  8009df:	0f b6 c0             	movzbl %al,%eax
  8009e2:	0f af 45 ec          	imul   -0x14(%ebp),%eax
  8009e6:	c1 f8 06             	sar    $0x6,%eax
  8009e9:	89 c2                	mov    %eax,%edx
  8009eb:	8b 45 f4             	mov    -0xc(%ebp),%eax
  8009ee:	88 94 85 ed f7 ff ff 	mov    %dl,-0x813(%ebp,%eax,4)
  8009f5:	8b 45 f4             	mov    -0xc(%ebp),%eax
  8009f8:	0f b6 84 85 ee fb ff 	movzbl -0x412(%ebp,%eax,4),%eax
  8009ff:	ff 
  800a00:	0f b6 c0             	movzbl %al,%eax
  800a03:	0f af 45 ec          	imul   -0x14(%ebp),%eax
  800a07:	c1 f8 06             	sar    $0x6,%eax
  800a0a:	89 c2                	mov    %eax,%edx
  800a0c:	8b 45 f4             	mov    -0xc(%ebp),%eax
  800a0f:	88 94 85 ee f7 ff ff 	mov    %dl,-0x812(%ebp,%eax,4)
  800a16:	83 45 f4 01          	addl   $0x1,-0xc(%ebp)
  800a1a:	81 7d f4 ff 00 00 00 	cmpl   $0xff,-0xc(%ebp)
  800a21:	7e 90                	jle    8009b3 <PAL_FadeOut+0x98>
  800a23:	83 ec 0c             	sub    $0xc,%esp
  800a26:	8d 85 ec f7 ff ff    	lea    -0x814(%ebp),%eax
  800a2c:	50                   	push   %eax
  800a2d:	e8 72 18 00 00       	call   8022a4 <VIDEO_SetPalette>
  800a32:	83 c4 10             	add    $0x10,%esp
  800a35:	83 ec 0c             	sub    $0xc,%esp
  800a38:	6a 0a                	push   $0xa
  800a3a:	e8 7a 31 00 00       	call   803bb9 <UTIL_Delay>
  800a3f:	83 c4 10             	add    $0x10,%esp
  800a42:	e9 2f ff ff ff       	jmp    800976 <PAL_FadeOut+0x5b>
  800a47:	90                   	nop
  800a48:	83 ec 04             	sub    $0x4,%esp
  800a4b:	68 00 04 00 00       	push   $0x400
  800a50:	6a 00                	push   $0x0
  800a52:	8d 85 ec f7 ff ff    	lea    -0x814(%ebp),%eax
  800a58:	50                   	push   %eax
  800a59:	e8 7f 18 03 00       	call   8322dd <memset>
  800a5e:	83 c4 10             	add    $0x10,%esp
  800a61:	83 ec 0c             	sub    $0xc,%esp
  800a64:	8d 85 ec f7 ff ff    	lea    -0x814(%ebp),%eax
  800a6a:	50                   	push   %eax
  800a6b:	e8 34 18 00 00       	call   8022a4 <VIDEO_SetPalette>
  800a70:	83 c4 10             	add    $0x10,%esp
  800a73:	90                   	nop
  800a74:	8b 5d fc             	mov    -0x4(%ebp),%ebx
  800a77:	c9                   	leave  
  800a78:	c3                   	ret    

00800a79 <PAL_FadeIn>:
  800a79:	55                   	push   %ebp
  800a7a:	89 e5                	mov    %esp,%ebp
  800a7c:	53                   	push   %ebx
  800a7d:	81 ec 14 04 00 00    	sub    $0x414,%esp
  800a83:	e8 58 f7 ff ff       	call   8001e0 <__x86.get_pc_thunk.bx>
  800a88:	81 c3 78 a5 04 00    	add    $0x4a578,%ebx
  800a8e:	83 ec 08             	sub    $0x8,%esp
  800a91:	ff 75 0c             	pushl  0xc(%ebp)
  800a94:	ff 75 08             	pushl  0x8(%ebp)
  800a97:	e8 f9 fc ff ff       	call   800795 <PAL_GetPalette>
  800a9c:	83 c4 10             	add    $0x10,%esp
  800a9f:	89 45 f0             	mov    %eax,-0x10(%ebp)
  800aa2:	e8 2f 07 02 00       	call   8211d6 <SDL_GetTicks>
  800aa7:	89 c2                	mov    %eax,%edx
  800aa9:	8b 45 10             	mov    0x10(%ebp),%eax
  800aac:	69 c0 58 02 00 00    	imul   $0x258,%eax,%eax
  800ab2:	01 d0                	add    %edx,%eax
  800ab4:	89 45 ec             	mov    %eax,-0x14(%ebp)
  800ab7:	e8 1a 07 02 00       	call   8211d6 <SDL_GetTicks>
  800abc:	89 c2                	mov    %eax,%edx
  800abe:	8b 45 ec             	mov    -0x14(%ebp),%eax
  800ac1:	29 d0                	sub    %edx,%eax
  800ac3:	99                   	cltd   
  800ac4:	f7 7d 10             	idivl  0x10(%ebp)
  800ac7:	89 c1                	mov    %eax,%ecx
  800ac9:	ba 67 66 66 66       	mov    $0x66666667,%edx
  800ace:	89 c8                	mov    %ecx,%eax
  800ad0:	f7 ea                	imul   %edx
  800ad2:	c1 fa 02             	sar    $0x2,%edx
  800ad5:	89 c8                	mov    %ecx,%eax
  800ad7:	c1 f8 1f             	sar    $0x1f,%eax
  800ada:	29 c2                	sub    %eax,%edx
  800adc:	89 d0                	mov    %edx,%eax
  800ade:	89 45 e8             	mov    %eax,-0x18(%ebp)
  800ae1:	83 7d e8 00          	cmpl   $0x0,-0x18(%ebp)
  800ae5:	0f 88 c3 00 00 00    	js     800bae <PAL_FadeIn+0x135>
  800aeb:	b8 3c 00 00 00       	mov    $0x3c,%eax
  800af0:	2b 45 e8             	sub    -0x18(%ebp),%eax
  800af3:	89 45 e8             	mov    %eax,-0x18(%ebp)
  800af6:	c7 45 f4 00 00 00 00 	movl   $0x0,-0xc(%ebp)
  800afd:	eb 7e                	jmp    800b7d <PAL_FadeIn+0x104>
  800aff:	8b 45 f4             	mov    -0xc(%ebp),%eax
  800b02:	8d 14 85 00 00 00 00 	lea    0x0(,%eax,4),%edx
  800b09:	8b 45 f0             	mov    -0x10(%ebp),%eax
  800b0c:	01 d0                	add    %edx,%eax
  800b0e:	0f b6 00             	movzbl (%eax),%eax
  800b11:	0f b6 c0             	movzbl %al,%eax
  800b14:	0f af 45 e8          	imul   -0x18(%ebp),%eax
  800b18:	c1 f8 06             	sar    $0x6,%eax
  800b1b:	89 c2                	mov    %eax,%edx
  800b1d:	8b 45 f4             	mov    -0xc(%ebp),%eax
  800b20:	88 94 85 e8 fb ff ff 	mov    %dl,-0x418(%ebp,%eax,4)
  800b27:	8b 45 f4             	mov    -0xc(%ebp),%eax
  800b2a:	8d 14 85 00 00 00 00 	lea    0x0(,%eax,4),%edx
  800b31:	8b 45 f0             	mov    -0x10(%ebp),%eax
  800b34:	01 d0                	add    %edx,%eax
  800b36:	0f b6 40 01          	movzbl 0x1(%eax),%eax
  800b3a:	0f b6 c0             	movzbl %al,%eax
  800b3d:	0f af 45 e8          	imul   -0x18(%ebp),%eax
  800b41:	c1 f8 06             	sar    $0x6,%eax
  800b44:	89 c2                	mov    %eax,%edx
  800b46:	8b 45 f4             	mov    -0xc(%ebp),%eax
  800b49:	88 94 85 e9 fb ff ff 	mov    %dl,-0x417(%ebp,%eax,4)
  800b50:	8b 45 f4             	mov    -0xc(%ebp),%eax
  800b53:	8d 14 85 00 00 00 00 	lea    0x0(,%eax,4),%edx
  800b5a:	8b 45 f0             	mov    -0x10(%ebp),%eax
  800b5d:	01 d0                	add    %edx,%eax
  800b5f:	0f b6 40 02          	movzbl 0x2(%eax),%eax
  800b63:	0f b6 c0             	movzbl %al,%eax
  800b66:	0f af 45 e8          	imul   -0x18(%ebp),%eax
  800b6a:	c1 f8 06             	sar    $0x6,%eax
  800b6d:	89 c2                	mov    %eax,%edx
  800b6f:	8b 45 f4             	mov    -0xc(%ebp),%eax
  800b72:	88 94 85 ea fb ff ff 	mov    %dl,-0x416(%ebp,%eax,4)
  800b79:	83 45 f4 01          	addl   $0x1,-0xc(%ebp)
  800b7d:	81 7d f4 ff 00 00 00 	cmpl   $0xff,-0xc(%ebp)
  800b84:	0f 8e 75 ff ff ff    	jle    800aff <PAL_FadeIn+0x86>
  800b8a:	83 ec 0c             	sub    $0xc,%esp
  800b8d:	8d 85 e8 fb ff ff    	lea    -0x418(%ebp),%eax
  800b93:	50                   	push   %eax
  800b94:	e8 0b 17 00 00       	call   8022a4 <VIDEO_SetPalette>
  800b99:	83 c4 10             	add    $0x10,%esp
  800b9c:	83 ec 0c             	sub    $0xc,%esp
  800b9f:	6a 0a                	push   $0xa
  800ba1:	e8 13 30 00 00       	call   803bb9 <UTIL_Delay>
  800ba6:	83 c4 10             	add    $0x10,%esp
  800ba9:	e9 09 ff ff ff       	jmp    800ab7 <PAL_FadeIn+0x3e>
  800bae:	90                   	nop
  800baf:	83 ec 0c             	sub    $0xc,%esp
  800bb2:	ff 75 f0             	pushl  -0x10(%ebp)
  800bb5:	e8 ea 16 00 00       	call   8022a4 <VIDEO_SetPalette>
  800bba:	83 c4 10             	add    $0x10,%esp
  800bbd:	90                   	nop
  800bbe:	8b 5d fc             	mov    -0x4(%ebp),%ebx
  800bc1:	c9                   	leave  
  800bc2:	c3                   	ret    

00800bc3 <PAL_SceneFade>:
  800bc3:	55                   	push   %ebp
  800bc4:	89 e5                	mov    %esp,%ebp
  800bc6:	53                   	push   %ebx
  800bc7:	81 ec 14 04 00 00    	sub    $0x414,%esp
  800bcd:	e8 0e f6 ff ff       	call   8001e0 <__x86.get_pc_thunk.bx>
  800bd2:	81 c3 2e a4 04 00    	add    $0x4a42e,%ebx
  800bd8:	83 ec 08             	sub    $0x8,%esp
  800bdb:	ff 75 0c             	pushl  0xc(%ebp)
  800bde:	ff 75 08             	pushl  0x8(%ebp)
  800be1:	e8 af fb ff ff       	call   800795 <PAL_GetPalette>
  800be6:	83 c4 10             	add    $0x10,%esp
  800be9:	89 45 ec             	mov    %eax,-0x14(%ebp)
  800bec:	83 7d ec 00          	cmpl   $0x0,-0x14(%ebp)
  800bf0:	0f 84 be 02 00 00    	je     800eb4 <PAL_SceneFade+0x2f1>
  800bf6:	83 7d 10 00          	cmpl   $0x0,0x10(%ebp)
  800bfa:	75 07                	jne    800c03 <PAL_SceneFade+0x40>
  800bfc:	c7 45 10 01 00 00 00 	movl   $0x1,0x10(%ebp)
  800c03:	c7 c0 34 d1 85 00    	mov    $0x85d134,%eax
  800c09:	8b 00                	mov    (%eax),%eax
  800c0b:	c7 80 d4 2a 00 00 00 	movl   $0x0,0x2ad4(%eax)
  800c12:	00 00 00 
  800c15:	83 7d 10 00          	cmpl   $0x0,0x10(%ebp)
  800c19:	0f 8e 4c 01 00 00    	jle    800d6b <PAL_SceneFade+0x1a8>
  800c1f:	c7 45 f4 00 00 00 00 	movl   $0x0,-0xc(%ebp)
  800c26:	e9 31 01 00 00       	jmp    800d5c <PAL_SceneFade+0x199>
  800c2b:	e8 a6 05 02 00       	call   8211d6 <SDL_GetTicks>
  800c30:	83 c0 64             	add    $0x64,%eax
  800c33:	89 45 e8             	mov    %eax,-0x18(%ebp)
  800c36:	e8 ae 0f 00 00       	call   801be9 <PAL_ClearKeyState>
  800c3b:	c7 c0 a0 31 86 00    	mov    $0x8631a0,%eax
  800c41:	c7 00 04 00 00 00    	movl   $0x4,(%eax)
  800c47:	c7 c0 a0 31 86 00    	mov    $0x8631a0,%eax
  800c4d:	c7 40 04 04 00 00 00 	movl   $0x4,0x4(%eax)
  800c54:	83 ec 0c             	sub    $0xc,%esp
  800c57:	6a 00                	push   $0x0
  800c59:	e8 4d 59 02 00       	call   8265ab <PAL_GameUpdate>
  800c5e:	83 c4 10             	add    $0x10,%esp
  800c61:	e8 a0 e3 02 00       	call   82f006 <PAL_MakeScene>
  800c66:	83 ec 0c             	sub    $0xc,%esp
  800c69:	6a 00                	push   $0x0
  800c6b:	e8 b5 12 00 00       	call   801f25 <VIDEO_UpdateScreen>
  800c70:	83 c4 10             	add    $0x10,%esp
  800c73:	c7 45 f0 00 00 00 00 	movl   $0x0,-0x10(%ebp)
  800c7a:	eb 7e                	jmp    800cfa <PAL_SceneFade+0x137>
  800c7c:	8b 45 f0             	mov    -0x10(%ebp),%eax
  800c7f:	8d 14 85 00 00 00 00 	lea    0x0(,%eax,4),%edx
  800c86:	8b 45 ec             	mov    -0x14(%ebp),%eax
  800c89:	01 d0                	add    %edx,%eax
  800c8b:	0f b6 00             	movzbl (%eax),%eax
  800c8e:	0f b6 c0             	movzbl %al,%eax
  800c91:	0f af 45 f4          	imul   -0xc(%ebp),%eax
  800c95:	c1 f8 06             	sar    $0x6,%eax
  800c98:	89 c2                	mov    %eax,%edx
  800c9a:	8b 45 f0             	mov    -0x10(%ebp),%eax
  800c9d:	88 94 85 e8 fb ff ff 	mov    %dl,-0x418(%ebp,%eax,4)
  800ca4:	8b 45 f0             	mov    -0x10(%ebp),%eax
  800ca7:	8d 14 85 00 00 00 00 	lea    0x0(,%eax,4),%edx
  800cae:	8b 45 ec             	mov    -0x14(%ebp),%eax
  800cb1:	01 d0                	add    %edx,%eax
  800cb3:	0f b6 40 01          	movzbl 0x1(%eax),%eax
  800cb7:	0f b6 c0             	movzbl %al,%eax
  800cba:	0f af 45 f4          	imul   -0xc(%ebp),%eax
  800cbe:	c1 f8 06             	sar    $0x6,%eax
  800cc1:	89 c2                	mov    %eax,%edx
  800cc3:	8b 45 f0             	mov    -0x10(%ebp),%eax
  800cc6:	88 94 85 e9 fb ff ff 	mov    %dl,-0x417(%ebp,%eax,4)
  800ccd:	8b 45 f0             	mov    -0x10(%ebp),%eax
  800cd0:	8d 14 85 00 00 00 00 	lea    0x0(,%eax,4),%edx
  800cd7:	8b 45 ec             	mov    -0x14(%ebp),%eax
  800cda:	01 d0                	add    %edx,%eax
  800cdc:	0f b6 40 02          	movzbl 0x2(%eax),%eax
  800ce0:	0f b6 c0             	movzbl %al,%eax
  800ce3:	0f af 45 f4          	imul   -0xc(%ebp),%eax
  800ce7:	c1 f8 06             	sar    $0x6,%eax
  800cea:	89 c2                	mov    %eax,%edx
  800cec:	8b 45 f0             	mov    -0x10(%ebp),%eax
  800cef:	88 94 85 ea fb ff ff 	mov    %dl,-0x416(%ebp,%eax,4)
  800cf6:	83 45 f0 01          	addl   $0x1,-0x10(%ebp)
  800cfa:	81 7d f0 ff 00 00 00 	cmpl   $0xff,-0x10(%ebp)
  800d01:	0f 8e 75 ff ff ff    	jle    800c7c <PAL_SceneFade+0xb9>
  800d07:	83 ec 0c             	sub    $0xc,%esp
  800d0a:	8d 85 e8 fb ff ff    	lea    -0x418(%ebp),%eax
  800d10:	50                   	push   %eax
  800d11:	e8 8e 15 00 00       	call   8022a4 <VIDEO_SetPalette>
  800d16:	83 c4 10             	add    $0x10,%esp
  800d19:	90                   	nop
  800d1a:	83 ec 0c             	sub    $0xc,%esp
  800d1d:	6a 00                	push   $0x0
  800d1f:	e8 5e 0f 00 00       	call   801c82 <PAL_PollEvent>
  800d24:	83 c4 10             	add    $0x10,%esp
  800d27:	85 c0                	test   %eax,%eax
  800d29:	75 ef                	jne    800d1a <PAL_SceneFade+0x157>
  800d2b:	eb 1f                	jmp    800d4c <PAL_SceneFade+0x189>
  800d2d:	90                   	nop
  800d2e:	83 ec 0c             	sub    $0xc,%esp
  800d31:	6a 00                	push   $0x0
  800d33:	e8 4a 0f 00 00       	call   801c82 <PAL_PollEvent>
  800d38:	83 c4 10             	add    $0x10,%esp
  800d3b:	85 c0                	test   %eax,%eax
  800d3d:	75 ef                	jne    800d2e <PAL_SceneFade+0x16b>
  800d3f:	83 ec 0c             	sub    $0xc,%esp
  800d42:	6a 05                	push   $0x5
  800d44:	e8 ab 04 02 00       	call   8211f4 <SDL_Delay>
  800d49:	83 c4 10             	add    $0x10,%esp
  800d4c:	e8 85 04 02 00       	call   8211d6 <SDL_GetTicks>
  800d51:	3b 45 e8             	cmp    -0x18(%ebp),%eax
  800d54:	72 d7                	jb     800d2d <PAL_SceneFade+0x16a>
  800d56:	8b 45 10             	mov    0x10(%ebp),%eax
  800d59:	01 45 f4             	add    %eax,-0xc(%ebp)
  800d5c:	83 7d f4 3f          	cmpl   $0x3f,-0xc(%ebp)
  800d60:	0f 8e c5 fe ff ff    	jle    800c2b <PAL_SceneFade+0x68>
  800d66:	e9 4a 01 00 00       	jmp    800eb5 <PAL_SceneFade+0x2f2>
  800d6b:	c7 45 f4 3f 00 00 00 	movl   $0x3f,-0xc(%ebp)
  800d72:	e9 31 01 00 00       	jmp    800ea8 <PAL_SceneFade+0x2e5>
  800d77:	e8 5a 04 02 00       	call   8211d6 <SDL_GetTicks>
  800d7c:	83 c0 64             	add    $0x64,%eax
  800d7f:	89 45 e8             	mov    %eax,-0x18(%ebp)
  800d82:	e8 62 0e 00 00       	call   801be9 <PAL_ClearKeyState>
  800d87:	c7 c0 a0 31 86 00    	mov    $0x8631a0,%eax
  800d8d:	c7 00 04 00 00 00    	movl   $0x4,(%eax)
  800d93:	c7 c0 a0 31 86 00    	mov    $0x8631a0,%eax
  800d99:	c7 40 04 04 00 00 00 	movl   $0x4,0x4(%eax)
  800da0:	83 ec 0c             	sub    $0xc,%esp
  800da3:	6a 00                	push   $0x0
  800da5:	e8 01 58 02 00       	call   8265ab <PAL_GameUpdate>
  800daa:	83 c4 10             	add    $0x10,%esp
  800dad:	e8 54 e2 02 00       	call   82f006 <PAL_MakeScene>
  800db2:	83 ec 0c             	sub    $0xc,%esp
  800db5:	6a 00                	push   $0x0
  800db7:	e8 69 11 00 00       	call   801f25 <VIDEO_UpdateScreen>
  800dbc:	83 c4 10             	add    $0x10,%esp
  800dbf:	c7 45 f0 00 00 00 00 	movl   $0x0,-0x10(%ebp)
  800dc6:	eb 7e                	jmp    800e46 <PAL_SceneFade+0x283>
  800dc8:	8b 45 f0             	mov    -0x10(%ebp),%eax
  800dcb:	8d 14 85 00 00 00 00 	lea    0x0(,%eax,4),%edx
  800dd2:	8b 45 ec             	mov    -0x14(%ebp),%eax
  800dd5:	01 d0                	add    %edx,%eax
  800dd7:	0f b6 00             	movzbl (%eax),%eax
  800dda:	0f b6 c0             	movzbl %al,%eax
  800ddd:	0f af 45 f4          	imul   -0xc(%ebp),%eax
  800de1:	c1 f8 06             	sar    $0x6,%eax
  800de4:	89 c2                	mov    %eax,%edx
  800de6:	8b 45 f0             	mov    -0x10(%ebp),%eax
  800de9:	88 94 85 e8 fb ff ff 	mov    %dl,-0x418(%ebp,%eax,4)
  800df0:	8b 45 f0             	mov    -0x10(%ebp),%eax
  800df3:	8d 14 85 00 00 00 00 	lea    0x0(,%eax,4),%edx
  800dfa:	8b 45 ec             	mov    -0x14(%ebp),%eax
  800dfd:	01 d0                	add    %edx,%eax
  800dff:	0f b6 40 01          	movzbl 0x1(%eax),%eax
  800e03:	0f b6 c0             	movzbl %al,%eax
  800e06:	0f af 45 f4          	imul   -0xc(%ebp),%eax
  800e0a:	c1 f8 06             	sar    $0x6,%eax
  800e0d:	89 c2                	mov    %eax,%edx
  800e0f:	8b 45 f0             	mov    -0x10(%ebp),%eax
  800e12:	88 94 85 e9 fb ff ff 	mov    %dl,-0x417(%ebp,%eax,4)
  800e19:	8b 45 f0             	mov    -0x10(%ebp),%eax
  800e1c:	8d 14 85 00 00 00 00 	lea    0x0(,%eax,4),%edx
  800e23:	8b 45 ec             	mov    -0x14(%ebp),%eax
  800e26:	01 d0                	add    %edx,%eax
  800e28:	0f b6 40 02          	movzbl 0x2(%eax),%eax
  800e2c:	0f b6 c0             	movzbl %al,%eax
  800e2f:	0f af 45 f4          	imul   -0xc(%ebp),%eax
  800e33:	c1 f8 06             	sar    $0x6,%eax
  800e36:	89 c2                	mov    %eax,%edx
  800e38:	8b 45 f0             	mov    -0x10(%ebp),%eax
  800e3b:	88 94 85 ea fb ff ff 	mov    %dl,-0x416(%ebp,%eax,4)
  800e42:	83 45 f0 01          	addl   $0x1,-0x10(%ebp)
  800e46:	81 7d f0 ff 00 00 00 	cmpl   $0xff,-0x10(%ebp)
  800e4d:	0f 8e 75 ff ff ff    	jle    800dc8 <PAL_SceneFade+0x205>
  800e53:	83 ec 0c             	sub    $0xc,%esp
  800e56:	8d 85 e8 fb ff ff    	lea    -0x418(%ebp),%eax
  800e5c:	50                   	push   %eax
  800e5d:	e8 42 14 00 00       	call   8022a4 <VIDEO_SetPalette>
  800e62:	83 c4 10             	add    $0x10,%esp
  800e65:	90                   	nop
  800e66:	83 ec 0c             	sub    $0xc,%esp
  800e69:	6a 00                	push   $0x0
  800e6b:	e8 12 0e 00 00       	call   801c82 <PAL_PollEvent>
  800e70:	83 c4 10             	add    $0x10,%esp
  800e73:	85 c0                	test   %eax,%eax
  800e75:	75 ef                	jne    800e66 <PAL_SceneFade+0x2a3>
  800e77:	eb 1f                	jmp    800e98 <PAL_SceneFade+0x2d5>
  800e79:	90                   	nop
  800e7a:	83 ec 0c             	sub    $0xc,%esp
  800e7d:	6a 00                	push   $0x0
  800e7f:	e8 fe 0d 00 00       	call   801c82 <PAL_PollEvent>
  800e84:	83 c4 10             	add    $0x10,%esp
  800e87:	85 c0                	test   %eax,%eax
  800e89:	75 ef                	jne    800e7a <PAL_SceneFade+0x2b7>
  800e8b:	83 ec 0c             	sub    $0xc,%esp
  800e8e:	6a 05                	push   $0x5
  800e90:	e8 5f 03 02 00       	call   8211f4 <SDL_Delay>
  800e95:	83 c4 10             	add    $0x10,%esp
  800e98:	e8 39 03 02 00       	call   8211d6 <SDL_GetTicks>
  800e9d:	3b 45 e8             	cmp    -0x18(%ebp),%eax
  800ea0:	72 d7                	jb     800e79 <PAL_SceneFade+0x2b6>
  800ea2:	8b 45 10             	mov    0x10(%ebp),%eax
  800ea5:	01 45 f4             	add    %eax,-0xc(%ebp)
  800ea8:	83 7d f4 00          	cmpl   $0x0,-0xc(%ebp)
  800eac:	0f 89 c5 fe ff ff    	jns    800d77 <PAL_SceneFade+0x1b4>
  800eb2:	eb 01                	jmp    800eb5 <PAL_SceneFade+0x2f2>
  800eb4:	90                   	nop
  800eb5:	8b 5d fc             	mov    -0x4(%ebp),%ebx
  800eb8:	c9                   	leave  
  800eb9:	c3                   	ret    

00800eba <PAL_PaletteFade>:
  800eba:	55                   	push   %ebp
  800ebb:	89 e5                	mov    %esp,%ebp
  800ebd:	53                   	push   %ebx
  800ebe:	81 ec 14 08 00 00    	sub    $0x814,%esp
  800ec4:	e8 17 f3 ff ff       	call   8001e0 <__x86.get_pc_thunk.bx>
  800ec9:	81 c3 37 a1 04 00    	add    $0x4a137,%ebx
  800ecf:	83 ec 08             	sub    $0x8,%esp
  800ed2:	ff 75 0c             	pushl  0xc(%ebp)
  800ed5:	ff 75 08             	pushl  0x8(%ebp)
  800ed8:	e8 b8 f8 ff ff       	call   800795 <PAL_GetPalette>
  800edd:	83 c4 10             	add    $0x10,%esp
  800ee0:	89 45 ec             	mov    %eax,-0x14(%ebp)
  800ee3:	83 7d ec 00          	cmpl   $0x0,-0x14(%ebp)
  800ee7:	0f 84 2d 02 00 00    	je     80111a <PAL_PaletteFade+0x260>
  800eed:	c7 45 f4 00 00 00 00 	movl   $0x0,-0xc(%ebp)
  800ef4:	eb 1f                	jmp    800f15 <PAL_PaletteFade+0x5b>
  800ef6:	e8 00 15 00 00       	call   8023fb <VIDEO_GetPalette>
  800efb:	89 c2                	mov    %eax,%edx
  800efd:	8b 45 f4             	mov    -0xc(%ebp),%eax
  800f00:	c1 e0 02             	shl    $0x2,%eax
  800f03:	01 c2                	add    %eax,%edx
  800f05:	8b 45 f4             	mov    -0xc(%ebp),%eax
  800f08:	8b 12                	mov    (%edx),%edx
  800f0a:	89 94 85 e8 fb ff ff 	mov    %edx,-0x418(%ebp,%eax,4)
  800f11:	83 45 f4 01          	addl   $0x1,-0xc(%ebp)
  800f15:	81 7d f4 ff 00 00 00 	cmpl   $0xff,-0xc(%ebp)
  800f1c:	7e d8                	jle    800ef6 <PAL_PaletteFade+0x3c>
  800f1e:	c7 45 f4 00 00 00 00 	movl   $0x0,-0xc(%ebp)
  800f25:	e9 e4 01 00 00       	jmp    80110e <PAL_PaletteFade+0x254>
  800f2a:	e8 a7 02 02 00       	call   8211d6 <SDL_GetTicks>
  800f2f:	89 c2                	mov    %eax,%edx
  800f31:	83 7d 10 00          	cmpl   $0x0,0x10(%ebp)
  800f35:	74 07                	je     800f3e <PAL_PaletteFade+0x84>
  800f37:	b8 64 00 00 00       	mov    $0x64,%eax
  800f3c:	eb 05                	jmp    800f43 <PAL_PaletteFade+0x89>
  800f3e:	b8 19 00 00 00       	mov    $0x19,%eax
  800f43:	01 d0                	add    %edx,%eax
  800f45:	89 45 e8             	mov    %eax,-0x18(%ebp)
  800f48:	c7 45 f0 00 00 00 00 	movl   $0x0,-0x10(%ebp)
  800f4f:	e9 17 01 00 00       	jmp    80106b <PAL_PaletteFade+0x1b1>
  800f54:	8b 45 f0             	mov    -0x10(%ebp),%eax
  800f57:	0f b6 84 85 e8 fb ff 	movzbl -0x418(%ebp,%eax,4),%eax
  800f5e:	ff 
  800f5f:	0f b6 d0             	movzbl %al,%edx
  800f62:	b8 1f 00 00 00       	mov    $0x1f,%eax
  800f67:	2b 45 f4             	sub    -0xc(%ebp),%eax
  800f6a:	0f af d0             	imul   %eax,%edx
  800f6d:	8b 45 f0             	mov    -0x10(%ebp),%eax
  800f70:	8d 0c 85 00 00 00 00 	lea    0x0(,%eax,4),%ecx
  800f77:	8b 45 ec             	mov    -0x14(%ebp),%eax
  800f7a:	01 c8                	add    %ecx,%eax
  800f7c:	0f b6 00             	movzbl (%eax),%eax
  800f7f:	0f b6 c0             	movzbl %al,%eax
  800f82:	0f af 45 f4          	imul   -0xc(%ebp),%eax
  800f86:	8d 0c 02             	lea    (%edx,%eax,1),%ecx
  800f89:	ba 43 08 21 84       	mov    $0x84210843,%edx
  800f8e:	89 c8                	mov    %ecx,%eax
  800f90:	f7 ea                	imul   %edx
  800f92:	8d 04 0a             	lea    (%edx,%ecx,1),%eax
  800f95:	c1 f8 04             	sar    $0x4,%eax
  800f98:	89 c2                	mov    %eax,%edx
  800f9a:	89 c8                	mov    %ecx,%eax
  800f9c:	c1 f8 1f             	sar    $0x1f,%eax
  800f9f:	29 c2                	sub    %eax,%edx
  800fa1:	89 d0                	mov    %edx,%eax
  800fa3:	89 c2                	mov    %eax,%edx
  800fa5:	8b 45 f0             	mov    -0x10(%ebp),%eax
  800fa8:	88 94 85 e8 f7 ff ff 	mov    %dl,-0x818(%ebp,%eax,4)
  800faf:	8b 45 f0             	mov    -0x10(%ebp),%eax
  800fb2:	0f b6 84 85 e9 fb ff 	movzbl -0x417(%ebp,%eax,4),%eax
  800fb9:	ff 
  800fba:	0f b6 d0             	movzbl %al,%edx
  800fbd:	b8 1f 00 00 00       	mov    $0x1f,%eax
  800fc2:	2b 45 f4             	sub    -0xc(%ebp),%eax
  800fc5:	0f af d0             	imul   %eax,%edx
  800fc8:	8b 45 f0             	mov    -0x10(%ebp),%eax
  800fcb:	8d 0c 85 00 00 00 00 	lea    0x0(,%eax,4),%ecx
  800fd2:	8b 45 ec             	mov    -0x14(%ebp),%eax
  800fd5:	01 c8                	add    %ecx,%eax
  800fd7:	0f b6 40 01          	movzbl 0x1(%eax),%eax
  800fdb:	0f b6 c0             	movzbl %al,%eax
  800fde:	0f af 45 f4          	imul   -0xc(%ebp),%eax
  800fe2:	8d 0c 02             	lea    (%edx,%eax,1),%ecx
  800fe5:	ba 43 08 21 84       	mov    $0x84210843,%edx
  800fea:	89 c8                	mov    %ecx,%eax
  800fec:	f7 ea                	imul   %edx
  800fee:	8d 04 0a             	lea    (%edx,%ecx,1),%eax
  800ff1:	c1 f8 04             	sar    $0x4,%eax
  800ff4:	89 c2                	mov    %eax,%edx
  800ff6:	89 c8                	mov    %ecx,%eax
  800ff8:	c1 f8 1f             	sar    $0x1f,%eax
  800ffb:	29 c2                	sub    %eax,%edx
  800ffd:	89 d0                	mov    %edx,%eax
  800fff:	89 c2                	mov    %eax,%edx
  801001:	8b 45 f0             	mov    -0x10(%ebp),%eax
  801004:	88 94 85 e9 f7 ff ff 	mov    %dl,-0x817(%ebp,%eax,4)
  80100b:	8b 45 f0             	mov    -0x10(%ebp),%eax
  80100e:	0f b6 84 85 ea fb ff 	movzbl -0x416(%ebp,%eax,4),%eax
  801015:	ff 
  801016:	0f b6 d0             	movzbl %al,%edx
  801019:	b8 1f 00 00 00       	mov    $0x1f,%eax
  80101e:	2b 45 f4             	sub    -0xc(%ebp),%eax
  801021:	0f af d0             	imul   %eax,%edx
  801024:	8b 45 f0             	mov    -0x10(%ebp),%eax
  801027:	8d 0c 85 00 00 00 00 	lea    0x0(,%eax,4),%ecx
  80102e:	8b 45 ec             	mov    -0x14(%ebp),%eax
  801031:	01 c8                	add    %ecx,%eax
  801033:	0f b6 40 02          	movzbl 0x2(%eax),%eax
  801037:	0f b6 c0             	movzbl %al,%eax
  80103a:	0f af 45 f4          	imul   -0xc(%ebp),%eax
  80103e:	8d 0c 02             	lea    (%edx,%eax,1),%ecx
  801041:	ba 43 08 21 84       	mov    $0x84210843,%edx
  801046:	89 c8                	mov    %ecx,%eax
  801048:	f7 ea                	imul   %edx
  80104a:	8d 04 0a             	lea    (%edx,%ecx,1),%eax
  80104d:	c1 f8 04             	sar    $0x4,%eax
  801050:	89 c2                	mov    %eax,%edx
  801052:	89 c8                	mov    %ecx,%eax
  801054:	c1 f8 1f             	sar    $0x1f,%eax
  801057:	29 c2                	sub    %eax,%edx
  801059:	89 d0                	mov    %edx,%eax
  80105b:	89 c2                	mov    %eax,%edx
  80105d:	8b 45 f0             	mov    -0x10(%ebp),%eax
  801060:	88 94 85 ea f7 ff ff 	mov    %dl,-0x816(%ebp,%eax,4)
  801067:	83 45 f0 01          	addl   $0x1,-0x10(%ebp)
  80106b:	81 7d f0 ff 00 00 00 	cmpl   $0xff,-0x10(%ebp)
  801072:	0f 8e dc fe ff ff    	jle    800f54 <PAL_PaletteFade+0x9a>
  801078:	83 ec 0c             	sub    $0xc,%esp
  80107b:	8d 85 e8 f7 ff ff    	lea    -0x818(%ebp),%eax
  801081:	50                   	push   %eax
  801082:	e8 1d 12 00 00       	call   8022a4 <VIDEO_SetPalette>
  801087:	83 c4 10             	add    $0x10,%esp
  80108a:	83 7d 10 00          	cmpl   $0x0,0x10(%ebp)
  80108e:	74 3d                	je     8010cd <PAL_PaletteFade+0x213>
  801090:	e8 54 0b 00 00       	call   801be9 <PAL_ClearKeyState>
  801095:	c7 c0 a0 31 86 00    	mov    $0x8631a0,%eax
  80109b:	c7 00 04 00 00 00    	movl   $0x4,(%eax)
  8010a1:	c7 c0 a0 31 86 00    	mov    $0x8631a0,%eax
  8010a7:	c7 40 04 04 00 00 00 	movl   $0x4,0x4(%eax)
  8010ae:	83 ec 0c             	sub    $0xc,%esp
  8010b1:	6a 00                	push   $0x0
  8010b3:	e8 f3 54 02 00       	call   8265ab <PAL_GameUpdate>
  8010b8:	83 c4 10             	add    $0x10,%esp
  8010bb:	e8 46 df 02 00       	call   82f006 <PAL_MakeScene>
  8010c0:	83 ec 0c             	sub    $0xc,%esp
  8010c3:	6a 00                	push   $0x0
  8010c5:	e8 5b 0e 00 00       	call   801f25 <VIDEO_UpdateScreen>
  8010ca:	83 c4 10             	add    $0x10,%esp
  8010cd:	90                   	nop
  8010ce:	83 ec 0c             	sub    $0xc,%esp
  8010d1:	6a 00                	push   $0x0
  8010d3:	e8 aa 0b 00 00       	call   801c82 <PAL_PollEvent>
  8010d8:	83 c4 10             	add    $0x10,%esp
  8010db:	85 c0                	test   %eax,%eax
  8010dd:	75 ef                	jne    8010ce <PAL_PaletteFade+0x214>
  8010df:	eb 1f                	jmp    801100 <PAL_PaletteFade+0x246>
  8010e1:	90                   	nop
  8010e2:	83 ec 0c             	sub    $0xc,%esp
  8010e5:	6a 00                	push   $0x0
  8010e7:	e8 96 0b 00 00       	call   801c82 <PAL_PollEvent>
  8010ec:	83 c4 10             	add    $0x10,%esp
  8010ef:	85 c0                	test   %eax,%eax
  8010f1:	75 ef                	jne    8010e2 <PAL_PaletteFade+0x228>
  8010f3:	83 ec 0c             	sub    $0xc,%esp
  8010f6:	6a 05                	push   $0x5
  8010f8:	e8 f7 00 02 00       	call   8211f4 <SDL_Delay>
  8010fd:	83 c4 10             	add    $0x10,%esp
  801100:	e8 d1 00 02 00       	call   8211d6 <SDL_GetTicks>
  801105:	3b 45 e8             	cmp    -0x18(%ebp),%eax
  801108:	72 d7                	jb     8010e1 <PAL_PaletteFade+0x227>
  80110a:	83 45 f4 01          	addl   $0x1,-0xc(%ebp)
  80110e:	83 7d f4 1f          	cmpl   $0x1f,-0xc(%ebp)
  801112:	0f 8e 12 fe ff ff    	jle    800f2a <PAL_PaletteFade+0x70>
  801118:	eb 01                	jmp    80111b <PAL_PaletteFade+0x261>
  80111a:	90                   	nop
  80111b:	8b 5d fc             	mov    -0x4(%ebp),%ebx
  80111e:	c9                   	leave  
  80111f:	c3                   	ret    

00801120 <PAL_ColorFade>:
  801120:	55                   	push   %ebp
  801121:	89 e5                	mov    %esp,%ebp
  801123:	53                   	push   %ebx
  801124:	81 ec 24 04 00 00    	sub    $0x424,%esp
  80112a:	e8 b1 f0 ff ff       	call   8001e0 <__x86.get_pc_thunk.bx>
  80112f:	81 c3 d1 9e 04 00    	add    $0x49ed1,%ebx
  801135:	8b 45 0c             	mov    0xc(%ebp),%eax
  801138:	88 85 e4 fb ff ff    	mov    %al,-0x41c(%ebp)
  80113e:	c7 c0 34 d1 85 00    	mov    $0x85d134,%eax
  801144:	8b 00                	mov    (%eax),%eax
  801146:	8b 90 50 44 00 00    	mov    0x4450(%eax),%edx
  80114c:	c7 c0 34 d1 85 00    	mov    $0x85d134,%eax
  801152:	8b 00                	mov    (%eax),%eax
  801154:	0f b7 80 4c 44 00 00 	movzwl 0x444c(%eax),%eax
  80115b:	0f b7 c0             	movzwl %ax,%eax
  80115e:	83 ec 08             	sub    $0x8,%esp
  801161:	52                   	push   %edx
  801162:	50                   	push   %eax
  801163:	e8 2d f6 ff ff       	call   800795 <PAL_GetPalette>
  801168:	83 c4 10             	add    $0x10,%esp
  80116b:	89 45 ec             	mov    %eax,-0x14(%ebp)
  80116e:	8b 55 08             	mov    0x8(%ebp),%edx
  801171:	89 d0                	mov    %edx,%eax
  801173:	c1 e0 02             	shl    $0x2,%eax
  801176:	01 d0                	add    %edx,%eax
  801178:	01 c0                	add    %eax,%eax
  80117a:	89 45 08             	mov    %eax,0x8(%ebp)
  80117d:	83 7d 08 00          	cmpl   $0x0,0x8(%ebp)
  801181:	75 07                	jne    80118a <PAL_ColorFade+0x6a>
  801183:	c7 45 08 0a 00 00 00 	movl   $0xa,0x8(%ebp)
  80118a:	83 7d 10 00          	cmpl   $0x0,0x10(%ebp)
  80118e:	0f 84 00 02 00 00    	je     801394 <PAL_ColorFade+0x274>
  801194:	c7 45 f4 00 00 00 00 	movl   $0x0,-0xc(%ebp)
  80119b:	eb 23                	jmp    8011c0 <PAL_ColorFade+0xa0>
  80119d:	0f b6 85 e4 fb ff ff 	movzbl -0x41c(%ebp),%eax
  8011a4:	8d 14 85 00 00 00 00 	lea    0x0(,%eax,4),%edx
  8011ab:	8b 45 ec             	mov    -0x14(%ebp),%eax
  8011ae:	01 c2                	add    %eax,%edx
  8011b0:	8b 45 f4             	mov    -0xc(%ebp),%eax
  8011b3:	8b 12                	mov    (%edx),%edx
  8011b5:	89 94 85 ec fb ff ff 	mov    %edx,-0x414(%ebp,%eax,4)
  8011bc:	83 45 f4 01          	addl   $0x1,-0xc(%ebp)
  8011c0:	81 7d f4 ff 00 00 00 	cmpl   $0xff,-0xc(%ebp)
  8011c7:	7e d4                	jle    80119d <PAL_ColorFade+0x7d>
  8011c9:	c7 45 f4 00 00 00 00 	movl   $0x0,-0xc(%ebp)
  8011d0:	e9 a2 01 00 00       	jmp    801377 <PAL_ColorFade+0x257>
  8011d5:	c7 45 f0 00 00 00 00 	movl   $0x0,-0x10(%ebp)
  8011dc:	e9 64 01 00 00       	jmp    801345 <PAL_ColorFade+0x225>
  8011e1:	8b 45 f0             	mov    -0x10(%ebp),%eax
  8011e4:	0f b6 94 85 ec fb ff 	movzbl -0x414(%ebp,%eax,4),%edx
  8011eb:	ff 
  8011ec:	8b 45 f0             	mov    -0x10(%ebp),%eax
  8011ef:	8d 0c 85 00 00 00 00 	lea    0x0(,%eax,4),%ecx
  8011f6:	8b 45 ec             	mov    -0x14(%ebp),%eax
  8011f9:	01 c8                	add    %ecx,%eax
  8011fb:	0f b6 00             	movzbl (%eax),%eax
  8011fe:	38 c2                	cmp    %al,%dl
  801200:	76 1a                	jbe    80121c <PAL_ColorFade+0xfc>
  801202:	8b 45 f0             	mov    -0x10(%ebp),%eax
  801205:	0f b6 84 85 ec fb ff 	movzbl -0x414(%ebp,%eax,4),%eax
  80120c:	ff 
  80120d:	8d 50 fc             	lea    -0x4(%eax),%edx
  801210:	8b 45 f0             	mov    -0x10(%ebp),%eax
  801213:	88 94 85 ec fb ff ff 	mov    %dl,-0x414(%ebp,%eax,4)
  80121a:	eb 39                	jmp    801255 <PAL_ColorFade+0x135>
  80121c:	8b 45 f0             	mov    -0x10(%ebp),%eax
  80121f:	0f b6 94 85 ec fb ff 	movzbl -0x414(%ebp,%eax,4),%edx
  801226:	ff 
  801227:	8b 45 f0             	mov    -0x10(%ebp),%eax
  80122a:	8d 0c 85 00 00 00 00 	lea    0x0(,%eax,4),%ecx
  801231:	8b 45 ec             	mov    -0x14(%ebp),%eax
  801234:	01 c8                	add    %ecx,%eax
  801236:	0f b6 00             	movzbl (%eax),%eax
  801239:	38 c2                	cmp    %al,%dl
  80123b:	73 18                	jae    801255 <PAL_ColorFade+0x135>
  80123d:	8b 45 f0             	mov    -0x10(%ebp),%eax
  801240:	0f b6 84 85 ec fb ff 	movzbl -0x414(%ebp,%eax,4),%eax
  801247:	ff 
  801248:	8d 50 04             	lea    0x4(%eax),%edx
  80124b:	8b 45 f0             	mov    -0x10(%ebp),%eax
  80124e:	88 94 85 ec fb ff ff 	mov    %dl,-0x414(%ebp,%eax,4)
  801255:	8b 45 f0             	mov    -0x10(%ebp),%eax
  801258:	0f b6 94 85 ed fb ff 	movzbl -0x413(%ebp,%eax,4),%edx
  80125f:	ff 
  801260:	8b 45 f0             	mov    -0x10(%ebp),%eax
  801263:	8d 0c 85 00 00 00 00 	lea    0x0(,%eax,4),%ecx
  80126a:	8b 45 ec             	mov    -0x14(%ebp),%eax
  80126d:	01 c8                	add    %ecx,%eax
  80126f:	0f b6 40 01          	movzbl 0x1(%eax),%eax
  801273:	38 c2                	cmp    %al,%dl
  801275:	76 1a                	jbe    801291 <PAL_ColorFade+0x171>
  801277:	8b 45 f0             	mov    -0x10(%ebp),%eax
  80127a:	0f b6 84 85 ed fb ff 	movzbl -0x413(%ebp,%eax,4),%eax
  801281:	ff 
  801282:	8d 50 fc             	lea    -0x4(%eax),%edx
  801285:	8b 45 f0             	mov    -0x10(%ebp),%eax
  801288:	88 94 85 ed fb ff ff 	mov    %dl,-0x413(%ebp,%eax,4)
  80128f:	eb 3a                	jmp    8012cb <PAL_ColorFade+0x1ab>
  801291:	8b 45 f0             	mov    -0x10(%ebp),%eax
  801294:	0f b6 94 85 ed fb ff 	movzbl -0x413(%ebp,%eax,4),%edx
  80129b:	ff 
  80129c:	8b 45 f0             	mov    -0x10(%ebp),%eax
  80129f:	8d 0c 85 00 00 00 00 	lea    0x0(,%eax,4),%ecx
  8012a6:	8b 45 ec             	mov    -0x14(%ebp),%eax
  8012a9:	01 c8                	add    %ecx,%eax
  8012ab:	0f b6 40 01          	movzbl 0x1(%eax),%eax
  8012af:	38 c2                	cmp    %al,%dl
  8012b1:	73 18                	jae    8012cb <PAL_ColorFade+0x1ab>
  8012b3:	8b 45 f0             	mov    -0x10(%ebp),%eax
  8012b6:	0f b6 84 85 ed fb ff 	movzbl -0x413(%ebp,%eax,4),%eax
  8012bd:	ff 
  8012be:	8d 50 04             	lea    0x4(%eax),%edx
  8012c1:	8b 45 f0             	mov    -0x10(%ebp),%eax
  8012c4:	88 94 85 ed fb ff ff 	mov    %dl,-0x413(%ebp,%eax,4)
  8012cb:	8b 45 f0             	mov    -0x10(%ebp),%eax
  8012ce:	0f b6 94 85 ee fb ff 	movzbl -0x412(%ebp,%eax,4),%edx
  8012d5:	ff 
  8012d6:	8b 45 f0             	mov    -0x10(%ebp),%eax
  8012d9:	8d 0c 85 00 00 00 00 	lea    0x0(,%eax,4),%ecx
  8012e0:	8b 45 ec             	mov    -0x14(%ebp),%eax
  8012e3:	01 c8                	add    %ecx,%eax
  8012e5:	0f b6 40 02          	movzbl 0x2(%eax),%eax
  8012e9:	38 c2                	cmp    %al,%dl
  8012eb:	76 1a                	jbe    801307 <PAL_ColorFade+0x1e7>
  8012ed:	8b 45 f0             	mov    -0x10(%ebp),%eax
  8012f0:	0f b6 84 85 ee fb ff 	movzbl -0x412(%ebp,%eax,4),%eax
  8012f7:	ff 
  8012f8:	8d 50 fc             	lea    -0x4(%eax),%edx
  8012fb:	8b 45 f0             	mov    -0x10(%ebp),%eax
  8012fe:	88 94 85 ee fb ff ff 	mov    %dl,-0x412(%ebp,%eax,4)
  801305:	eb 3a                	jmp    801341 <PAL_ColorFade+0x221>
  801307:	8b 45 f0             	mov    -0x10(%ebp),%eax
  80130a:	0f b6 94 85 ee fb ff 	movzbl -0x412(%ebp,%eax,4),%edx
  801311:	ff 
  801312:	8b 45 f0             	mov    -0x10(%ebp),%eax
  801315:	8d 0c 85 00 00 00 00 	lea    0x0(,%eax,4),%ecx
  80131c:	8b 45 ec             	mov    -0x14(%ebp),%eax
  80131f:	01 c8                	add    %ecx,%eax
  801321:	0f b6 40 02          	movzbl 0x2(%eax),%eax
  801325:	38 c2                	cmp    %al,%dl
  801327:	73 18                	jae    801341 <PAL_ColorFade+0x221>
  801329:	8b 45 f0             	mov    -0x10(%ebp),%eax
  80132c:	0f b6 84 85 ee fb ff 	movzbl -0x412(%ebp,%eax,4),%eax
  801333:	ff 
  801334:	8d 50 04             	lea    0x4(%eax),%edx
  801337:	8b 45 f0             	mov    -0x10(%ebp),%eax
  80133a:	88 94 85 ee fb ff ff 	mov    %dl,-0x412(%ebp,%eax,4)
  801341:	83 45 f0 01          	addl   $0x1,-0x10(%ebp)
  801345:	81 7d f0 ff 00 00 00 	cmpl   $0xff,-0x10(%ebp)
  80134c:	0f 8e 8f fe ff ff    	jle    8011e1 <PAL_ColorFade+0xc1>
  801352:	83 ec 0c             	sub    $0xc,%esp
  801355:	8d 85 ec fb ff ff    	lea    -0x414(%ebp),%eax
  80135b:	50                   	push   %eax
  80135c:	e8 43 0f 00 00       	call   8022a4 <VIDEO_SetPalette>
  801361:	83 c4 10             	add    $0x10,%esp
  801364:	8b 45 08             	mov    0x8(%ebp),%eax
  801367:	83 ec 0c             	sub    $0xc,%esp
  80136a:	50                   	push   %eax
  80136b:	e8 49 28 00 00       	call   803bb9 <UTIL_Delay>
  801370:	83 c4 10             	add    $0x10,%esp
  801373:	83 45 f4 01          	addl   $0x1,-0xc(%ebp)
  801377:	83 7d f4 3f          	cmpl   $0x3f,-0xc(%ebp)
  80137b:	0f 8e 54 fe ff ff    	jle    8011d5 <PAL_ColorFade+0xb5>
  801381:	83 ec 0c             	sub    $0xc,%esp
  801384:	ff 75 ec             	pushl  -0x14(%ebp)
  801387:	e8 18 0f 00 00       	call   8022a4 <VIDEO_SetPalette>
  80138c:	83 c4 10             	add    $0x10,%esp
  80138f:	e9 31 02 00 00       	jmp    8015c5 <PAL_ColorFade+0x4a5>
  801394:	83 ec 04             	sub    $0x4,%esp
  801397:	68 00 04 00 00       	push   $0x400
  80139c:	ff 75 ec             	pushl  -0x14(%ebp)
  80139f:	8d 85 ec fb ff ff    	lea    -0x414(%ebp),%eax
  8013a5:	50                   	push   %eax
  8013a6:	e8 5d 0e 03 00       	call   832208 <memcpy>
  8013ab:	83 c4 10             	add    $0x10,%esp
  8013ae:	c7 45 f4 00 00 00 00 	movl   $0x0,-0xc(%ebp)
  8013b5:	e9 ba 01 00 00       	jmp    801574 <PAL_ColorFade+0x454>
  8013ba:	c7 45 f0 00 00 00 00 	movl   $0x0,-0x10(%ebp)
  8013c1:	e9 7c 01 00 00       	jmp    801542 <PAL_ColorFade+0x422>
  8013c6:	8b 45 f0             	mov    -0x10(%ebp),%eax
  8013c9:	0f b6 94 85 ec fb ff 	movzbl -0x414(%ebp,%eax,4),%edx
  8013d0:	ff 
  8013d1:	0f b6 85 e4 fb ff ff 	movzbl -0x41c(%ebp),%eax
  8013d8:	8d 0c 85 00 00 00 00 	lea    0x0(,%eax,4),%ecx
  8013df:	8b 45 ec             	mov    -0x14(%ebp),%eax
  8013e2:	01 c8                	add    %ecx,%eax
  8013e4:	0f b6 00             	movzbl (%eax),%eax
  8013e7:	38 c2                	cmp    %al,%dl
  8013e9:	76 1a                	jbe    801405 <PAL_ColorFade+0x2e5>
  8013eb:	8b 45 f0             	mov    -0x10(%ebp),%eax
  8013ee:	0f b6 84 85 ec fb ff 	movzbl -0x414(%ebp,%eax,4),%eax
  8013f5:	ff 
  8013f6:	8d 50 fc             	lea    -0x4(%eax),%edx
  8013f9:	8b 45 f0             	mov    -0x10(%ebp),%eax
  8013fc:	88 94 85 ec fb ff ff 	mov    %dl,-0x414(%ebp,%eax,4)
  801403:	eb 3d                	jmp    801442 <PAL_ColorFade+0x322>
  801405:	8b 45 f0             	mov    -0x10(%ebp),%eax
  801408:	0f b6 94 85 ec fb ff 	movzbl -0x414(%ebp,%eax,4),%edx
  80140f:	ff 
  801410:	0f b6 85 e4 fb ff ff 	movzbl -0x41c(%ebp),%eax
  801417:	8d 0c 85 00 00 00 00 	lea    0x0(,%eax,4),%ecx
  80141e:	8b 45 ec             	mov    -0x14(%ebp),%eax
  801421:	01 c8                	add    %ecx,%eax
  801423:	0f b6 00             	movzbl (%eax),%eax
  801426:	38 c2                	cmp    %al,%dl
  801428:	73 18                	jae    801442 <PAL_ColorFade+0x322>
  80142a:	8b 45 f0             	mov    -0x10(%ebp),%eax
  80142d:	0f b6 84 85 ec fb ff 	movzbl -0x414(%ebp,%eax,4),%eax
  801434:	ff 
  801435:	8d 50 04             	lea    0x4(%eax),%edx
  801438:	8b 45 f0             	mov    -0x10(%ebp),%eax
  80143b:	88 94 85 ec fb ff ff 	mov    %dl,-0x414(%ebp,%eax,4)
  801442:	8b 45 f0             	mov    -0x10(%ebp),%eax
  801445:	0f b6 94 85 ed fb ff 	movzbl -0x413(%ebp,%eax,4),%edx
  80144c:	ff 
  80144d:	0f b6 85 e4 fb ff ff 	movzbl -0x41c(%ebp),%eax
  801454:	8d 0c 85 00 00 00 00 	lea    0x0(,%eax,4),%ecx
  80145b:	8b 45 ec             	mov    -0x14(%ebp),%eax
  80145e:	01 c8                	add    %ecx,%eax
  801460:	0f b6 40 01          	movzbl 0x1(%eax),%eax
  801464:	38 c2                	cmp    %al,%dl
  801466:	76 1a                	jbe    801482 <PAL_ColorFade+0x362>
  801468:	8b 45 f0             	mov    -0x10(%ebp),%eax
  80146b:	0f b6 84 85 ed fb ff 	movzbl -0x413(%ebp,%eax,4),%eax
  801472:	ff 
  801473:	8d 50 fc             	lea    -0x4(%eax),%edx
  801476:	8b 45 f0             	mov    -0x10(%ebp),%eax
  801479:	88 94 85 ed fb ff ff 	mov    %dl,-0x413(%ebp,%eax,4)
  801480:	eb 3e                	jmp    8014c0 <PAL_ColorFade+0x3a0>
  801482:	8b 45 f0             	mov    -0x10(%ebp),%eax
  801485:	0f b6 94 85 ed fb ff 	movzbl -0x413(%ebp,%eax,4),%edx
  80148c:	ff 
  80148d:	0f b6 85 e4 fb ff ff 	movzbl -0x41c(%ebp),%eax
  801494:	8d 0c 85 00 00 00 00 	lea    0x0(,%eax,4),%ecx
  80149b:	8b 45 ec             	mov    -0x14(%ebp),%eax
  80149e:	01 c8                	add    %ecx,%eax
  8014a0:	0f b6 40 01          	movzbl 0x1(%eax),%eax
  8014a4:	38 c2                	cmp    %al,%dl
  8014a6:	73 18                	jae    8014c0 <PAL_ColorFade+0x3a0>
  8014a8:	8b 45 f0             	mov    -0x10(%ebp),%eax
  8014ab:	0f b6 84 85 ed fb ff 	movzbl -0x413(%ebp,%eax,4),%eax
  8014b2:	ff 
  8014b3:	8d 50 04             	lea    0x4(%eax),%edx
  8014b6:	8b 45 f0             	mov    -0x10(%ebp),%eax
  8014b9:	88 94 85 ed fb ff ff 	mov    %dl,-0x413(%ebp,%eax,4)
  8014c0:	8b 45 f0             	mov    -0x10(%ebp),%eax
  8014c3:	0f b6 94 85 ee fb ff 	movzbl -0x412(%ebp,%eax,4),%edx
  8014ca:	ff 
  8014cb:	0f b6 85 e4 fb ff ff 	movzbl -0x41c(%ebp),%eax
  8014d2:	8d 0c 85 00 00 00 00 	lea    0x0(,%eax,4),%ecx
  8014d9:	8b 45 ec             	mov    -0x14(%ebp),%eax
  8014dc:	01 c8                	add    %ecx,%eax
  8014de:	0f b6 40 02          	movzbl 0x2(%eax),%eax
  8014e2:	38 c2                	cmp    %al,%dl
  8014e4:	76 1a                	jbe    801500 <PAL_ColorFade+0x3e0>
  8014e6:	8b 45 f0             	mov    -0x10(%ebp),%eax
  8014e9:	0f b6 84 85 ee fb ff 	movzbl -0x412(%ebp,%eax,4),%eax
  8014f0:	ff 
  8014f1:	8d 50 fc             	lea    -0x4(%eax),%edx
  8014f4:	8b 45 f0             	mov    -0x10(%ebp),%eax
  8014f7:	88 94 85 ee fb ff ff 	mov    %dl,-0x412(%ebp,%eax,4)
  8014fe:	eb 3e                	jmp    80153e <PAL_ColorFade+0x41e>
  801500:	8b 45 f0             	mov    -0x10(%ebp),%eax
  801503:	0f b6 94 85 ee fb ff 	movzbl -0x412(%ebp,%eax,4),%edx
  80150a:	ff 
  80150b:	0f b6 85 e4 fb ff ff 	movzbl -0x41c(%ebp),%eax
  801512:	8d 0c 85 00 00 00 00 	lea    0x0(,%eax,4),%ecx
  801519:	8b 45 ec             	mov    -0x14(%ebp),%eax
  80151c:	01 c8                	add    %ecx,%eax
  80151e:	0f b6 40 02          	movzbl 0x2(%eax),%eax
  801522:	38 c2                	cmp    %al,%dl
  801524:	73 18                	jae    80153e <PAL_ColorFade+0x41e>
  801526:	8b 45 f0             	mov    -0x10(%ebp),%eax
  801529:	0f b6 84 85 ee fb ff 	movzbl -0x412(%ebp,%eax,4),%eax
  801530:	ff 
  801531:	8d 50 04             	lea    0x4(%eax),%edx
  801534:	8b 45 f0             	mov    -0x10(%ebp),%eax
  801537:	88 94 85 ee fb ff ff 	mov    %dl,-0x412(%ebp,%eax,4)
  80153e:	83 45 f0 01          	addl   $0x1,-0x10(%ebp)
  801542:	81 7d f0 ff 00 00 00 	cmpl   $0xff,-0x10(%ebp)
  801549:	0f 8e 77 fe ff ff    	jle    8013c6 <PAL_ColorFade+0x2a6>
  80154f:	83 ec 0c             	sub    $0xc,%esp
  801552:	8d 85 ec fb ff ff    	lea    -0x414(%ebp),%eax
  801558:	50                   	push   %eax
  801559:	e8 46 0d 00 00       	call   8022a4 <VIDEO_SetPalette>
  80155e:	83 c4 10             	add    $0x10,%esp
  801561:	8b 45 08             	mov    0x8(%ebp),%eax
  801564:	83 ec 0c             	sub    $0xc,%esp
  801567:	50                   	push   %eax
  801568:	e8 4c 26 00 00       	call   803bb9 <UTIL_Delay>
  80156d:	83 c4 10             	add    $0x10,%esp
  801570:	83 45 f4 01          	addl   $0x1,-0xc(%ebp)
  801574:	83 7d f4 3f          	cmpl   $0x3f,-0xc(%ebp)
  801578:	0f 8e 3c fe ff ff    	jle    8013ba <PAL_ColorFade+0x29a>
  80157e:	c7 45 f4 00 00 00 00 	movl   $0x0,-0xc(%ebp)
  801585:	eb 23                	jmp    8015aa <PAL_ColorFade+0x48a>
  801587:	0f b6 85 e4 fb ff ff 	movzbl -0x41c(%ebp),%eax
  80158e:	8d 14 85 00 00 00 00 	lea    0x0(,%eax,4),%edx
  801595:	8b 45 ec             	mov    -0x14(%ebp),%eax
  801598:	01 c2                	add    %eax,%edx
  80159a:	8b 45 f4             	mov    -0xc(%ebp),%eax
  80159d:	8b 12                	mov    (%edx),%edx
  80159f:	89 94 85 ec fb ff ff 	mov    %edx,-0x414(%ebp,%eax,4)
  8015a6:	83 45 f4 01          	addl   $0x1,-0xc(%ebp)
  8015aa:	81 7d f4 ff 00 00 00 	cmpl   $0xff,-0xc(%ebp)
  8015b1:	7e d4                	jle    801587 <PAL_ColorFade+0x467>
  8015b3:	83 ec 0c             	sub    $0xc,%esp
  8015b6:	8d 85 ec fb ff ff    	lea    -0x414(%ebp),%eax
  8015bc:	50                   	push   %eax
  8015bd:	e8 e2 0c 00 00       	call   8022a4 <VIDEO_SetPalette>
  8015c2:	83 c4 10             	add    $0x10,%esp
  8015c5:	90                   	nop
  8015c6:	8b 5d fc             	mov    -0x4(%ebp),%ebx
  8015c9:	c9                   	leave  
  8015ca:	c3                   	ret    

008015cb <PAL_FadeToRed>:
  8015cb:	55                   	push   %ebp
  8015cc:	89 e5                	mov    %esp,%ebp
  8015ce:	53                   	push   %ebx
  8015cf:	81 ec 14 04 00 00    	sub    $0x414,%esp
  8015d5:	e8 06 ec ff ff       	call   8001e0 <__x86.get_pc_thunk.bx>
  8015da:	81 c3 26 9a 04 00    	add    $0x49a26,%ebx
  8015e0:	c7 c0 34 d1 85 00    	mov    $0x85d134,%eax
  8015e6:	8b 00                	mov    (%eax),%eax
  8015e8:	8b 90 50 44 00 00    	mov    0x4450(%eax),%edx
  8015ee:	c7 c0 34 d1 85 00    	mov    $0x85d134,%eax
  8015f4:	8b 00                	mov    (%eax),%eax
  8015f6:	0f b7 80 4c 44 00 00 	movzwl 0x444c(%eax),%eax
  8015fd:	0f b7 c0             	movzwl %ax,%eax
  801600:	83 ec 08             	sub    $0x8,%esp
  801603:	52                   	push   %edx
  801604:	50                   	push   %eax
  801605:	e8 8b f1 ff ff       	call   800795 <PAL_GetPalette>
  80160a:	83 c4 10             	add    $0x10,%esp
  80160d:	89 45 ec             	mov    %eax,-0x14(%ebp)
  801610:	83 ec 04             	sub    $0x4,%esp
  801613:	68 00 04 00 00       	push   $0x400
  801618:	ff 75 ec             	pushl  -0x14(%ebp)
  80161b:	8d 85 eb fb ff ff    	lea    -0x415(%ebp),%eax
  801621:	50                   	push   %eax
  801622:	e8 e1 0b 03 00       	call   832208 <memcpy>
  801627:	83 c4 10             	add    $0x10,%esp
  80162a:	c7 45 f4 00 00 00 00 	movl   $0x0,-0xc(%ebp)
  801631:	eb 2e                	jmp    801661 <PAL_FadeToRed+0x96>
  801633:	c7 c0 a0 c3 85 00    	mov    $0x85c3a0,%eax
  801639:	8b 00                	mov    (%eax),%eax
  80163b:	8b 50 20             	mov    0x20(%eax),%edx
  80163e:	8b 45 f4             	mov    -0xc(%ebp),%eax
  801641:	01 d0                	add    %edx,%eax
  801643:	0f b6 00             	movzbl (%eax),%eax
  801646:	3c 4f                	cmp    $0x4f,%al
  801648:	75 13                	jne    80165d <PAL_FadeToRed+0x92>
  80164a:	c7 c0 a0 c3 85 00    	mov    $0x85c3a0,%eax
  801650:	8b 00                	mov    (%eax),%eax
  801652:	8b 50 20             	mov    0x20(%eax),%edx
  801655:	8b 45 f4             	mov    -0xc(%ebp),%eax
  801658:	01 d0                	add    %edx,%eax
  80165a:	c6 00 4e             	movb   $0x4e,(%eax)
  80165d:	83 45 f4 01          	addl   $0x1,-0xc(%ebp)
  801661:	c7 c0 a0 c3 85 00    	mov    $0x85c3a0,%eax
  801667:	8b 00                	mov    (%eax),%eax
  801669:	0f b7 40 10          	movzwl 0x10(%eax),%eax
  80166d:	0f b7 d0             	movzwl %ax,%edx
  801670:	c7 c0 a0 c3 85 00    	mov    $0x85c3a0,%eax
  801676:	8b 00                	mov    (%eax),%eax
  801678:	8b 40 0c             	mov    0xc(%eax),%eax
  80167b:	0f af c2             	imul   %edx,%eax
  80167e:	3b 45 f4             	cmp    -0xc(%ebp),%eax
  801681:	7f b0                	jg     801633 <PAL_FadeToRed+0x68>
  801683:	83 ec 0c             	sub    $0xc,%esp
  801686:	6a 00                	push   $0x0
  801688:	e8 98 08 00 00       	call   801f25 <VIDEO_UpdateScreen>
  80168d:	83 c4 10             	add    $0x10,%esp
  801690:	c7 45 f4 00 00 00 00 	movl   $0x0,-0xc(%ebp)
  801697:	e9 ab 01 00 00       	jmp    801847 <PAL_FadeToRed+0x27c>
  80169c:	c7 45 f0 00 00 00 00 	movl   $0x0,-0x10(%ebp)
  8016a3:	e9 6f 01 00 00       	jmp    801817 <PAL_FadeToRed+0x24c>
  8016a8:	83 7d f0 4f          	cmpl   $0x4f,-0x10(%ebp)
  8016ac:	0f 84 60 01 00 00    	je     801812 <PAL_FadeToRed+0x247>
  8016b2:	8b 45 f0             	mov    -0x10(%ebp),%eax
  8016b5:	8d 14 85 00 00 00 00 	lea    0x0(,%eax,4),%edx
  8016bc:	8b 45 ec             	mov    -0x14(%ebp),%eax
  8016bf:	01 d0                	add    %edx,%eax
  8016c1:	0f b6 00             	movzbl (%eax),%eax
  8016c4:	0f b6 d0             	movzbl %al,%edx
  8016c7:	8b 45 f0             	mov    -0x10(%ebp),%eax
  8016ca:	8d 0c 85 00 00 00 00 	lea    0x0(,%eax,4),%ecx
  8016d1:	8b 45 ec             	mov    -0x14(%ebp),%eax
  8016d4:	01 c8                	add    %ecx,%eax
  8016d6:	0f b6 40 01          	movzbl 0x1(%eax),%eax
  8016da:	0f b6 c0             	movzbl %al,%eax
  8016dd:	01 c2                	add    %eax,%edx
  8016df:	8b 45 f0             	mov    -0x10(%ebp),%eax
  8016e2:	8d 0c 85 00 00 00 00 	lea    0x0(,%eax,4),%ecx
  8016e9:	8b 45 ec             	mov    -0x14(%ebp),%eax
  8016ec:	01 c8                	add    %ecx,%eax
  8016ee:	0f b6 40 02          	movzbl 0x2(%eax),%eax
  8016f2:	0f b6 c0             	movzbl %al,%eax
  8016f5:	01 d0                	add    %edx,%eax
  8016f7:	8d 50 03             	lea    0x3(%eax),%edx
  8016fa:	85 c0                	test   %eax,%eax
  8016fc:	0f 48 c2             	cmovs  %edx,%eax
  8016ff:	c1 f8 02             	sar    $0x2,%eax
  801702:	83 c0 40             	add    $0x40,%eax
  801705:	88 45 eb             	mov    %al,-0x15(%ebp)
  801708:	8b 45 f0             	mov    -0x10(%ebp),%eax
  80170b:	0f b6 84 85 eb fb ff 	movzbl -0x415(%ebp,%eax,4),%eax
  801712:	ff 
  801713:	3a 45 eb             	cmp    -0x15(%ebp),%al
  801716:	76 3a                	jbe    801752 <PAL_FadeToRed+0x187>
  801718:	8b 45 f0             	mov    -0x10(%ebp),%eax
  80171b:	0f b6 94 85 eb fb ff 	movzbl -0x415(%ebp,%eax,4),%edx
  801722:	ff 
  801723:	8b 45 f0             	mov    -0x10(%ebp),%eax
  801726:	0f b6 84 85 eb fb ff 	movzbl -0x415(%ebp,%eax,4),%eax
  80172d:	ff 
  80172e:	0f b6 c8             	movzbl %al,%ecx
  801731:	0f b6 45 eb          	movzbl -0x15(%ebp),%eax
  801735:	29 c1                	sub    %eax,%ecx
  801737:	89 c8                	mov    %ecx,%eax
  801739:	b9 08 00 00 00       	mov    $0x8,%ecx
  80173e:	83 f8 08             	cmp    $0x8,%eax
  801741:	0f 4f c1             	cmovg  %ecx,%eax
  801744:	29 c2                	sub    %eax,%edx
  801746:	8b 45 f0             	mov    -0x10(%ebp),%eax
  801749:	88 94 85 eb fb ff ff 	mov    %dl,-0x415(%ebp,%eax,4)
  801750:	eb 48                	jmp    80179a <PAL_FadeToRed+0x1cf>
  801752:	8b 45 f0             	mov    -0x10(%ebp),%eax
  801755:	0f b6 84 85 eb fb ff 	movzbl -0x415(%ebp,%eax,4),%eax
  80175c:	ff 
  80175d:	3a 45 eb             	cmp    -0x15(%ebp),%al
  801760:	73 38                	jae    80179a <PAL_FadeToRed+0x1cf>
  801762:	8b 45 f0             	mov    -0x10(%ebp),%eax
  801765:	0f b6 94 85 eb fb ff 	movzbl -0x415(%ebp,%eax,4),%edx
  80176c:	ff 
  80176d:	0f b6 4d eb          	movzbl -0x15(%ebp),%ecx
  801771:	8b 45 f0             	mov    -0x10(%ebp),%eax
  801774:	0f b6 84 85 eb fb ff 	movzbl -0x415(%ebp,%eax,4),%eax
  80177b:	ff 
  80177c:	0f b6 c0             	movzbl %al,%eax
  80177f:	29 c1                	sub    %eax,%ecx
  801781:	89 c8                	mov    %ecx,%eax
  801783:	b9 08 00 00 00       	mov    $0x8,%ecx
  801788:	83 f8 08             	cmp    $0x8,%eax
  80178b:	0f 4f c1             	cmovg  %ecx,%eax
  80178e:	01 c2                	add    %eax,%edx
  801790:	8b 45 f0             	mov    -0x10(%ebp),%eax
  801793:	88 94 85 eb fb ff ff 	mov    %dl,-0x415(%ebp,%eax,4)
  80179a:	8b 45 f0             	mov    -0x10(%ebp),%eax
  80179d:	0f b6 84 85 ec fb ff 	movzbl -0x414(%ebp,%eax,4),%eax
  8017a4:	ff 
  8017a5:	84 c0                	test   %al,%al
  8017a7:	74 2c                	je     8017d5 <PAL_FadeToRed+0x20a>
  8017a9:	8b 45 f0             	mov    -0x10(%ebp),%eax
  8017ac:	0f b6 94 85 ec fb ff 	movzbl -0x414(%ebp,%eax,4),%edx
  8017b3:	ff 
  8017b4:	8b 45 f0             	mov    -0x10(%ebp),%eax
  8017b7:	0f b6 84 85 ec fb ff 	movzbl -0x414(%ebp,%eax,4),%eax
  8017be:	ff 
  8017bf:	b9 08 00 00 00       	mov    $0x8,%ecx
  8017c4:	3c 08                	cmp    $0x8,%al
  8017c6:	0f 47 c1             	cmova  %ecx,%eax
  8017c9:	29 c2                	sub    %eax,%edx
  8017cb:	8b 45 f0             	mov    -0x10(%ebp),%eax
  8017ce:	88 94 85 ec fb ff ff 	mov    %dl,-0x414(%ebp,%eax,4)
  8017d5:	8b 45 f0             	mov    -0x10(%ebp),%eax
  8017d8:	0f b6 84 85 ed fb ff 	movzbl -0x413(%ebp,%eax,4),%eax
  8017df:	ff 
  8017e0:	84 c0                	test   %al,%al
  8017e2:	74 2f                	je     801813 <PAL_FadeToRed+0x248>
  8017e4:	8b 45 f0             	mov    -0x10(%ebp),%eax
  8017e7:	0f b6 94 85 ed fb ff 	movzbl -0x413(%ebp,%eax,4),%edx
  8017ee:	ff 
  8017ef:	8b 45 f0             	mov    -0x10(%ebp),%eax
  8017f2:	0f b6 84 85 ed fb ff 	movzbl -0x413(%ebp,%eax,4),%eax
  8017f9:	ff 
  8017fa:	b9 08 00 00 00       	mov    $0x8,%ecx
  8017ff:	3c 08                	cmp    $0x8,%al
  801801:	0f 47 c1             	cmova  %ecx,%eax
  801804:	29 c2                	sub    %eax,%edx
  801806:	8b 45 f0             	mov    -0x10(%ebp),%eax
  801809:	88 94 85 ed fb ff ff 	mov    %dl,-0x413(%ebp,%eax,4)
  801810:	eb 01                	jmp    801813 <PAL_FadeToRed+0x248>
  801812:	90                   	nop
  801813:	83 45 f0 01          	addl   $0x1,-0x10(%ebp)
  801817:	81 7d f0 ff 00 00 00 	cmpl   $0xff,-0x10(%ebp)
  80181e:	0f 8e 84 fe ff ff    	jle    8016a8 <PAL_FadeToRed+0xdd>
  801824:	83 ec 0c             	sub    $0xc,%esp
  801827:	8d 85 eb fb ff ff    	lea    -0x415(%ebp),%eax
  80182d:	50                   	push   %eax
  80182e:	e8 71 0a 00 00       	call   8022a4 <VIDEO_SetPalette>
  801833:	83 c4 10             	add    $0x10,%esp
  801836:	83 ec 0c             	sub    $0xc,%esp
  801839:	6a 4b                	push   $0x4b
  80183b:	e8 79 23 00 00       	call   803bb9 <UTIL_Delay>
  801840:	83 c4 10             	add    $0x10,%esp
  801843:	83 45 f4 01          	addl   $0x1,-0xc(%ebp)
  801847:	83 7d f4 1f          	cmpl   $0x1f,-0xc(%ebp)
  80184b:	0f 8e 4b fe ff ff    	jle    80169c <PAL_FadeToRed+0xd1>
  801851:	90                   	nop
  801852:	8b 5d fc             	mov    -0x4(%ebp),%ebx
  801855:	c9                   	leave  
  801856:	c3                   	ret    

00801857 <PAL_KeyPressHandler>:
  801857:	55                   	push   %ebp
  801858:	89 e5                	mov    %esp,%ebp
  80185a:	53                   	push   %ebx
  80185b:	83 ec 04             	sub    $0x4,%esp
  80185e:	e8 79 e9 ff ff       	call   8001dc <__x86.get_pc_thunk.ax>
  801863:	05 9d 97 04 00       	add    $0x4979d,%eax
  801868:	83 7d 08 51          	cmpl   $0x51,0x8(%ebp)
  80186c:	0f 87 80 02 00 00    	ja     801af2 <.L30>
  801872:	8b 55 08             	mov    0x8(%ebp),%edx
  801875:	c1 e2 02             	shl    $0x2,%edx
  801878:	8b 94 02 a0 66 ff ff 	mov    -0x9960(%edx,%eax,1),%edx
  80187f:	01 c2                	add    %eax,%edx
  801881:	ff e2                	jmp    *%edx

00801883 <.L15>:
  801883:	c7 c2 34 d1 85 00    	mov    $0x85d134,%edx
  801889:	8b 12                	mov    (%edx),%edx
  80188b:	8b 92 d8 2a 00 00    	mov    0x2ad8(%edx),%edx
  801891:	85 d2                	test   %edx,%edx
  801893:	75 0a                	jne    80189f <.L15+0x1c>
  801895:	c7 c2 a0 31 86 00    	mov    $0x8631a0,%edx
  80189b:	8b 12                	mov    (%edx),%edx
  80189d:	eb 05                	jmp    8018a4 <.L15+0x21>
  80189f:	ba 04 00 00 00       	mov    $0x4,%edx
  8018a4:	c7 c1 a0 31 86 00    	mov    $0x8631a0,%ecx
  8018aa:	89 51 04             	mov    %edx,0x4(%ecx)
  8018ad:	c7 c2 a0 31 86 00    	mov    $0x8631a0,%edx
  8018b3:	c7 02 02 00 00 00    	movl   $0x2,(%edx)
  8018b9:	c7 c2 a0 31 86 00    	mov    $0x8631a0,%edx
  8018bf:	8b 52 08             	mov    0x8(%edx),%edx
  8018c2:	83 ca 10             	or     $0x10,%edx
  8018c5:	c7 c0 a0 31 86 00    	mov    $0x8631a0,%eax
  8018cb:	89 50 08             	mov    %edx,0x8(%eax)
  8018ce:	e9 20 02 00 00       	jmp    801af3 <.L30+0x1>

008018d3 <.L19>:
  8018d3:	c7 c2 34 d1 85 00    	mov    $0x85d134,%edx
  8018d9:	8b 12                	mov    (%edx),%edx
  8018db:	8b 92 d8 2a 00 00    	mov    0x2ad8(%edx),%edx
  8018e1:	85 d2                	test   %edx,%edx
  8018e3:	75 0a                	jne    8018ef <.L19+0x1c>
  8018e5:	c7 c2 a0 31 86 00    	mov    $0x8631a0,%edx
  8018eb:	8b 12                	mov    (%edx),%edx
  8018ed:	eb 05                	jmp    8018f4 <.L19+0x21>
  8018ef:	ba 04 00 00 00       	mov    $0x4,%edx
  8018f4:	c7 c1 a0 31 86 00    	mov    $0x8631a0,%ecx
  8018fa:	89 51 04             	mov    %edx,0x4(%ecx)
  8018fd:	c7 c2 a0 31 86 00    	mov    $0x8631a0,%edx
  801903:	c7 02 00 00 00 00    	movl   $0x0,(%edx)
  801909:	c7 c2 a0 31 86 00    	mov    $0x8631a0,%edx
  80190f:	8b 52 08             	mov    0x8(%edx),%edx
  801912:	83 ca 04             	or     $0x4,%edx
  801915:	c7 c0 a0 31 86 00    	mov    $0x8631a0,%eax
  80191b:	89 50 08             	mov    %edx,0x8(%eax)
  80191e:	e9 d0 01 00 00       	jmp    801af3 <.L30+0x1>

00801923 <.L17>:
  801923:	c7 c2 34 d1 85 00    	mov    $0x85d134,%edx
  801929:	8b 12                	mov    (%edx),%edx
  80192b:	8b 92 d8 2a 00 00    	mov    0x2ad8(%edx),%edx
  801931:	85 d2                	test   %edx,%edx
  801933:	75 0a                	jne    80193f <.L17+0x1c>
  801935:	c7 c2 a0 31 86 00    	mov    $0x8631a0,%edx
  80193b:	8b 12                	mov    (%edx),%edx
  80193d:	eb 05                	jmp    801944 <.L17+0x21>
  80193f:	ba 04 00 00 00       	mov    $0x4,%edx
  801944:	c7 c1 a0 31 86 00    	mov    $0x8631a0,%ecx
  80194a:	89 51 04             	mov    %edx,0x4(%ecx)
  80194d:	c7 c2 a0 31 86 00    	mov    $0x8631a0,%edx
  801953:	c7 02 01 00 00 00    	movl   $0x1,(%edx)
  801959:	c7 c2 a0 31 86 00    	mov    $0x8631a0,%edx
  80195f:	8b 52 08             	mov    0x8(%edx),%edx
  801962:	83 ca 08             	or     $0x8,%edx
  801965:	c7 c0 a0 31 86 00    	mov    $0x8631a0,%eax
  80196b:	89 50 08             	mov    %edx,0x8(%eax)
  80196e:	e9 80 01 00 00       	jmp    801af3 <.L30+0x1>

00801973 <.L18>:
  801973:	c7 c2 34 d1 85 00    	mov    $0x85d134,%edx
  801979:	8b 12                	mov    (%edx),%edx
  80197b:	8b 92 d8 2a 00 00    	mov    0x2ad8(%edx),%edx
  801981:	85 d2                	test   %edx,%edx
  801983:	75 0a                	jne    80198f <.L18+0x1c>
  801985:	c7 c2 a0 31 86 00    	mov    $0x8631a0,%edx
  80198b:	8b 12                	mov    (%edx),%edx
  80198d:	eb 05                	jmp    801994 <.L18+0x21>
  80198f:	ba 04 00 00 00       	mov    $0x4,%edx
  801994:	c7 c1 a0 31 86 00    	mov    $0x8631a0,%ecx
  80199a:	89 51 04             	mov    %edx,0x4(%ecx)
  80199d:	c7 c2 a0 31 86 00    	mov    $0x8631a0,%edx
  8019a3:	c7 02 03 00 00 00    	movl   $0x3,(%edx)
  8019a9:	c7 c2 a0 31 86 00    	mov    $0x8631a0,%edx
  8019af:	8b 52 08             	mov    0x8(%edx),%edx
  8019b2:	83 ca 20             	or     $0x20,%edx
  8019b5:	c7 c0 a0 31 86 00    	mov    $0x8631a0,%eax
  8019bb:	89 50 08             	mov    %edx,0x8(%eax)
  8019be:	e9 30 01 00 00       	jmp    801af3 <.L30+0x1>

008019c3 <.L3>:
  8019c3:	c7 c2 a0 31 86 00    	mov    $0x8631a0,%edx
  8019c9:	8b 52 08             	mov    0x8(%edx),%edx
  8019cc:	83 ca 01             	or     $0x1,%edx
  8019cf:	c7 c0 a0 31 86 00    	mov    $0x8631a0,%eax
  8019d5:	89 50 08             	mov    %edx,0x8(%eax)
  8019d8:	e9 16 01 00 00       	jmp    801af3 <.L30+0x1>

008019dd <.L10>:
  8019dd:	c7 c2 a0 31 86 00    	mov    $0x8631a0,%edx
  8019e3:	8b 52 08             	mov    0x8(%edx),%edx
  8019e6:	83 ca 02             	or     $0x2,%edx
  8019e9:	c7 c0 a0 31 86 00    	mov    $0x8631a0,%eax
  8019ef:	89 50 08             	mov    %edx,0x8(%eax)
  8019f2:	e9 fc 00 00 00       	jmp    801af3 <.L30+0x1>

008019f7 <.L16>:
  8019f7:	c7 c2 a0 31 86 00    	mov    $0x8631a0,%edx
  8019fd:	8b 52 08             	mov    0x8(%edx),%edx
  801a00:	83 ca 40             	or     $0x40,%edx
  801a03:	c7 c0 a0 31 86 00    	mov    $0x8631a0,%eax
  801a09:	89 50 08             	mov    %edx,0x8(%eax)
  801a0c:	e9 e2 00 00 00       	jmp    801af3 <.L30+0x1>

00801a11 <.L20>:
  801a11:	c7 c2 a0 31 86 00    	mov    $0x8631a0,%edx
  801a17:	8b 52 08             	mov    0x8(%edx),%edx
  801a1a:	80 ca 80             	or     $0x80,%dl
  801a1d:	c7 c0 a0 31 86 00    	mov    $0x8631a0,%eax
  801a23:	89 50 08             	mov    %edx,0x8(%eax)
  801a26:	e9 c8 00 00 00       	jmp    801af3 <.L30+0x1>

00801a2b <.L8>:
  801a2b:	c7 c2 a0 31 86 00    	mov    $0x8631a0,%edx
  801a31:	8b 52 08             	mov    0x8(%edx),%edx
  801a34:	80 ce 01             	or     $0x1,%dh
  801a37:	c7 c0 a0 31 86 00    	mov    $0x8631a0,%eax
  801a3d:	89 50 08             	mov    %edx,0x8(%eax)
  801a40:	e9 ae 00 00 00       	jmp    801af3 <.L30+0x1>

00801a45 <.L11>:
  801a45:	c7 c2 a0 31 86 00    	mov    $0x8631a0,%edx
  801a4b:	8b 52 08             	mov    0x8(%edx),%edx
  801a4e:	80 ce 02             	or     $0x2,%dh
  801a51:	c7 c0 a0 31 86 00    	mov    $0x8631a0,%eax
  801a57:	89 50 08             	mov    %edx,0x8(%eax)
  801a5a:	e9 94 00 00 00       	jmp    801af3 <.L30+0x1>

00801a5f <.L13>:
  801a5f:	c7 c2 a0 31 86 00    	mov    $0x8631a0,%edx
  801a65:	8b 52 08             	mov    0x8(%edx),%edx
  801a68:	80 ce 04             	or     $0x4,%dh
  801a6b:	c7 c0 a0 31 86 00    	mov    $0x8631a0,%eax
  801a71:	89 50 08             	mov    %edx,0x8(%eax)
  801a74:	eb 7d                	jmp    801af3 <.L30+0x1>

00801a76 <.L7>:
  801a76:	c7 c2 a0 31 86 00    	mov    $0x8631a0,%edx
  801a7c:	8b 52 08             	mov    0x8(%edx),%edx
  801a7f:	80 ce 08             	or     $0x8,%dh
  801a82:	c7 c0 a0 31 86 00    	mov    $0x8631a0,%eax
  801a88:	89 50 08             	mov    %edx,0x8(%eax)
  801a8b:	eb 66                	jmp    801af3 <.L30+0x1>

00801a8d <.L6>:
  801a8d:	c7 c2 a0 31 86 00    	mov    $0x8631a0,%edx
  801a93:	8b 52 08             	mov    0x8(%edx),%edx
  801a96:	80 ce 10             	or     $0x10,%dh
  801a99:	c7 c0 a0 31 86 00    	mov    $0x8631a0,%eax
  801a9f:	89 50 08             	mov    %edx,0x8(%eax)
  801aa2:	eb 4f                	jmp    801af3 <.L30+0x1>

00801aa4 <.L5>:
  801aa4:	c7 c2 a0 31 86 00    	mov    $0x8631a0,%edx
  801aaa:	8b 52 08             	mov    0x8(%edx),%edx
  801aad:	80 ce 20             	or     $0x20,%dh
  801ab0:	c7 c0 a0 31 86 00    	mov    $0x8631a0,%eax
  801ab6:	89 50 08             	mov    %edx,0x8(%eax)
  801ab9:	eb 38                	jmp    801af3 <.L30+0x1>

00801abb <.L12>:
  801abb:	c7 c2 a0 31 86 00    	mov    $0x8631a0,%edx
  801ac1:	8b 52 08             	mov    0x8(%edx),%edx
  801ac4:	80 ce 40             	or     $0x40,%dh
  801ac7:	c7 c0 a0 31 86 00    	mov    $0x8631a0,%eax
  801acd:	89 50 08             	mov    %edx,0x8(%eax)
  801ad0:	eb 21                	jmp    801af3 <.L30+0x1>

00801ad2 <.L14>:
  801ad2:	c7 c2 a0 31 86 00    	mov    $0x8631a0,%edx
  801ad8:	8b 52 08             	mov    0x8(%edx),%edx
  801adb:	80 ce 80             	or     $0x80,%dh
  801ade:	c7 c0 a0 31 86 00    	mov    $0x8631a0,%eax
  801ae4:	89 50 08             	mov    %edx,0x8(%eax)
  801ae7:	eb 0a                	jmp    801af3 <.L30+0x1>

00801ae9 <.L9>:
  801ae9:	89 c3                	mov    %eax,%ebx
  801aeb:	e8 3f 0a 00 00       	call   80252f <VIDEO_SaveScreenshot>
  801af0:	eb 01                	jmp    801af3 <.L30+0x1>

00801af2 <.L30>:
  801af2:	90                   	nop
  801af3:	90                   	nop
  801af4:	83 c4 04             	add    $0x4,%esp
  801af7:	5b                   	pop    %ebx
  801af8:	5d                   	pop    %ebp
  801af9:	c3                   	ret    

00801afa <PAL_KeyReleaseHandler>:
  801afa:	55                   	push   %ebp
  801afb:	89 e5                	mov    %esp,%ebp
  801afd:	e8 da e6 ff ff       	call   8001dc <__x86.get_pc_thunk.ax>
  801b02:	05 fe 94 04 00       	add    $0x494fe,%eax
  801b07:	8b 55 08             	mov    0x8(%ebp),%edx
  801b0a:	83 fa 4b             	cmp    $0x4b,%edx
  801b0d:	74 7e                	je     801b8d <PAL_KeyReleaseHandler+0x93>
  801b0f:	83 fa 4b             	cmp    $0x4b,%edx
  801b12:	7f 0a                	jg     801b1e <PAL_KeyReleaseHandler+0x24>
  801b14:	83 fa 48             	cmp    $0x48,%edx
  801b17:	74 18                	je     801b31 <PAL_KeyReleaseHandler+0x37>
  801b19:	e9 c8 00 00 00       	jmp    801be6 <PAL_KeyReleaseHandler+0xec>
  801b1e:	83 fa 4d             	cmp    $0x4d,%edx
  801b21:	0f 84 93 00 00 00    	je     801bba <PAL_KeyReleaseHandler+0xc0>
  801b27:	83 fa 50             	cmp    $0x50,%edx
  801b2a:	74 35                	je     801b61 <PAL_KeyReleaseHandler+0x67>
  801b2c:	e9 b5 00 00 00       	jmp    801be6 <PAL_KeyReleaseHandler+0xec>
  801b31:	c7 c2 a0 31 86 00    	mov    $0x8631a0,%edx
  801b37:	8b 12                	mov    (%edx),%edx
  801b39:	83 fa 02             	cmp    $0x2,%edx
  801b3c:	75 11                	jne    801b4f <PAL_KeyReleaseHandler+0x55>
  801b3e:	c7 c2 a0 31 86 00    	mov    $0x8631a0,%edx
  801b44:	8b 4a 04             	mov    0x4(%edx),%ecx
  801b47:	c7 c2 a0 31 86 00    	mov    $0x8631a0,%edx
  801b4d:	89 0a                	mov    %ecx,(%edx)
  801b4f:	c7 c0 a0 31 86 00    	mov    $0x8631a0,%eax
  801b55:	c7 40 04 04 00 00 00 	movl   $0x4,0x4(%eax)
  801b5c:	e9 85 00 00 00       	jmp    801be6 <PAL_KeyReleaseHandler+0xec>
  801b61:	c7 c2 a0 31 86 00    	mov    $0x8631a0,%edx
  801b67:	8b 12                	mov    (%edx),%edx
  801b69:	85 d2                	test   %edx,%edx
  801b6b:	75 11                	jne    801b7e <PAL_KeyReleaseHandler+0x84>
  801b6d:	c7 c2 a0 31 86 00    	mov    $0x8631a0,%edx
  801b73:	8b 4a 04             	mov    0x4(%edx),%ecx
  801b76:	c7 c2 a0 31 86 00    	mov    $0x8631a0,%edx
  801b7c:	89 0a                	mov    %ecx,(%edx)
  801b7e:	c7 c0 a0 31 86 00    	mov    $0x8631a0,%eax
  801b84:	c7 40 04 04 00 00 00 	movl   $0x4,0x4(%eax)
  801b8b:	eb 59                	jmp    801be6 <PAL_KeyReleaseHandler+0xec>
  801b8d:	c7 c2 a0 31 86 00    	mov    $0x8631a0,%edx
  801b93:	8b 12                	mov    (%edx),%edx
  801b95:	83 fa 01             	cmp    $0x1,%edx
  801b98:	75 11                	jne    801bab <PAL_KeyReleaseHandler+0xb1>
  801b9a:	c7 c2 a0 31 86 00    	mov    $0x8631a0,%edx
  801ba0:	8b 4a 04             	mov    0x4(%edx),%ecx
  801ba3:	c7 c2 a0 31 86 00    	mov    $0x8631a0,%edx
  801ba9:	89 0a                	mov    %ecx,(%edx)
  801bab:	c7 c0 a0 31 86 00    	mov    $0x8631a0,%eax
  801bb1:	c7 40 04 04 00 00 00 	movl   $0x4,0x4(%eax)
  801bb8:	eb 2c                	jmp    801be6 <PAL_KeyReleaseHandler+0xec>
  801bba:	c7 c2 a0 31 86 00    	mov    $0x8631a0,%edx
  801bc0:	8b 12                	mov    (%edx),%edx
  801bc2:	83 fa 03             	cmp    $0x3,%edx
  801bc5:	75 11                	jne    801bd8 <PAL_KeyReleaseHandler+0xde>
  801bc7:	c7 c2 a0 31 86 00    	mov    $0x8631a0,%edx
  801bcd:	8b 4a 04             	mov    0x4(%edx),%ecx
  801bd0:	c7 c2 a0 31 86 00    	mov    $0x8631a0,%edx
  801bd6:	89 0a                	mov    %ecx,(%edx)
  801bd8:	c7 c0 a0 31 86 00    	mov    $0x8631a0,%eax
  801bde:	c7 40 04 04 00 00 00 	movl   $0x4,0x4(%eax)
  801be5:	90                   	nop
  801be6:	90                   	nop
  801be7:	5d                   	pop    %ebp
  801be8:	c3                   	ret    

00801be9 <PAL_ClearKeyState>:
  801be9:	55                   	push   %ebp
  801bea:	89 e5                	mov    %esp,%ebp
  801bec:	e8 eb e5 ff ff       	call   8001dc <__x86.get_pc_thunk.ax>
  801bf1:	05 0f 94 04 00       	add    $0x4940f,%eax
  801bf6:	c7 c0 a0 31 86 00    	mov    $0x8631a0,%eax
  801bfc:	c7 40 08 00 00 00 00 	movl   $0x0,0x8(%eax)
  801c03:	90                   	nop
  801c04:	5d                   	pop    %ebp
  801c05:	c3                   	ret    

00801c06 <PAL_InitInput>:
  801c06:	55                   	push   %ebp
  801c07:	89 e5                	mov    %esp,%ebp
  801c09:	53                   	push   %ebx
  801c0a:	83 ec 04             	sub    $0x4,%esp
  801c0d:	e8 ce e5 ff ff       	call   8001e0 <__x86.get_pc_thunk.bx>
  801c12:	81 c3 ee 93 04 00    	add    $0x493ee,%ebx
  801c18:	83 ec 04             	sub    $0x4,%esp
  801c1b:	6a 0c                	push   $0xc
  801c1d:	6a 00                	push   $0x0
  801c1f:	c7 c0 a0 31 86 00    	mov    $0x8631a0,%eax
  801c25:	50                   	push   %eax
  801c26:	e8 b2 06 03 00       	call   8322dd <memset>
  801c2b:	83 c4 10             	add    $0x10,%esp
  801c2e:	c7 c0 a0 31 86 00    	mov    $0x8631a0,%eax
  801c34:	c7 00 04 00 00 00    	movl   $0x4,(%eax)
  801c3a:	c7 c0 a0 31 86 00    	mov    $0x8631a0,%eax
  801c40:	c7 40 04 04 00 00 00 	movl   $0x4,0x4(%eax)
  801c47:	90                   	nop
  801c48:	8b 5d fc             	mov    -0x4(%ebp),%ebx
  801c4b:	c9                   	leave  
  801c4c:	c3                   	ret    

00801c4d <PAL_ShutdownInput>:
  801c4d:	55                   	push   %ebp
  801c4e:	89 e5                	mov    %esp,%ebp
  801c50:	e8 87 e5 ff ff       	call   8001dc <__x86.get_pc_thunk.ax>
  801c55:	05 ab 93 04 00       	add    $0x493ab,%eax
  801c5a:	90                   	nop
  801c5b:	5d                   	pop    %ebp
  801c5c:	c3                   	ret    

00801c5d <PAL_ProcessEvent>:
  801c5d:	55                   	push   %ebp
  801c5e:	89 e5                	mov    %esp,%ebp
  801c60:	83 ec 08             	sub    $0x8,%esp
  801c63:	e8 74 e5 ff ff       	call   8001dc <__x86.get_pc_thunk.ax>
  801c68:	05 98 93 04 00       	add    $0x49398,%eax
  801c6d:	90                   	nop
  801c6e:	83 ec 0c             	sub    $0xc,%esp
  801c71:	6a 00                	push   $0x0
  801c73:	e8 0a 00 00 00       	call   801c82 <PAL_PollEvent>
  801c78:	83 c4 10             	add    $0x10,%esp
  801c7b:	85 c0                	test   %eax,%eax
  801c7d:	75 ef                	jne    801c6e <PAL_ProcessEvent+0x11>
  801c7f:	90                   	nop
  801c80:	c9                   	leave  
  801c81:	c3                   	ret    

00801c82 <PAL_PollEvent>:
  801c82:	55                   	push   %ebp
  801c83:	89 e5                	mov    %esp,%ebp
  801c85:	53                   	push   %ebx
  801c86:	83 ec 04             	sub    $0x4,%esp
  801c89:	e8 4e e5 ff ff       	call   8001dc <__x86.get_pc_thunk.ax>
  801c8e:	05 72 93 04 00       	add    $0x49372,%eax
  801c93:	83 ec 08             	sub    $0x8,%esp
  801c96:	8d 90 fa 6a fb ff    	lea    -0x49506(%eax),%edx
  801c9c:	52                   	push   %edx
  801c9d:	8d 90 57 68 fb ff    	lea    -0x497a9(%eax),%edx
  801ca3:	52                   	push   %edx
  801ca4:	89 c3                	mov    %eax,%ebx
  801ca6:	e8 e1 f3 01 00       	call   82108c <process_keys>
  801cab:	83 c4 10             	add    $0x10,%esp
  801cae:	0f b6 c0             	movzbl %al,%eax
  801cb1:	8b 5d fc             	mov    -0x4(%ebp),%ebx
  801cb4:	c9                   	leave  
  801cb5:	c3                   	ret    

00801cb6 <VIDEO_Init>:
  801cb6:	55                   	push   %ebp
  801cb7:	89 e5                	mov    %esp,%ebp
  801cb9:	57                   	push   %edi
  801cba:	56                   	push   %esi
  801cbb:	53                   	push   %ebx
  801cbc:	83 ec 1c             	sub    $0x1c,%esp
  801cbf:	e8 1c e5 ff ff       	call   8001e0 <__x86.get_pc_thunk.bx>
  801cc4:	81 c3 3c 93 04 00    	add    $0x4933c,%ebx
  801cca:	8b 55 08             	mov    0x8(%ebp),%edx
  801ccd:	8b 45 0c             	mov    0xc(%ebp),%eax
  801cd0:	66 89 55 e4          	mov    %dx,-0x1c(%ebp)
  801cd4:	66 89 45 e0          	mov    %ax,-0x20(%ebp)
  801cd8:	0f b7 45 e4          	movzwl -0x1c(%ebp),%eax
  801cdc:	66 89 83 2c 04 00 00 	mov    %ax,0x42c(%ebx)
  801ce3:	0f b7 45 e0          	movzwl -0x20(%ebp),%eax
  801ce7:	66 89 83 2e 04 00 00 	mov    %ax,0x42e(%ebx)
  801cee:	6a 01                	push   $0x1
  801cf0:	6a 08                	push   $0x8
  801cf2:	68 c8 00 00 00       	push   $0xc8
  801cf7:	68 40 01 00 00       	push   $0x140
  801cfc:	e8 38 ff 01 00       	call   821c39 <SDL_SetVideoMode>
  801d01:	83 c4 10             	add    $0x10,%esp
  801d04:	89 83 ac 13 01 00    	mov    %eax,0x113ac(%ebx)
  801d0a:	8b 83 ac 13 01 00    	mov    0x113ac(%ebx),%eax
  801d10:	85 c0                	test   %eax,%eax
  801d12:	75 1c                	jne    801d30 <VIDEO_Init+0x7a>
  801d14:	6a 08                	push   $0x8
  801d16:	6a 08                	push   $0x8
  801d18:	68 e0 01 00 00       	push   $0x1e0
  801d1d:	68 80 02 00 00       	push   $0x280
  801d22:	e8 12 ff 01 00       	call   821c39 <SDL_SetVideoMode>
  801d27:	83 c4 10             	add    $0x10,%esp
  801d2a:	89 83 ac 13 01 00    	mov    %eax,0x113ac(%ebx)
  801d30:	8b 83 ac 13 01 00    	mov    0x113ac(%ebx),%eax
  801d36:	85 c0                	test   %eax,%eax
  801d38:	75 0a                	jne    801d44 <VIDEO_Init+0x8e>
  801d3a:	b8 ff ff ff ff       	mov    $0xffffffff,%eax
  801d3f:	e9 4f 01 00 00       	jmp    801e93 <VIDEO_Init+0x1dd>
  801d44:	8b 83 ac 13 01 00    	mov    0x113ac(%ebx),%eax
  801d4a:	8b 40 04             	mov    0x4(%eax),%eax
  801d4d:	8b 70 1c             	mov    0x1c(%eax),%esi
  801d50:	8b 83 ac 13 01 00    	mov    0x113ac(%ebx),%eax
  801d56:	8b 40 04             	mov    0x4(%eax),%eax
  801d59:	8b 48 18             	mov    0x18(%eax),%ecx
  801d5c:	8b 83 ac 13 01 00    	mov    0x113ac(%ebx),%eax
  801d62:	8b 40 04             	mov    0x4(%eax),%eax
  801d65:	8b 50 14             	mov    0x14(%eax),%edx
  801d68:	8b 83 ac 13 01 00    	mov    0x113ac(%ebx),%eax
  801d6e:	8b 40 04             	mov    0x4(%eax),%eax
  801d71:	8b 40 10             	mov    0x10(%eax),%eax
  801d74:	8b bb ac 13 01 00    	mov    0x113ac(%ebx),%edi
  801d7a:	8b 3f                	mov    (%edi),%edi
  801d7c:	83 e7 fe             	and    $0xfffffffe,%edi
  801d7f:	56                   	push   %esi
  801d80:	51                   	push   %ecx
  801d81:	52                   	push   %edx
  801d82:	50                   	push   %eax
  801d83:	6a 08                	push   $0x8
  801d85:	68 c8 00 00 00       	push   $0xc8
  801d8a:	68 40 01 00 00       	push   $0x140
  801d8f:	57                   	push   %edi
  801d90:	e8 d4 fc 01 00       	call   821a69 <SDL_CreateRGBSurface>
  801d95:	83 c4 20             	add    $0x20,%esp
  801d98:	89 83 a0 13 01 00    	mov    %eax,0x113a0(%ebx)
  801d9e:	8b 83 ac 13 01 00    	mov    0x113ac(%ebx),%eax
  801da4:	8b 40 04             	mov    0x4(%eax),%eax
  801da7:	8b 70 1c             	mov    0x1c(%eax),%esi
  801daa:	8b 83 ac 13 01 00    	mov    0x113ac(%ebx),%eax
  801db0:	8b 40 04             	mov    0x4(%eax),%eax
  801db3:	8b 48 18             	mov    0x18(%eax),%ecx
  801db6:	8b 83 ac 13 01 00    	mov    0x113ac(%ebx),%eax
  801dbc:	8b 40 04             	mov    0x4(%eax),%eax
  801dbf:	8b 50 14             	mov    0x14(%eax),%edx
  801dc2:	8b 83 ac 13 01 00    	mov    0x113ac(%ebx),%eax
  801dc8:	8b 40 04             	mov    0x4(%eax),%eax
  801dcb:	8b 40 10             	mov    0x10(%eax),%eax
  801dce:	8b bb ac 13 01 00    	mov    0x113ac(%ebx),%edi
  801dd4:	8b 3f                	mov    (%edi),%edi
  801dd6:	83 e7 fe             	and    $0xfffffffe,%edi
  801dd9:	56                   	push   %esi
  801dda:	51                   	push   %ecx
  801ddb:	52                   	push   %edx
  801ddc:	50                   	push   %eax
  801ddd:	6a 08                	push   $0x8
  801ddf:	68 c8 00 00 00       	push   $0xc8
  801de4:	68 40 01 00 00       	push   $0x140
  801de9:	57                   	push   %edi
  801dea:	e8 7a fc 01 00       	call   821a69 <SDL_CreateRGBSurface>
  801def:	83 c4 20             	add    $0x20,%esp
  801df2:	89 83 a4 13 01 00    	mov    %eax,0x113a4(%ebx)
  801df8:	8b 83 a0 13 01 00    	mov    0x113a0(%ebx),%eax
  801dfe:	85 c0                	test   %eax,%eax
  801e00:	74 0a                	je     801e0c <VIDEO_Init+0x156>
  801e02:	8b 83 a4 13 01 00    	mov    0x113a4(%ebx),%eax
  801e08:	85 c0                	test   %eax,%eax
  801e0a:	75 6f                	jne    801e7b <VIDEO_Init+0x1c5>
  801e0c:	8b 83 a0 13 01 00    	mov    0x113a0(%ebx),%eax
  801e12:	85 c0                	test   %eax,%eax
  801e14:	74 1c                	je     801e32 <VIDEO_Init+0x17c>
  801e16:	8b 83 a0 13 01 00    	mov    0x113a0(%ebx),%eax
  801e1c:	83 ec 0c             	sub    $0xc,%esp
  801e1f:	50                   	push   %eax
  801e20:	e8 4e fe 01 00       	call   821c73 <SDL_FreeSurface>
  801e25:	83 c4 10             	add    $0x10,%esp
  801e28:	c7 83 a0 13 01 00 00 	movl   $0x0,0x113a0(%ebx)
  801e2f:	00 00 00 
  801e32:	8b 83 a4 13 01 00    	mov    0x113a4(%ebx),%eax
  801e38:	85 c0                	test   %eax,%eax
  801e3a:	74 1c                	je     801e58 <VIDEO_Init+0x1a2>
  801e3c:	8b 83 a4 13 01 00    	mov    0x113a4(%ebx),%eax
  801e42:	83 ec 0c             	sub    $0xc,%esp
  801e45:	50                   	push   %eax
  801e46:	e8 28 fe 01 00       	call   821c73 <SDL_FreeSurface>
  801e4b:	83 c4 10             	add    $0x10,%esp
  801e4e:	c7 83 a4 13 01 00 00 	movl   $0x0,0x113a4(%ebx)
  801e55:	00 00 00 
  801e58:	8b 83 ac 13 01 00    	mov    0x113ac(%ebx),%eax
  801e5e:	83 ec 0c             	sub    $0xc,%esp
  801e61:	50                   	push   %eax
  801e62:	e8 0c fe 01 00       	call   821c73 <SDL_FreeSurface>
  801e67:	83 c4 10             	add    $0x10,%esp
  801e6a:	c7 83 ac 13 01 00 00 	movl   $0x0,0x113ac(%ebx)
  801e71:	00 00 00 
  801e74:	b8 fe ff ff ff       	mov    $0xfffffffe,%eax
  801e79:	eb 18                	jmp    801e93 <VIDEO_Init+0x1dd>
  801e7b:	83 7d 10 00          	cmpl   $0x0,0x10(%ebp)
  801e7f:	74 0d                	je     801e8e <VIDEO_Init+0x1d8>
  801e81:	83 ec 0c             	sub    $0xc,%esp
  801e84:	6a 00                	push   $0x0
  801e86:	e8 e4 44 01 00       	call   81636f <SDL_ShowCursor>
  801e8b:	83 c4 10             	add    $0x10,%esp
  801e8e:	b8 00 00 00 00       	mov    $0x0,%eax
  801e93:	8d 65 f4             	lea    -0xc(%ebp),%esp
  801e96:	5b                   	pop    %ebx
  801e97:	5e                   	pop    %esi
  801e98:	5f                   	pop    %edi
  801e99:	5d                   	pop    %ebp
  801e9a:	c3                   	ret    

00801e9b <VIDEO_Shutdown>:
  801e9b:	55                   	push   %ebp
  801e9c:	89 e5                	mov    %esp,%ebp
  801e9e:	53                   	push   %ebx
  801e9f:	83 ec 04             	sub    $0x4,%esp
  801ea2:	e8 39 e3 ff ff       	call   8001e0 <__x86.get_pc_thunk.bx>
  801ea7:	81 c3 59 91 04 00    	add    $0x49159,%ebx
  801ead:	8b 83 a0 13 01 00    	mov    0x113a0(%ebx),%eax
  801eb3:	85 c0                	test   %eax,%eax
  801eb5:	74 12                	je     801ec9 <VIDEO_Shutdown+0x2e>
  801eb7:	8b 83 a0 13 01 00    	mov    0x113a0(%ebx),%eax
  801ebd:	83 ec 0c             	sub    $0xc,%esp
  801ec0:	50                   	push   %eax
  801ec1:	e8 ad fd 01 00       	call   821c73 <SDL_FreeSurface>
  801ec6:	83 c4 10             	add    $0x10,%esp
  801ec9:	c7 83 a0 13 01 00 00 	movl   $0x0,0x113a0(%ebx)
  801ed0:	00 00 00 
  801ed3:	8b 83 a4 13 01 00    	mov    0x113a4(%ebx),%eax
  801ed9:	85 c0                	test   %eax,%eax
  801edb:	74 12                	je     801eef <VIDEO_Shutdown+0x54>
  801edd:	8b 83 a4 13 01 00    	mov    0x113a4(%ebx),%eax
  801ee3:	83 ec 0c             	sub    $0xc,%esp
  801ee6:	50                   	push   %eax
  801ee7:	e8 87 fd 01 00       	call   821c73 <SDL_FreeSurface>
  801eec:	83 c4 10             	add    $0x10,%esp
  801eef:	c7 83 a4 13 01 00 00 	movl   $0x0,0x113a4(%ebx)
  801ef6:	00 00 00 
  801ef9:	8b 83 ac 13 01 00    	mov    0x113ac(%ebx),%eax
  801eff:	85 c0                	test   %eax,%eax
  801f01:	74 12                	je     801f15 <VIDEO_Shutdown+0x7a>
  801f03:	8b 83 ac 13 01 00    	mov    0x113ac(%ebx),%eax
  801f09:	83 ec 0c             	sub    $0xc,%esp
  801f0c:	50                   	push   %eax
  801f0d:	e8 61 fd 01 00       	call   821c73 <SDL_FreeSurface>
  801f12:	83 c4 10             	add    $0x10,%esp
  801f15:	c7 83 ac 13 01 00 00 	movl   $0x0,0x113ac(%ebx)
  801f1c:	00 00 00 
  801f1f:	90                   	nop
  801f20:	8b 5d fc             	mov    -0x4(%ebp),%ebx
  801f23:	c9                   	leave  
  801f24:	c3                   	ret    

00801f25 <VIDEO_UpdateScreen>:
  801f25:	55                   	push   %ebp
  801f26:	89 e5                	mov    %esp,%ebp
  801f28:	57                   	push   %edi
  801f29:	56                   	push   %esi
  801f2a:	53                   	push   %ebx
  801f2b:	83 ec 2c             	sub    $0x2c,%esp
  801f2e:	e8 ad e2 ff ff       	call   8001e0 <__x86.get_pc_thunk.bx>
  801f33:	81 c3 cd 90 04 00    	add    $0x490cd,%ebx
  801f39:	66 c7 45 e2 28 00    	movw   $0x28,-0x1e(%ebp)
  801f3f:	8b 83 ac 13 01 00    	mov    0x113ac(%ebx),%eax
  801f45:	8b 40 0c             	mov    0xc(%eax),%eax
  801f48:	66 89 45 e6          	mov    %ax,-0x1a(%ebp)
  801f4c:	66 c7 45 e4 00 00    	movw   $0x0,-0x1c(%ebp)
  801f52:	8b 83 28 04 00 00    	mov    0x428(%ebx),%eax
  801f58:	85 c0                	test   %eax,%eax
  801f5a:	75 23                	jne    801f7f <VIDEO_UpdateScreen+0x5a>
  801f5c:	0f b7 55 e6          	movzwl -0x1a(%ebp),%edx
  801f60:	0f b7 45 e2          	movzwl -0x1e(%ebp),%eax
  801f64:	29 c2                	sub    %eax,%edx
  801f66:	89 d0                	mov    %edx,%eax
  801f68:	66 89 45 e6          	mov    %ax,-0x1a(%ebp)
  801f6c:	0f b7 45 e2          	movzwl -0x1e(%ebp),%eax
  801f70:	89 c2                	mov    %eax,%edx
  801f72:	66 c1 ea 0f          	shr    $0xf,%dx
  801f76:	01 d0                	add    %edx,%eax
  801f78:	66 d1 f8             	sar    %ax
  801f7b:	66 89 45 e4          	mov    %ax,-0x1c(%ebp)
  801f7f:	83 7d 08 00          	cmpl   $0x0,0x8(%ebp)
  801f83:	0f 84 f1 00 00 00    	je     80207a <VIDEO_UpdateScreen+0x155>
  801f89:	8b 45 08             	mov    0x8(%ebp),%eax
  801f8c:	0f b7 00             	movzwl (%eax),%eax
  801f8f:	0f bf d0             	movswl %ax,%edx
  801f92:	8b 83 ac 13 01 00    	mov    0x113ac(%ebx),%eax
  801f98:	8b 40 08             	mov    0x8(%eax),%eax
  801f9b:	0f af c2             	imul   %edx,%eax
  801f9e:	8b 93 a0 13 01 00    	mov    0x113a0(%ebx),%edx
  801fa4:	8b 72 08             	mov    0x8(%edx),%esi
  801fa7:	99                   	cltd   
  801fa8:	f7 fe                	idiv   %esi
  801faa:	66 89 45 d2          	mov    %ax,-0x2e(%ebp)
  801fae:	0f bf 55 e4          	movswl -0x1c(%ebp),%edx
  801fb2:	8b 45 08             	mov    0x8(%ebp),%eax
  801fb5:	0f b7 40 02          	movzwl 0x2(%eax),%eax
  801fb9:	98                   	cwtl   
  801fba:	01 c2                	add    %eax,%edx
  801fbc:	0f bf 45 e6          	movswl -0x1a(%ebp),%eax
  801fc0:	0f af c2             	imul   %edx,%eax
  801fc3:	8b 93 a0 13 01 00    	mov    0x113a0(%ebx),%edx
  801fc9:	8b 7a 0c             	mov    0xc(%edx),%edi
  801fcc:	99                   	cltd   
  801fcd:	f7 ff                	idiv   %edi
  801fcf:	66 89 45 d4          	mov    %ax,-0x2c(%ebp)
  801fd3:	8b 45 08             	mov    0x8(%ebp),%eax
  801fd6:	0f b7 40 04          	movzwl 0x4(%eax),%eax
  801fda:	0f b7 d0             	movzwl %ax,%edx
  801fdd:	8b 83 ac 13 01 00    	mov    0x113ac(%ebx),%eax
  801fe3:	8b 40 08             	mov    0x8(%eax),%eax
  801fe6:	0f af c2             	imul   %edx,%eax
  801fe9:	8b 93 a0 13 01 00    	mov    0x113a0(%ebx),%edx
  801fef:	8b 52 08             	mov    0x8(%edx),%edx
  801ff2:	89 d6                	mov    %edx,%esi
  801ff4:	ba 00 00 00 00       	mov    $0x0,%edx
  801ff9:	f7 f6                	div    %esi
  801ffb:	66 89 45 d6          	mov    %ax,-0x2a(%ebp)
  801fff:	8b 45 08             	mov    0x8(%ebp),%eax
  802002:	0f b7 40 06          	movzwl 0x6(%eax),%eax
  802006:	0f b7 d0             	movzwl %ax,%edx
  802009:	0f bf 45 e6          	movswl -0x1a(%ebp),%eax
  80200d:	0f af c2             	imul   %edx,%eax
  802010:	8b 93 a0 13 01 00    	mov    0x113a0(%ebx),%edx
  802016:	8b 52 0c             	mov    0xc(%edx),%edx
  802019:	89 d7                	mov    %edx,%edi
  80201b:	ba 00 00 00 00       	mov    $0x0,%edx
  802020:	f7 f7                	div    %edi
  802022:	66 89 45 d8          	mov    %ax,-0x28(%ebp)
  802026:	8b 93 ac 13 01 00    	mov    0x113ac(%ebx),%edx
  80202c:	8b 83 a0 13 01 00    	mov    0x113a0(%ebx),%eax
  802032:	8d 4d d2             	lea    -0x2e(%ebp),%ecx
  802035:	51                   	push   %ecx
  802036:	52                   	push   %edx
  802037:	ff 75 08             	pushl  0x8(%ebp)
  80203a:	50                   	push   %eax
  80203b:	e8 aa f8 01 00       	call   8218ea <SDL_SoftStretch>
  802040:	83 c4 10             	add    $0x10,%esp
  802043:	0f b7 45 d8          	movzwl -0x28(%ebp),%eax
  802047:	0f b7 f8             	movzwl %ax,%edi
  80204a:	0f b7 45 d6          	movzwl -0x2a(%ebp),%eax
  80204e:	0f b7 f0             	movzwl %ax,%esi
  802051:	0f b7 45 d4          	movzwl -0x2c(%ebp),%eax
  802055:	0f bf c8             	movswl %ax,%ecx
  802058:	0f b7 45 d2          	movzwl -0x2e(%ebp),%eax
  80205c:	0f bf d0             	movswl %ax,%edx
  80205f:	8b 83 ac 13 01 00    	mov    0x113ac(%ebx),%eax
  802065:	83 ec 0c             	sub    $0xc,%esp
  802068:	57                   	push   %edi
  802069:	56                   	push   %esi
  80206a:	51                   	push   %ecx
  80206b:	52                   	push   %edx
  80206c:	50                   	push   %eax
  80206d:	e8 5f f7 01 00       	call   8217d1 <SDL_UpdateRect>
  802072:	83 c4 20             	add    $0x20,%esp
  802075:	e9 22 02 00 00       	jmp    80229c <VIDEO_UpdateScreen+0x377>
  80207a:	e8 c7 f0 01 00       	call   821146 <incr_nr_draw>
  80207f:	0f b7 83 b0 13 01 00 	movzwl 0x113b0(%ebx),%eax
  802086:	66 85 c0             	test   %ax,%ax
  802089:	0f 84 a4 01 00 00    	je     802233 <VIDEO_UpdateScreen+0x30e>
  80208f:	66 c7 45 da 00 00    	movw   $0x0,-0x26(%ebp)
  802095:	66 c7 45 dc 00 00    	movw   $0x0,-0x24(%ebp)
  80209b:	66 c7 45 de 40 01    	movw   $0x140,-0x22(%ebp)
  8020a1:	0f b7 83 b2 13 01 00 	movzwl 0x113b2(%ebx),%eax
  8020a8:	ba c8 00 00 00       	mov    $0xc8,%edx
  8020ad:	29 c2                	sub    %eax,%edx
  8020af:	89 d0                	mov    %edx,%eax
  8020b1:	66 89 45 e0          	mov    %ax,-0x20(%ebp)
  8020b5:	66 c7 45 d2 00 00    	movw   $0x0,-0x2e(%ebp)
  8020bb:	0f b7 45 e4          	movzwl -0x1c(%ebp),%eax
  8020bf:	66 89 45 d4          	mov    %ax,-0x2c(%ebp)
  8020c3:	8b 83 ac 13 01 00    	mov    0x113ac(%ebx),%eax
  8020c9:	8b 50 08             	mov    0x8(%eax),%edx
  8020cc:	89 d0                	mov    %edx,%eax
  8020ce:	c1 e0 02             	shl    $0x2,%eax
  8020d1:	01 d0                	add    %edx,%eax
  8020d3:	c1 e0 06             	shl    $0x6,%eax
  8020d6:	89 c1                	mov    %eax,%ecx
  8020d8:	8b 83 a0 13 01 00    	mov    0x113a0(%ebx),%eax
  8020de:	8b 70 08             	mov    0x8(%eax),%esi
  8020e1:	89 c8                	mov    %ecx,%eax
  8020e3:	99                   	cltd   
  8020e4:	f7 fe                	idiv   %esi
  8020e6:	66 89 45 d6          	mov    %ax,-0x2a(%ebp)
  8020ea:	0f b7 83 b2 13 01 00 	movzwl 0x113b2(%ebx),%eax
  8020f1:	0f b7 c0             	movzwl %ax,%eax
  8020f4:	ba c8 00 00 00       	mov    $0xc8,%edx
  8020f9:	29 c2                	sub    %eax,%edx
  8020fb:	0f bf 45 e6          	movswl -0x1a(%ebp),%eax
  8020ff:	0f af c2             	imul   %edx,%eax
  802102:	8b 93 a0 13 01 00    	mov    0x113a0(%ebx),%edx
  802108:	8b 7a 0c             	mov    0xc(%edx),%edi
  80210b:	99                   	cltd   
  80210c:	f7 ff                	idiv   %edi
  80210e:	66 89 45 d8          	mov    %ax,-0x28(%ebp)
  802112:	0f b7 83 b0 13 01 00 	movzwl 0x113b0(%ebx),%eax
  802119:	0f b7 c0             	movzwl %ax,%eax
  80211c:	83 e0 01             	and    $0x1,%eax
  80211f:	85 c0                	test   %eax,%eax
  802121:	74 0d                	je     802130 <VIDEO_UpdateScreen+0x20b>
  802123:	0f b7 83 b2 13 01 00 	movzwl 0x113b2(%ebx),%eax
  80212a:	66 89 45 dc          	mov    %ax,-0x24(%ebp)
  80212e:	eb 27                	jmp    802157 <VIDEO_UpdateScreen+0x232>
  802130:	0f bf 55 e4          	movswl -0x1c(%ebp),%edx
  802134:	0f b7 83 b2 13 01 00 	movzwl 0x113b2(%ebx),%eax
  80213b:	0f b7 c0             	movzwl %ax,%eax
  80213e:	01 c2                	add    %eax,%edx
  802140:	0f bf 45 e6          	movswl -0x1a(%ebp),%eax
  802144:	0f af c2             	imul   %edx,%eax
  802147:	8b 93 a0 13 01 00    	mov    0x113a0(%ebx),%edx
  80214d:	8b 72 0c             	mov    0xc(%edx),%esi
  802150:	99                   	cltd   
  802151:	f7 fe                	idiv   %esi
  802153:	66 89 45 d4          	mov    %ax,-0x2c(%ebp)
  802157:	8b 93 ac 13 01 00    	mov    0x113ac(%ebx),%edx
  80215d:	8b 83 a0 13 01 00    	mov    0x113a0(%ebx),%eax
  802163:	8d 4d d2             	lea    -0x2e(%ebp),%ecx
  802166:	51                   	push   %ecx
  802167:	52                   	push   %edx
  802168:	8d 55 da             	lea    -0x26(%ebp),%edx
  80216b:	52                   	push   %edx
  80216c:	50                   	push   %eax
  80216d:	e8 78 f7 01 00       	call   8218ea <SDL_SoftStretch>
  802172:	83 c4 10             	add    $0x10,%esp
  802175:	0f b7 83 b0 13 01 00 	movzwl 0x113b0(%ebx),%eax
  80217c:	0f b7 c0             	movzwl %ax,%eax
  80217f:	83 e0 01             	and    $0x1,%eax
  802182:	85 c0                	test   %eax,%eax
  802184:	74 2f                	je     8021b5 <VIDEO_UpdateScreen+0x290>
  802186:	0f bf 55 e4          	movswl -0x1c(%ebp),%edx
  80218a:	0f bf 45 e6          	movswl -0x1a(%ebp),%eax
  80218e:	01 c2                	add    %eax,%edx
  802190:	0f b7 83 b2 13 01 00 	movzwl 0x113b2(%ebx),%eax
  802197:	0f b7 c0             	movzwl %ax,%eax
  80219a:	29 c2                	sub    %eax,%edx
  80219c:	0f bf 45 e6          	movswl -0x1a(%ebp),%eax
  8021a0:	0f af c2             	imul   %edx,%eax
  8021a3:	8b 93 a0 13 01 00    	mov    0x113a0(%ebx),%edx
  8021a9:	8b 7a 0c             	mov    0xc(%edx),%edi
  8021ac:	99                   	cltd   
  8021ad:	f7 ff                	idiv   %edi
  8021af:	66 89 45 d4          	mov    %ax,-0x2c(%ebp)
  8021b3:	eb 08                	jmp    8021bd <VIDEO_UpdateScreen+0x298>
  8021b5:	0f b7 45 e4          	movzwl -0x1c(%ebp),%eax
  8021b9:	66 89 45 d4          	mov    %ax,-0x2c(%ebp)
  8021bd:	0f b7 83 b2 13 01 00 	movzwl 0x113b2(%ebx),%eax
  8021c4:	0f b7 d0             	movzwl %ax,%edx
  8021c7:	0f bf 45 e6          	movswl -0x1a(%ebp),%eax
  8021cb:	0f af c2             	imul   %edx,%eax
  8021ce:	8b 93 a0 13 01 00    	mov    0x113a0(%ebx),%edx
  8021d4:	8b 72 0c             	mov    0xc(%edx),%esi
  8021d7:	99                   	cltd   
  8021d8:	f7 fe                	idiv   %esi
  8021da:	66 89 45 d8          	mov    %ax,-0x28(%ebp)
  8021de:	8b 83 ac 13 01 00    	mov    0x113ac(%ebx),%eax
  8021e4:	83 ec 04             	sub    $0x4,%esp
  8021e7:	6a 00                	push   $0x0
  8021e9:	8d 55 d2             	lea    -0x2e(%ebp),%edx
  8021ec:	52                   	push   %edx
  8021ed:	50                   	push   %eax
  8021ee:	e8 7f f2 01 00       	call   821472 <SDL_FillRect>
  8021f3:	83 c4 10             	add    $0x10,%esp
  8021f6:	8b 83 ac 13 01 00    	mov    0x113ac(%ebx),%eax
  8021fc:	8b 48 0c             	mov    0xc(%eax),%ecx
  8021ff:	8b 83 ac 13 01 00    	mov    0x113ac(%ebx),%eax
  802205:	8b 50 08             	mov    0x8(%eax),%edx
  802208:	8b 83 ac 13 01 00    	mov    0x113ac(%ebx),%eax
  80220e:	83 ec 0c             	sub    $0xc,%esp
  802211:	51                   	push   %ecx
  802212:	52                   	push   %edx
  802213:	6a 00                	push   $0x0
  802215:	6a 00                	push   $0x0
  802217:	50                   	push   %eax
  802218:	e8 b4 f5 01 00       	call   8217d1 <SDL_UpdateRect>
  80221d:	83 c4 20             	add    $0x20,%esp
  802220:	0f b7 83 b0 13 01 00 	movzwl 0x113b0(%ebx),%eax
  802227:	83 e8 01             	sub    $0x1,%eax
  80222a:	66 89 83 b0 13 01 00 	mov    %ax,0x113b0(%ebx)
  802231:	eb 69                	jmp    80229c <VIDEO_UpdateScreen+0x377>
  802233:	66 c7 45 d2 00 00    	movw   $0x0,-0x2e(%ebp)
  802239:	0f b7 45 e4          	movzwl -0x1c(%ebp),%eax
  80223d:	66 89 45 d4          	mov    %ax,-0x2c(%ebp)
  802241:	8b 83 ac 13 01 00    	mov    0x113ac(%ebx),%eax
  802247:	8b 40 08             	mov    0x8(%eax),%eax
  80224a:	66 89 45 d6          	mov    %ax,-0x2a(%ebp)
  80224e:	0f b7 45 e6          	movzwl -0x1a(%ebp),%eax
  802252:	66 89 45 d8          	mov    %ax,-0x28(%ebp)
  802256:	8b 93 ac 13 01 00    	mov    0x113ac(%ebx),%edx
  80225c:	8b 83 a0 13 01 00    	mov    0x113a0(%ebx),%eax
  802262:	8d 4d d2             	lea    -0x2e(%ebp),%ecx
  802265:	51                   	push   %ecx
  802266:	52                   	push   %edx
  802267:	6a 00                	push   $0x0
  802269:	50                   	push   %eax
  80226a:	e8 7b f6 01 00       	call   8218ea <SDL_SoftStretch>
  80226f:	83 c4 10             	add    $0x10,%esp
  802272:	8b 83 ac 13 01 00    	mov    0x113ac(%ebx),%eax
  802278:	8b 48 0c             	mov    0xc(%eax),%ecx
  80227b:	8b 83 ac 13 01 00    	mov    0x113ac(%ebx),%eax
  802281:	8b 50 08             	mov    0x8(%eax),%edx
  802284:	8b 83 ac 13 01 00    	mov    0x113ac(%ebx),%eax
  80228a:	83 ec 0c             	sub    $0xc,%esp
  80228d:	51                   	push   %ecx
  80228e:	52                   	push   %edx
  80228f:	6a 00                	push   $0x0
  802291:	6a 00                	push   $0x0
  802293:	50                   	push   %eax
  802294:	e8 38 f5 01 00       	call   8217d1 <SDL_UpdateRect>
  802299:	83 c4 20             	add    $0x20,%esp
  80229c:	8d 65 f4             	lea    -0xc(%ebp),%esp
  80229f:	5b                   	pop    %ebx
  8022a0:	5e                   	pop    %esi
  8022a1:	5f                   	pop    %edi
  8022a2:	5d                   	pop    %ebp
  8022a3:	c3                   	ret    

008022a4 <VIDEO_SetPalette>:
  8022a4:	55                   	push   %ebp
  8022a5:	89 e5                	mov    %esp,%ebp
  8022a7:	53                   	push   %ebx
  8022a8:	83 ec 04             	sub    $0x4,%esp
  8022ab:	e8 30 df ff ff       	call   8001e0 <__x86.get_pc_thunk.bx>
  8022b0:	81 c3 50 8d 04 00    	add    $0x48d50,%ebx
  8022b6:	8b 83 a0 13 01 00    	mov    0x113a0(%ebx),%eax
  8022bc:	83 ec 0c             	sub    $0xc,%esp
  8022bf:	68 00 01 00 00       	push   $0x100
  8022c4:	6a 00                	push   $0x0
  8022c6:	ff 75 08             	pushl  0x8(%ebp)
  8022c9:	6a 06                	push   $0x6
  8022cb:	50                   	push   %eax
  8022cc:	e8 e7 f2 01 00       	call   8215b8 <SDL_SetPalette>
  8022d1:	83 c4 20             	add    $0x20,%esp
  8022d4:	8b 83 a4 13 01 00    	mov    0x113a4(%ebx),%eax
  8022da:	83 ec 0c             	sub    $0xc,%esp
  8022dd:	68 00 01 00 00       	push   $0x100
  8022e2:	6a 00                	push   $0x0
  8022e4:	ff 75 08             	pushl  0x8(%ebp)
  8022e7:	6a 06                	push   $0x6
  8022e9:	50                   	push   %eax
  8022ea:	e8 c9 f2 01 00       	call   8215b8 <SDL_SetPalette>
  8022ef:	83 c4 20             	add    $0x20,%esp
  8022f2:	8b 83 ac 13 01 00    	mov    0x113ac(%ebx),%eax
  8022f8:	83 ec 0c             	sub    $0xc,%esp
  8022fb:	68 00 01 00 00       	push   $0x100
  802300:	6a 00                	push   $0x0
  802302:	ff 75 08             	pushl  0x8(%ebp)
  802305:	6a 06                	push   $0x6
  802307:	50                   	push   %eax
  802308:	e8 ab f2 01 00       	call   8215b8 <SDL_SetPalette>
  80230d:	83 c4 20             	add    $0x20,%esp
  802310:	90                   	nop
  802311:	8b 5d fc             	mov    -0x4(%ebp),%ebx
  802314:	c9                   	leave  
  802315:	c3                   	ret    

00802316 <VIDEO_Resize>:
  802316:	55                   	push   %ebp
  802317:	89 e5                	mov    %esp,%ebp
  802319:	53                   	push   %ebx
  80231a:	81 ec 14 04 00 00    	sub    $0x414,%esp
  802320:	e8 bb de ff ff       	call   8001e0 <__x86.get_pc_thunk.bx>
  802325:	81 c3 db 8c 04 00    	add    $0x48cdb,%ebx
  80232b:	c7 45 f4 00 00 00 00 	movl   $0x0,-0xc(%ebp)
  802332:	eb 26                	jmp    80235a <VIDEO_Resize+0x44>
  802334:	8b 83 ac 13 01 00    	mov    0x113ac(%ebx),%eax
  80233a:	8b 40 04             	mov    0x4(%eax),%eax
  80233d:	8b 00                	mov    (%eax),%eax
  80233f:	8b 40 04             	mov    0x4(%eax),%eax
  802342:	8b 55 f4             	mov    -0xc(%ebp),%edx
  802345:	c1 e2 02             	shl    $0x2,%edx
  802348:	01 c2                	add    %eax,%edx
  80234a:	8b 45 f4             	mov    -0xc(%ebp),%eax
  80234d:	8b 12                	mov    (%edx),%edx
  80234f:	89 94 85 f0 fb ff ff 	mov    %edx,-0x410(%ebp,%eax,4)
  802356:	83 45 f4 01          	addl   $0x1,-0xc(%ebp)
  80235a:	8b 83 ac 13 01 00    	mov    0x113ac(%ebx),%eax
  802360:	8b 40 04             	mov    0x4(%eax),%eax
  802363:	8b 00                	mov    (%eax),%eax
  802365:	8b 00                	mov    (%eax),%eax
  802367:	3b 45 f4             	cmp    -0xc(%ebp),%eax
  80236a:	7f c8                	jg     802334 <VIDEO_Resize+0x1e>
  80236c:	8b 83 ac 13 01 00    	mov    0x113ac(%ebx),%eax
  802372:	8b 00                	mov    (%eax),%eax
  802374:	89 45 f0             	mov    %eax,-0x10(%ebp)
  802377:	8b 83 ac 13 01 00    	mov    0x113ac(%ebx),%eax
  80237d:	83 ec 0c             	sub    $0xc,%esp
  802380:	50                   	push   %eax
  802381:	e8 ed f8 01 00       	call   821c73 <SDL_FreeSurface>
  802386:	83 c4 10             	add    $0x10,%esp
  802389:	ff 75 f0             	pushl  -0x10(%ebp)
  80238c:	6a 08                	push   $0x8
  80238e:	ff 75 0c             	pushl  0xc(%ebp)
  802391:	ff 75 08             	pushl  0x8(%ebp)
  802394:	e8 a0 f8 01 00       	call   821c39 <SDL_SetVideoMode>
  802399:	83 c4 10             	add    $0x10,%esp
  80239c:	89 83 ac 13 01 00    	mov    %eax,0x113ac(%ebx)
  8023a2:	8b 83 ac 13 01 00    	mov    0x113ac(%ebx),%eax
  8023a8:	85 c0                	test   %eax,%eax
  8023aa:	75 1c                	jne    8023c8 <VIDEO_Resize+0xb2>
  8023ac:	6a 08                	push   $0x8
  8023ae:	6a 08                	push   $0x8
  8023b0:	68 e0 01 00 00       	push   $0x1e0
  8023b5:	68 80 02 00 00       	push   $0x280
  8023ba:	e8 7a f8 01 00       	call   821c39 <SDL_SetVideoMode>
  8023bf:	83 c4 10             	add    $0x10,%esp
  8023c2:	89 83 ac 13 01 00    	mov    %eax,0x113ac(%ebx)
  8023c8:	8b 83 ac 13 01 00    	mov    0x113ac(%ebx),%eax
  8023ce:	83 ec 0c             	sub    $0xc,%esp
  8023d1:	ff 75 f4             	pushl  -0xc(%ebp)
  8023d4:	6a 00                	push   $0x0
  8023d6:	8d 95 f0 fb ff ff    	lea    -0x410(%ebp),%edx
  8023dc:	52                   	push   %edx
  8023dd:	6a 06                	push   $0x6
  8023df:	50                   	push   %eax
  8023e0:	e8 d3 f1 01 00       	call   8215b8 <SDL_SetPalette>
  8023e5:	83 c4 20             	add    $0x20,%esp
  8023e8:	83 ec 0c             	sub    $0xc,%esp
  8023eb:	6a 00                	push   $0x0
  8023ed:	e8 33 fb ff ff       	call   801f25 <VIDEO_UpdateScreen>
  8023f2:	83 c4 10             	add    $0x10,%esp
  8023f5:	90                   	nop
  8023f6:	8b 5d fc             	mov    -0x4(%ebp),%ebx
  8023f9:	c9                   	leave  
  8023fa:	c3                   	ret    

008023fb <VIDEO_GetPalette>:
  8023fb:	55                   	push   %ebp
  8023fc:	89 e5                	mov    %esp,%ebp
  8023fe:	e8 d9 dd ff ff       	call   8001dc <__x86.get_pc_thunk.ax>
  802403:	05 fd 8b 04 00       	add    $0x48bfd,%eax
  802408:	8b 80 ac 13 01 00    	mov    0x113ac(%eax),%eax
  80240e:	8b 40 04             	mov    0x4(%eax),%eax
  802411:	8b 00                	mov    (%eax),%eax
  802413:	8b 40 04             	mov    0x4(%eax),%eax
  802416:	5d                   	pop    %ebp
  802417:	c3                   	ret    

00802418 <VIDEO_ToggleScaleScreen>:
  802418:	55                   	push   %ebp
  802419:	89 e5                	mov    %esp,%ebp
  80241b:	e8 bc dd ff ff       	call   8001dc <__x86.get_pc_thunk.ax>
  802420:	05 e0 8b 04 00       	add    $0x48be0,%eax
  802425:	90                   	nop
  802426:	5d                   	pop    %ebp
  802427:	c3                   	ret    

00802428 <VIDEO_ToggleFullscreen>:
  802428:	55                   	push   %ebp
  802429:	89 e5                	mov    %esp,%ebp
  80242b:	53                   	push   %ebx
  80242c:	81 ec 14 04 00 00    	sub    $0x414,%esp
  802432:	e8 a9 dd ff ff       	call   8001e0 <__x86.get_pc_thunk.bx>
  802437:	81 c3 c9 8b 04 00    	add    $0x48bc9,%ebx
  80243d:	c7 45 f4 00 00 00 00 	movl   $0x0,-0xc(%ebp)
  802444:	eb 26                	jmp    80246c <VIDEO_ToggleFullscreen+0x44>
  802446:	8b 83 ac 13 01 00    	mov    0x113ac(%ebx),%eax
  80244c:	8b 40 04             	mov    0x4(%eax),%eax
  80244f:	8b 00                	mov    (%eax),%eax
  802451:	8b 40 04             	mov    0x4(%eax),%eax
  802454:	8b 55 f4             	mov    -0xc(%ebp),%edx
  802457:	c1 e2 02             	shl    $0x2,%edx
  80245a:	01 c2                	add    %eax,%edx
  80245c:	8b 45 f4             	mov    -0xc(%ebp),%eax
  80245f:	8b 12                	mov    (%edx),%edx
  802461:	89 94 85 f0 fb ff ff 	mov    %edx,-0x410(%ebp,%eax,4)
  802468:	83 45 f4 01          	addl   $0x1,-0xc(%ebp)
  80246c:	8b 83 ac 13 01 00    	mov    0x113ac(%ebx),%eax
  802472:	8b 40 04             	mov    0x4(%eax),%eax
  802475:	8b 00                	mov    (%eax),%eax
  802477:	8b 00                	mov    (%eax),%eax
  802479:	3b 45 f4             	cmp    -0xc(%ebp),%eax
  80247c:	7f c8                	jg     802446 <VIDEO_ToggleFullscreen+0x1e>
  80247e:	8b 83 ac 13 01 00    	mov    0x113ac(%ebx),%eax
  802484:	8b 00                	mov    (%eax),%eax
  802486:	89 45 f0             	mov    %eax,-0x10(%ebp)
  802489:	83 ec 0c             	sub    $0xc,%esp
  80248c:	6a 00                	push   $0x0
  80248e:	e8 dc 3e 01 00       	call   81636f <SDL_ShowCursor>
  802493:	83 c4 10             	add    $0x10,%esp
  802496:	8b 83 ac 13 01 00    	mov    0x113ac(%ebx),%eax
  80249c:	83 ec 0c             	sub    $0xc,%esp
  80249f:	50                   	push   %eax
  8024a0:	e8 ce f7 01 00       	call   821c73 <SDL_FreeSurface>
  8024a5:	83 c4 10             	add    $0x10,%esp
  8024a8:	0f b7 83 2c 04 00 00 	movzwl 0x42c(%ebx),%eax
  8024af:	66 3d 80 02          	cmp    $0x280,%ax
  8024b3:	75 2c                	jne    8024e1 <VIDEO_ToggleFullscreen+0xb9>
  8024b5:	0f b7 83 2e 04 00 00 	movzwl 0x42e(%ebx),%eax
  8024bc:	66 3d e0 01          	cmp    $0x1e0,%ax
  8024c0:	75 1f                	jne    8024e1 <VIDEO_ToggleFullscreen+0xb9>
  8024c2:	ff 75 f0             	pushl  -0x10(%ebp)
  8024c5:	6a 08                	push   $0x8
  8024c7:	68 90 01 00 00       	push   $0x190
  8024cc:	68 80 02 00 00       	push   $0x280
  8024d1:	e8 63 f7 01 00       	call   821c39 <SDL_SetVideoMode>
  8024d6:	83 c4 10             	add    $0x10,%esp
  8024d9:	89 83 ac 13 01 00    	mov    %eax,0x113ac(%ebx)
  8024df:	eb 29                	jmp    80250a <VIDEO_ToggleFullscreen+0xe2>
  8024e1:	0f b7 83 2e 04 00 00 	movzwl 0x42e(%ebx),%eax
  8024e8:	0f b7 d0             	movzwl %ax,%edx
  8024eb:	0f b7 83 2c 04 00 00 	movzwl 0x42c(%ebx),%eax
  8024f2:	0f b7 c0             	movzwl %ax,%eax
  8024f5:	ff 75 f0             	pushl  -0x10(%ebp)
  8024f8:	6a 08                	push   $0x8
  8024fa:	52                   	push   %edx
  8024fb:	50                   	push   %eax
  8024fc:	e8 38 f7 01 00       	call   821c39 <SDL_SetVideoMode>
  802501:	83 c4 10             	add    $0x10,%esp
  802504:	89 83 ac 13 01 00    	mov    %eax,0x113ac(%ebx)
  80250a:	83 ec 0c             	sub    $0xc,%esp
  80250d:	8d 85 f0 fb ff ff    	lea    -0x410(%ebp),%eax
  802513:	50                   	push   %eax
  802514:	e8 8b fd ff ff       	call   8022a4 <VIDEO_SetPalette>
  802519:	83 c4 10             	add    $0x10,%esp
  80251c:	83 ec 0c             	sub    $0xc,%esp
  80251f:	6a 00                	push   $0x0
  802521:	e8 ff f9 ff ff       	call   801f25 <VIDEO_UpdateScreen>
  802526:	83 c4 10             	add    $0x10,%esp
  802529:	90                   	nop
  80252a:	8b 5d fc             	mov    -0x4(%ebp),%ebx
  80252d:	c9                   	leave  
  80252e:	c3                   	ret    

0080252f <VIDEO_SaveScreenshot>:
  80252f:	55                   	push   %ebp
  802530:	89 e5                	mov    %esp,%ebp
  802532:	53                   	push   %ebx
  802533:	83 ec 14             	sub    $0x14,%esp
  802536:	e8 a5 dc ff ff       	call   8001e0 <__x86.get_pc_thunk.bx>
  80253b:	81 c3 c5 8a 04 00    	add    $0x48ac5,%ebx
  802541:	c7 45 f4 00 00 00 00 	movl   $0x0,-0xc(%ebp)
  802548:	c7 45 f4 00 00 00 00 	movl   $0x0,-0xc(%ebp)
  80254f:	eb 4c                	jmp    80259d <VIDEO_SaveScreenshot+0x6e>
  802551:	83 ec 04             	sub    $0x4,%esp
  802554:	ff 75 f4             	pushl  -0xc(%ebp)
  802557:	8d 83 e8 67 ff ff    	lea    -0x9818(%ebx),%eax
  80255d:	50                   	push   %eax
  80255e:	8d 83 e9 67 ff ff    	lea    -0x9817(%ebx),%eax
  802564:	50                   	push   %eax
  802565:	e8 e9 14 00 00       	call   803a53 <va>
  80256a:	83 c4 10             	add    $0x10,%esp
  80256d:	89 c2                	mov    %eax,%edx
  80256f:	83 ec 08             	sub    $0x8,%esp
  802572:	8d 83 f8 67 ff ff    	lea    -0x9808(%ebx),%eax
  802578:	50                   	push   %eax
  802579:	52                   	push   %edx
  80257a:	e8 c1 e4 02 00       	call   830a40 <fopen>
  80257f:	83 c4 10             	add    $0x10,%esp
  802582:	89 45 f0             	mov    %eax,-0x10(%ebp)
  802585:	83 7d f0 00          	cmpl   $0x0,-0x10(%ebp)
  802589:	74 1d                	je     8025a8 <VIDEO_SaveScreenshot+0x79>
  80258b:	83 ec 0c             	sub    $0xc,%esp
  80258e:	ff 75 f0             	pushl  -0x10(%ebp)
  802591:	e8 ca db 02 00       	call   830160 <fclose>
  802596:	83 c4 10             	add    $0x10,%esp
  802599:	83 45 f4 01          	addl   $0x1,-0xc(%ebp)
  80259d:	81 7d f4 0f 27 00 00 	cmpl   $0x270f,-0xc(%ebp)
  8025a4:	7e ab                	jle    802551 <VIDEO_SaveScreenshot+0x22>
  8025a6:	eb 01                	jmp    8025a9 <VIDEO_SaveScreenshot+0x7a>
  8025a8:	90                   	nop
  8025a9:	81 7d f4 0f 27 00 00 	cmpl   $0x270f,-0xc(%ebp)
  8025b0:	7f 33                	jg     8025e5 <VIDEO_SaveScreenshot+0xb6>
  8025b2:	83 ec 04             	sub    $0x4,%esp
  8025b5:	ff 75 f4             	pushl  -0xc(%ebp)
  8025b8:	8d 83 e8 67 ff ff    	lea    -0x9818(%ebx),%eax
  8025be:	50                   	push   %eax
  8025bf:	8d 83 e9 67 ff ff    	lea    -0x9817(%ebx),%eax
  8025c5:	50                   	push   %eax
  8025c6:	e8 88 14 00 00       	call   803a53 <va>
  8025cb:	83 c4 10             	add    $0x10,%esp
  8025ce:	89 c2                	mov    %eax,%edx
  8025d0:	8b 83 ac 13 01 00    	mov    0x113ac(%ebx),%eax
  8025d6:	83 ec 08             	sub    $0x8,%esp
  8025d9:	52                   	push   %edx
  8025da:	50                   	push   %eax
  8025db:	e8 a3 3d 01 00       	call   816383 <SDL_SaveBMP>
  8025e0:	83 c4 10             	add    $0x10,%esp
  8025e3:	eb 01                	jmp    8025e6 <VIDEO_SaveScreenshot+0xb7>
  8025e5:	90                   	nop
  8025e6:	8b 5d fc             	mov    -0x4(%ebp),%ebx
  8025e9:	c9                   	leave  
  8025ea:	c3                   	ret    

008025eb <VIDEO_BackupScreen>:
  8025eb:	55                   	push   %ebp
  8025ec:	89 e5                	mov    %esp,%ebp
  8025ee:	53                   	push   %ebx
  8025ef:	83 ec 04             	sub    $0x4,%esp
  8025f2:	e8 e5 db ff ff       	call   8001dc <__x86.get_pc_thunk.ax>
  8025f7:	05 09 8a 04 00       	add    $0x48a09,%eax
  8025fc:	8b 88 a4 13 01 00    	mov    0x113a4(%eax),%ecx
  802602:	8b 90 a0 13 01 00    	mov    0x113a0(%eax),%edx
  802608:	6a 00                	push   $0x0
  80260a:	51                   	push   %ecx
  80260b:	6a 00                	push   $0x0
  80260d:	52                   	push   %edx
  80260e:	89 c3                	mov    %eax,%ebx
  802610:	e8 1f ec 01 00       	call   821234 <SDL_BlitSurface>
  802615:	83 c4 10             	add    $0x10,%esp
  802618:	90                   	nop
  802619:	8b 5d fc             	mov    -0x4(%ebp),%ebx
  80261c:	c9                   	leave  
  80261d:	c3                   	ret    

0080261e <VIDEO_RestoreScreen>:
  80261e:	55                   	push   %ebp
  80261f:	89 e5                	mov    %esp,%ebp
  802621:	53                   	push   %ebx
  802622:	83 ec 04             	sub    $0x4,%esp
  802625:	e8 b2 db ff ff       	call   8001dc <__x86.get_pc_thunk.ax>
  80262a:	05 d6 89 04 00       	add    $0x489d6,%eax
  80262f:	8b 88 a0 13 01 00    	mov    0x113a0(%eax),%ecx
  802635:	8b 90 a4 13 01 00    	mov    0x113a4(%eax),%edx
  80263b:	6a 00                	push   $0x0
  80263d:	51                   	push   %ecx
  80263e:	6a 00                	push   $0x0
  802640:	52                   	push   %edx
  802641:	89 c3                	mov    %eax,%ebx
  802643:	e8 ec eb 01 00       	call   821234 <SDL_BlitSurface>
  802648:	83 c4 10             	add    $0x10,%esp
  80264b:	90                   	nop
  80264c:	8b 5d fc             	mov    -0x4(%ebp),%ebx
  80264f:	c9                   	leave  
  802650:	c3                   	ret    

00802651 <VIDEO_ShakeScreen>:
  802651:	55                   	push   %ebp
  802652:	89 e5                	mov    %esp,%ebp
  802654:	83 ec 08             	sub    $0x8,%esp
  802657:	e8 80 db ff ff       	call   8001dc <__x86.get_pc_thunk.ax>
  80265c:	05 a4 89 04 00       	add    $0x489a4,%eax
  802661:	8b 4d 08             	mov    0x8(%ebp),%ecx
  802664:	8b 55 0c             	mov    0xc(%ebp),%edx
  802667:	66 89 4d fc          	mov    %cx,-0x4(%ebp)
  80266b:	66 89 55 f8          	mov    %dx,-0x8(%ebp)
  80266f:	0f b7 55 fc          	movzwl -0x4(%ebp),%edx
  802673:	66 89 90 b0 13 01 00 	mov    %dx,0x113b0(%eax)
  80267a:	0f b7 55 f8          	movzwl -0x8(%ebp),%edx
  80267e:	66 89 90 b2 13 01 00 	mov    %dx,0x113b2(%eax)
  802685:	90                   	nop
  802686:	c9                   	leave  
  802687:	c3                   	ret    

00802688 <VIDEO_SwitchScreen>:
  802688:	55                   	push   %ebp
  802689:	89 e5                	mov    %esp,%ebp
  80268b:	53                   	push   %ebx
  80268c:	83 ec 44             	sub    $0x44,%esp
  80268f:	e8 4c db ff ff       	call   8001e0 <__x86.get_pc_thunk.bx>
  802694:	81 c3 6c 89 04 00    	add    $0x4896c,%ebx
  80269a:	8b 45 08             	mov    0x8(%ebp),%eax
  80269d:	66 89 45 c4          	mov    %ax,-0x3c(%ebp)
  8026a1:	c7 45 d0 00 00 00 00 	movl   $0x0,-0x30(%ebp)
  8026a8:	c7 45 d4 03 00 00 00 	movl   $0x3,-0x2c(%ebp)
  8026af:	c7 45 d8 01 00 00 00 	movl   $0x1,-0x28(%ebp)
  8026b6:	c7 45 dc 05 00 00 00 	movl   $0x5,-0x24(%ebp)
  8026bd:	c7 45 e0 02 00 00 00 	movl   $0x2,-0x20(%ebp)
  8026c4:	c7 45 e4 04 00 00 00 	movl   $0x4,-0x1c(%ebp)
  8026cb:	66 c7 45 ea 28 00    	movw   $0x28,-0x16(%ebp)
  8026d1:	8b 83 ac 13 01 00    	mov    0x113ac(%ebx),%eax
  8026d7:	8b 40 0c             	mov    0xc(%eax),%eax
  8026da:	66 89 45 ee          	mov    %ax,-0x12(%ebp)
  8026de:	66 c7 45 ec 00 00    	movw   $0x0,-0x14(%ebp)
  8026e4:	8b 83 28 04 00 00    	mov    0x428(%ebx),%eax
  8026ea:	85 c0                	test   %eax,%eax
  8026ec:	75 23                	jne    802711 <VIDEO_SwitchScreen+0x89>
  8026ee:	0f b7 55 ee          	movzwl -0x12(%ebp),%edx
  8026f2:	0f b7 45 ea          	movzwl -0x16(%ebp),%eax
  8026f6:	29 c2                	sub    %eax,%edx
  8026f8:	89 d0                	mov    %edx,%eax
  8026fa:	66 89 45 ee          	mov    %ax,-0x12(%ebp)
  8026fe:	0f b7 45 ea          	movzwl -0x16(%ebp),%eax
  802702:	89 c2                	mov    %eax,%edx
  802704:	66 c1 ea 0f          	shr    $0xf,%dx
  802708:	01 d0                	add    %edx,%eax
  80270a:	66 d1 f8             	sar    %ax
  80270d:	66 89 45 ec          	mov    %ax,-0x14(%ebp)
  802711:	0f b7 45 c4          	movzwl -0x3c(%ebp),%eax
  802715:	83 c0 01             	add    $0x1,%eax
  802718:	66 89 45 c4          	mov    %ax,-0x3c(%ebp)
  80271c:	0f b7 55 c4          	movzwl -0x3c(%ebp),%edx
  802720:	89 d0                	mov    %edx,%eax
  802722:	c1 e0 02             	shl    $0x2,%eax
  802725:	01 d0                	add    %edx,%eax
  802727:	01 c0                	add    %eax,%eax
  802729:	66 89 45 c4          	mov    %ax,-0x3c(%ebp)
  80272d:	c7 45 f4 00 00 00 00 	movl   $0x0,-0xc(%ebp)
  802734:	e9 cc 00 00 00       	jmp    802805 <VIDEO_SwitchScreen+0x17d>
  802739:	8b 45 f4             	mov    -0xc(%ebp),%eax
  80273c:	8b 44 85 d0          	mov    -0x30(%ebp,%eax,4),%eax
  802740:	89 45 f0             	mov    %eax,-0x10(%ebp)
  802743:	eb 25                	jmp    80276a <VIDEO_SwitchScreen+0xe2>
  802745:	8b 83 a4 13 01 00    	mov    0x113a4(%ebx),%eax
  80274b:	8b 50 20             	mov    0x20(%eax),%edx
  80274e:	8b 45 f0             	mov    -0x10(%ebp),%eax
  802751:	01 c2                	add    %eax,%edx
  802753:	8b 83 a0 13 01 00    	mov    0x113a0(%ebx),%eax
  802759:	8b 48 20             	mov    0x20(%eax),%ecx
  80275c:	8b 45 f0             	mov    -0x10(%ebp),%eax
  80275f:	01 c8                	add    %ecx,%eax
  802761:	0f b6 00             	movzbl (%eax),%eax
  802764:	88 02                	mov    %al,(%edx)
  802766:	83 45 f0 06          	addl   $0x6,-0x10(%ebp)
  80276a:	8b 83 a0 13 01 00    	mov    0x113a0(%ebx),%eax
  802770:	0f b7 40 10          	movzwl 0x10(%eax),%eax
  802774:	0f b7 d0             	movzwl %ax,%edx
  802777:	8b 83 a0 13 01 00    	mov    0x113a0(%ebx),%eax
  80277d:	8b 40 0c             	mov    0xc(%eax),%eax
  802780:	0f af c2             	imul   %edx,%eax
  802783:	3b 45 f0             	cmp    -0x10(%ebp),%eax
  802786:	7f bd                	jg     802745 <VIDEO_SwitchScreen+0xbd>
  802788:	66 c7 45 c8 00 00    	movw   $0x0,-0x38(%ebp)
  80278e:	0f b7 45 ec          	movzwl -0x14(%ebp),%eax
  802792:	66 89 45 ca          	mov    %ax,-0x36(%ebp)
  802796:	8b 83 ac 13 01 00    	mov    0x113ac(%ebx),%eax
  80279c:	8b 40 08             	mov    0x8(%eax),%eax
  80279f:	66 89 45 cc          	mov    %ax,-0x34(%ebp)
  8027a3:	0f b7 45 ee          	movzwl -0x12(%ebp),%eax
  8027a7:	66 89 45 ce          	mov    %ax,-0x32(%ebp)
  8027ab:	8b 93 ac 13 01 00    	mov    0x113ac(%ebx),%edx
  8027b1:	8b 83 a4 13 01 00    	mov    0x113a4(%ebx),%eax
  8027b7:	8d 4d c8             	lea    -0x38(%ebp),%ecx
  8027ba:	51                   	push   %ecx
  8027bb:	52                   	push   %edx
  8027bc:	6a 00                	push   $0x0
  8027be:	50                   	push   %eax
  8027bf:	e8 26 f1 01 00       	call   8218ea <SDL_SoftStretch>
  8027c4:	83 c4 10             	add    $0x10,%esp
  8027c7:	8b 83 ac 13 01 00    	mov    0x113ac(%ebx),%eax
  8027cd:	8b 48 0c             	mov    0xc(%eax),%ecx
  8027d0:	8b 83 ac 13 01 00    	mov    0x113ac(%ebx),%eax
  8027d6:	8b 50 08             	mov    0x8(%eax),%edx
  8027d9:	8b 83 ac 13 01 00    	mov    0x113ac(%ebx),%eax
  8027df:	83 ec 0c             	sub    $0xc,%esp
  8027e2:	51                   	push   %ecx
  8027e3:	52                   	push   %edx
  8027e4:	6a 00                	push   $0x0
  8027e6:	6a 00                	push   $0x0
  8027e8:	50                   	push   %eax
  8027e9:	e8 e3 ef 01 00       	call   8217d1 <SDL_UpdateRect>
  8027ee:	83 c4 20             	add    $0x20,%esp
  8027f1:	0f b7 45 c4          	movzwl -0x3c(%ebp),%eax
  8027f5:	83 ec 0c             	sub    $0xc,%esp
  8027f8:	50                   	push   %eax
  8027f9:	e8 bb 13 00 00       	call   803bb9 <UTIL_Delay>
  8027fe:	83 c4 10             	add    $0x10,%esp
  802801:	83 45 f4 01          	addl   $0x1,-0xc(%ebp)
  802805:	83 7d f4 05          	cmpl   $0x5,-0xc(%ebp)
  802809:	0f 8e 2a ff ff ff    	jle    802739 <VIDEO_SwitchScreen+0xb1>
  80280f:	90                   	nop
  802810:	8b 5d fc             	mov    -0x4(%ebp),%ebx
  802813:	c9                   	leave  
  802814:	c3                   	ret    

00802815 <VIDEO_FadeScreen>:
  802815:	55                   	push   %ebp
  802816:	89 e5                	mov    %esp,%ebp
  802818:	56                   	push   %esi
  802819:	53                   	push   %ebx
  80281a:	83 ec 60             	sub    $0x60,%esp
  80281d:	e8 be d9 ff ff       	call   8001e0 <__x86.get_pc_thunk.bx>
  802822:	81 c3 de 87 04 00    	add    $0x487de,%ebx
  802828:	8b 45 08             	mov    0x8(%ebp),%eax
  80282b:	66 89 45 a4          	mov    %ax,-0x5c(%ebp)
  80282f:	c7 45 c4 00 00 00 00 	movl   $0x0,-0x3c(%ebp)
  802836:	c7 45 c8 03 00 00 00 	movl   $0x3,-0x38(%ebp)
  80283d:	c7 45 cc 01 00 00 00 	movl   $0x1,-0x34(%ebp)
  802844:	c7 45 d0 05 00 00 00 	movl   $0x5,-0x30(%ebp)
  80284b:	c7 45 d4 02 00 00 00 	movl   $0x2,-0x2c(%ebp)
  802852:	c7 45 d8 04 00 00 00 	movl   $0x4,-0x28(%ebp)
  802859:	66 c7 45 e0 28 00    	movw   $0x28,-0x20(%ebp)
  80285f:	8b 83 ac 13 01 00    	mov    0x113ac(%ebx),%eax
  802865:	8b 40 0c             	mov    0xc(%eax),%eax
  802868:	66 89 45 e4          	mov    %ax,-0x1c(%ebp)
  80286c:	66 c7 45 e2 00 00    	movw   $0x0,-0x1e(%ebp)
  802872:	8b 83 28 04 00 00    	mov    0x428(%ebx),%eax
  802878:	85 c0                	test   %eax,%eax
  80287a:	75 23                	jne    80289f <VIDEO_FadeScreen+0x8a>
  80287c:	0f b7 55 e4          	movzwl -0x1c(%ebp),%edx
  802880:	0f b7 45 e0          	movzwl -0x20(%ebp),%eax
  802884:	29 c2                	sub    %eax,%edx
  802886:	89 d0                	mov    %edx,%eax
  802888:	66 89 45 e4          	mov    %ax,-0x1c(%ebp)
  80288c:	0f b7 45 e0          	movzwl -0x20(%ebp),%eax
  802890:	89 c2                	mov    %eax,%edx
  802892:	66 c1 ea 0f          	shr    $0xf,%dx
  802896:	01 d0                	add    %edx,%eax
  802898:	66 d1 f8             	sar    %ax
  80289b:	66 89 45 e2          	mov    %ax,-0x1e(%ebp)
  80289f:	e8 32 e9 01 00       	call   8211d6 <SDL_GetTicks>
  8028a4:	89 45 e8             	mov    %eax,-0x18(%ebp)
  8028a7:	0f b7 45 a4          	movzwl -0x5c(%ebp),%eax
  8028ab:	83 c0 01             	add    $0x1,%eax
  8028ae:	66 89 45 a4          	mov    %ax,-0x5c(%ebp)
  8028b2:	0f b7 55 a4          	movzwl -0x5c(%ebp),%edx
  8028b6:	89 d0                	mov    %edx,%eax
  8028b8:	c1 e0 02             	shl    $0x2,%eax
  8028bb:	01 d0                	add    %edx,%eax
  8028bd:	01 c0                	add    %eax,%eax
  8028bf:	66 89 45 a4          	mov    %ax,-0x5c(%ebp)
  8028c3:	c7 45 f4 00 00 00 00 	movl   $0x0,-0xc(%ebp)
  8028ca:	e9 31 03 00 00       	jmp    802c00 <VIDEO_FadeScreen+0x3eb>
  8028cf:	c7 45 f0 00 00 00 00 	movl   $0x0,-0x10(%ebp)
  8028d6:	e9 17 03 00 00       	jmp    802bf2 <VIDEO_FadeScreen+0x3dd>
  8028db:	e8 7d f3 ff ff       	call   801c5d <PAL_ProcessEvent>
  8028e0:	eb 12                	jmp    8028f4 <VIDEO_FadeScreen+0xdf>
  8028e2:	e8 76 f3 ff ff       	call   801c5d <PAL_ProcessEvent>
  8028e7:	83 ec 0c             	sub    $0xc,%esp
  8028ea:	6a 05                	push   $0x5
  8028ec:	e8 03 e9 01 00       	call   8211f4 <SDL_Delay>
  8028f1:	83 c4 10             	add    $0x10,%esp
  8028f4:	e8 dd e8 01 00       	call   8211d6 <SDL_GetTicks>
  8028f9:	3b 45 e8             	cmp    -0x18(%ebp),%eax
  8028fc:	76 e4                	jbe    8028e2 <VIDEO_FadeScreen+0xcd>
  8028fe:	e8 d3 e8 01 00       	call   8211d6 <SDL_GetTicks>
  802903:	89 c2                	mov    %eax,%edx
  802905:	0f b7 45 a4          	movzwl -0x5c(%ebp),%eax
  802909:	01 d0                	add    %edx,%eax
  80290b:	89 45 e8             	mov    %eax,-0x18(%ebp)
  80290e:	8b 45 f0             	mov    -0x10(%ebp),%eax
  802911:	8b 44 85 c4          	mov    -0x3c(%ebp,%eax,4),%eax
  802915:	89 45 ec             	mov    %eax,-0x14(%ebp)
  802918:	e9 92 00 00 00       	jmp    8029af <VIDEO_FadeScreen+0x19a>
  80291d:	8b 83 a0 13 01 00    	mov    0x113a0(%ebx),%eax
  802923:	8b 50 20             	mov    0x20(%eax),%edx
  802926:	8b 45 ec             	mov    -0x14(%ebp),%eax
  802929:	01 d0                	add    %edx,%eax
  80292b:	0f b6 00             	movzbl (%eax),%eax
  80292e:	88 45 df             	mov    %al,-0x21(%ebp)
  802931:	8b 83 a4 13 01 00    	mov    0x113a4(%ebx),%eax
  802937:	8b 50 20             	mov    0x20(%eax),%edx
  80293a:	8b 45 ec             	mov    -0x14(%ebp),%eax
  80293d:	01 d0                	add    %edx,%eax
  80293f:	0f b6 00             	movzbl (%eax),%eax
  802942:	88 45 e7             	mov    %al,-0x19(%ebp)
  802945:	83 7d f4 00          	cmpl   $0x0,-0xc(%ebp)
  802949:	7e 3e                	jle    802989 <VIDEO_FadeScreen+0x174>
  80294b:	0f b6 45 df          	movzbl -0x21(%ebp),%eax
  80294f:	83 e0 0f             	and    $0xf,%eax
  802952:	89 c2                	mov    %eax,%edx
  802954:	0f b6 45 e7          	movzbl -0x19(%ebp),%eax
  802958:	83 e0 0f             	and    $0xf,%eax
  80295b:	39 c2                	cmp    %eax,%edx
  80295d:	7e 0c                	jle    80296b <VIDEO_FadeScreen+0x156>
  80295f:	0f b6 45 e7          	movzbl -0x19(%ebp),%eax
  802963:	83 c0 01             	add    $0x1,%eax
  802966:	88 45 e7             	mov    %al,-0x19(%ebp)
  802969:	eb 1e                	jmp    802989 <VIDEO_FadeScreen+0x174>
  80296b:	0f b6 45 df          	movzbl -0x21(%ebp),%eax
  80296f:	83 e0 0f             	and    $0xf,%eax
  802972:	89 c2                	mov    %eax,%edx
  802974:	0f b6 45 e7          	movzbl -0x19(%ebp),%eax
  802978:	83 e0 0f             	and    $0xf,%eax
  80297b:	39 c2                	cmp    %eax,%edx
  80297d:	7d 0a                	jge    802989 <VIDEO_FadeScreen+0x174>
  80297f:	0f b6 45 e7          	movzbl -0x19(%ebp),%eax
  802983:	83 e8 01             	sub    $0x1,%eax
  802986:	88 45 e7             	mov    %al,-0x19(%ebp)
  802989:	8b 83 a4 13 01 00    	mov    0x113a4(%ebx),%eax
  80298f:	8b 50 20             	mov    0x20(%eax),%edx
  802992:	8b 45 ec             	mov    -0x14(%ebp),%eax
  802995:	01 d0                	add    %edx,%eax
  802997:	0f b6 55 df          	movzbl -0x21(%ebp),%edx
  80299b:	89 d1                	mov    %edx,%ecx
  80299d:	83 e1 f0             	and    $0xfffffff0,%ecx
  8029a0:	0f b6 55 e7          	movzbl -0x19(%ebp),%edx
  8029a4:	83 e2 0f             	and    $0xf,%edx
  8029a7:	09 ca                	or     %ecx,%edx
  8029a9:	88 10                	mov    %dl,(%eax)
  8029ab:	83 45 ec 06          	addl   $0x6,-0x14(%ebp)
  8029af:	8b 83 a0 13 01 00    	mov    0x113a0(%ebx),%eax
  8029b5:	0f b7 40 10          	movzwl 0x10(%eax),%eax
  8029b9:	0f b7 d0             	movzwl %ax,%edx
  8029bc:	8b 83 a0 13 01 00    	mov    0x113a0(%ebx),%eax
  8029c2:	8b 40 0c             	mov    0xc(%eax),%eax
  8029c5:	0f af c2             	imul   %edx,%eax
  8029c8:	3b 45 ec             	cmp    -0x14(%ebp),%eax
  8029cb:	0f 8f 4c ff ff ff    	jg     80291d <VIDEO_FadeScreen+0x108>
  8029d1:	0f b7 83 b0 13 01 00 	movzwl 0x113b0(%ebx),%eax
  8029d8:	66 85 c0             	test   %ax,%ax
  8029db:	0f 84 a4 01 00 00    	je     802b85 <VIDEO_FadeScreen+0x370>
  8029e1:	66 c7 45 b4 00 00    	movw   $0x0,-0x4c(%ebp)
  8029e7:	66 c7 45 b6 00 00    	movw   $0x0,-0x4a(%ebp)
  8029ed:	66 c7 45 b8 40 01    	movw   $0x140,-0x48(%ebp)
  8029f3:	0f b7 83 b2 13 01 00 	movzwl 0x113b2(%ebx),%eax
  8029fa:	ba c8 00 00 00       	mov    $0xc8,%edx
  8029ff:	29 c2                	sub    %eax,%edx
  802a01:	89 d0                	mov    %edx,%eax
  802a03:	66 89 45 ba          	mov    %ax,-0x46(%ebp)
  802a07:	66 c7 45 ac 00 00    	movw   $0x0,-0x54(%ebp)
  802a0d:	0f b7 45 e2          	movzwl -0x1e(%ebp),%eax
  802a11:	66 89 45 ae          	mov    %ax,-0x52(%ebp)
  802a15:	8b 83 ac 13 01 00    	mov    0x113ac(%ebx),%eax
  802a1b:	8b 50 08             	mov    0x8(%eax),%edx
  802a1e:	89 d0                	mov    %edx,%eax
  802a20:	c1 e0 02             	shl    $0x2,%eax
  802a23:	01 d0                	add    %edx,%eax
  802a25:	c1 e0 06             	shl    $0x6,%eax
  802a28:	89 c1                	mov    %eax,%ecx
  802a2a:	8b 83 a0 13 01 00    	mov    0x113a0(%ebx),%eax
  802a30:	8b 70 08             	mov    0x8(%eax),%esi
  802a33:	89 c8                	mov    %ecx,%eax
  802a35:	99                   	cltd   
  802a36:	f7 fe                	idiv   %esi
  802a38:	66 89 45 b0          	mov    %ax,-0x50(%ebp)
  802a3c:	0f b7 83 b2 13 01 00 	movzwl 0x113b2(%ebx),%eax
  802a43:	0f b7 c0             	movzwl %ax,%eax
  802a46:	ba c8 00 00 00       	mov    $0xc8,%edx
  802a4b:	29 c2                	sub    %eax,%edx
  802a4d:	0f bf 45 e4          	movswl -0x1c(%ebp),%eax
  802a51:	0f af c2             	imul   %edx,%eax
  802a54:	8b 93 a0 13 01 00    	mov    0x113a0(%ebx),%edx
  802a5a:	8b 72 0c             	mov    0xc(%edx),%esi
  802a5d:	99                   	cltd   
  802a5e:	f7 fe                	idiv   %esi
  802a60:	66 89 45 b2          	mov    %ax,-0x4e(%ebp)
  802a64:	0f b7 83 b0 13 01 00 	movzwl 0x113b0(%ebx),%eax
  802a6b:	0f b7 c0             	movzwl %ax,%eax
  802a6e:	83 e0 01             	and    $0x1,%eax
  802a71:	85 c0                	test   %eax,%eax
  802a73:	74 0d                	je     802a82 <VIDEO_FadeScreen+0x26d>
  802a75:	0f b7 83 b2 13 01 00 	movzwl 0x113b2(%ebx),%eax
  802a7c:	66 89 45 b6          	mov    %ax,-0x4a(%ebp)
  802a80:	eb 27                	jmp    802aa9 <VIDEO_FadeScreen+0x294>
  802a82:	0f bf 55 e2          	movswl -0x1e(%ebp),%edx
  802a86:	0f b7 83 b2 13 01 00 	movzwl 0x113b2(%ebx),%eax
  802a8d:	0f b7 c0             	movzwl %ax,%eax
  802a90:	01 c2                	add    %eax,%edx
  802a92:	0f bf 45 e4          	movswl -0x1c(%ebp),%eax
  802a96:	0f af c2             	imul   %edx,%eax
  802a99:	8b 93 a0 13 01 00    	mov    0x113a0(%ebx),%edx
  802a9f:	8b 72 0c             	mov    0xc(%edx),%esi
  802aa2:	99                   	cltd   
  802aa3:	f7 fe                	idiv   %esi
  802aa5:	66 89 45 ae          	mov    %ax,-0x52(%ebp)
  802aa9:	8b 93 ac 13 01 00    	mov    0x113ac(%ebx),%edx
  802aaf:	8b 83 a4 13 01 00    	mov    0x113a4(%ebx),%eax
  802ab5:	8d 4d ac             	lea    -0x54(%ebp),%ecx
  802ab8:	51                   	push   %ecx
  802ab9:	52                   	push   %edx
  802aba:	8d 55 b4             	lea    -0x4c(%ebp),%edx
  802abd:	52                   	push   %edx
  802abe:	50                   	push   %eax
  802abf:	e8 26 ee 01 00       	call   8218ea <SDL_SoftStretch>
  802ac4:	83 c4 10             	add    $0x10,%esp
  802ac7:	0f b7 83 b0 13 01 00 	movzwl 0x113b0(%ebx),%eax
  802ace:	0f b7 c0             	movzwl %ax,%eax
  802ad1:	83 e0 01             	and    $0x1,%eax
  802ad4:	85 c0                	test   %eax,%eax
  802ad6:	74 2f                	je     802b07 <VIDEO_FadeScreen+0x2f2>
  802ad8:	0f bf 55 e2          	movswl -0x1e(%ebp),%edx
  802adc:	0f bf 45 e4          	movswl -0x1c(%ebp),%eax
  802ae0:	01 c2                	add    %eax,%edx
  802ae2:	0f b7 83 b2 13 01 00 	movzwl 0x113b2(%ebx),%eax
  802ae9:	0f b7 c0             	movzwl %ax,%eax
  802aec:	29 c2                	sub    %eax,%edx
  802aee:	0f bf 45 e4          	movswl -0x1c(%ebp),%eax
  802af2:	0f af c2             	imul   %edx,%eax
  802af5:	8b 93 a0 13 01 00    	mov    0x113a0(%ebx),%edx
  802afb:	8b 72 0c             	mov    0xc(%edx),%esi
  802afe:	99                   	cltd   
  802aff:	f7 fe                	idiv   %esi
  802b01:	66 89 45 ae          	mov    %ax,-0x52(%ebp)
  802b05:	eb 08                	jmp    802b0f <VIDEO_FadeScreen+0x2fa>
  802b07:	0f b7 45 e2          	movzwl -0x1e(%ebp),%eax
  802b0b:	66 89 45 ae          	mov    %ax,-0x52(%ebp)
  802b0f:	0f b7 83 b2 13 01 00 	movzwl 0x113b2(%ebx),%eax
  802b16:	0f b7 d0             	movzwl %ax,%edx
  802b19:	0f bf 45 e4          	movswl -0x1c(%ebp),%eax
  802b1d:	0f af c2             	imul   %edx,%eax
  802b20:	8b 93 a0 13 01 00    	mov    0x113a0(%ebx),%edx
  802b26:	8b 72 0c             	mov    0xc(%edx),%esi
  802b29:	99                   	cltd   
  802b2a:	f7 fe                	idiv   %esi
  802b2c:	66 89 45 b2          	mov    %ax,-0x4e(%ebp)
  802b30:	8b 83 ac 13 01 00    	mov    0x113ac(%ebx),%eax
  802b36:	83 ec 04             	sub    $0x4,%esp
  802b39:	6a 00                	push   $0x0
  802b3b:	8d 55 ac             	lea    -0x54(%ebp),%edx
  802b3e:	52                   	push   %edx
  802b3f:	50                   	push   %eax
  802b40:	e8 2d e9 01 00       	call   821472 <SDL_FillRect>
  802b45:	83 c4 10             	add    $0x10,%esp
  802b48:	8b 83 ac 13 01 00    	mov    0x113ac(%ebx),%eax
  802b4e:	8b 48 0c             	mov    0xc(%eax),%ecx
  802b51:	8b 83 ac 13 01 00    	mov    0x113ac(%ebx),%eax
  802b57:	8b 50 08             	mov    0x8(%eax),%edx
  802b5a:	8b 83 ac 13 01 00    	mov    0x113ac(%ebx),%eax
  802b60:	83 ec 0c             	sub    $0xc,%esp
  802b63:	51                   	push   %ecx
  802b64:	52                   	push   %edx
  802b65:	6a 00                	push   $0x0
  802b67:	6a 00                	push   $0x0
  802b69:	50                   	push   %eax
  802b6a:	e8 62 ec 01 00       	call   8217d1 <SDL_UpdateRect>
  802b6f:	83 c4 20             	add    $0x20,%esp
  802b72:	0f b7 83 b0 13 01 00 	movzwl 0x113b0(%ebx),%eax
  802b79:	83 e8 01             	sub    $0x1,%eax
  802b7c:	66 89 83 b0 13 01 00 	mov    %ax,0x113b0(%ebx)
  802b83:	eb 69                	jmp    802bee <VIDEO_FadeScreen+0x3d9>
  802b85:	66 c7 45 bc 00 00    	movw   $0x0,-0x44(%ebp)
  802b8b:	0f b7 45 e2          	movzwl -0x1e(%ebp),%eax
  802b8f:	66 89 45 be          	mov    %ax,-0x42(%ebp)
  802b93:	8b 83 ac 13 01 00    	mov    0x113ac(%ebx),%eax
  802b99:	8b 40 08             	mov    0x8(%eax),%eax
  802b9c:	66 89 45 c0          	mov    %ax,-0x40(%ebp)
  802ba0:	0f b7 45 e4          	movzwl -0x1c(%ebp),%eax
  802ba4:	66 89 45 c2          	mov    %ax,-0x3e(%ebp)
  802ba8:	8b 93 ac 13 01 00    	mov    0x113ac(%ebx),%edx
  802bae:	8b 83 a4 13 01 00    	mov    0x113a4(%ebx),%eax
  802bb4:	8d 4d bc             	lea    -0x44(%ebp),%ecx
  802bb7:	51                   	push   %ecx
  802bb8:	52                   	push   %edx
  802bb9:	6a 00                	push   $0x0
  802bbb:	50                   	push   %eax
  802bbc:	e8 29 ed 01 00       	call   8218ea <SDL_SoftStretch>
  802bc1:	83 c4 10             	add    $0x10,%esp
  802bc4:	8b 83 ac 13 01 00    	mov    0x113ac(%ebx),%eax
  802bca:	8b 48 0c             	mov    0xc(%eax),%ecx
  802bcd:	8b 83 ac 13 01 00    	mov    0x113ac(%ebx),%eax
  802bd3:	8b 50 08             	mov    0x8(%eax),%edx
  802bd6:	8b 83 ac 13 01 00    	mov    0x113ac(%ebx),%eax
  802bdc:	83 ec 0c             	sub    $0xc,%esp
  802bdf:	51                   	push   %ecx
  802be0:	52                   	push   %edx
  802be1:	6a 00                	push   $0x0
  802be3:	6a 00                	push   $0x0
  802be5:	50                   	push   %eax
  802be6:	e8 e6 eb 01 00       	call   8217d1 <SDL_UpdateRect>
  802beb:	83 c4 20             	add    $0x20,%esp
  802bee:	83 45 f0 01          	addl   $0x1,-0x10(%ebp)
  802bf2:	83 7d f0 05          	cmpl   $0x5,-0x10(%ebp)
  802bf6:	0f 8e df fc ff ff    	jle    8028db <VIDEO_FadeScreen+0xc6>
  802bfc:	83 45 f4 01          	addl   $0x1,-0xc(%ebp)
  802c00:	83 7d f4 0b          	cmpl   $0xb,-0xc(%ebp)
  802c04:	0f 8e c5 fc ff ff    	jle    8028cf <VIDEO_FadeScreen+0xba>
  802c0a:	83 ec 0c             	sub    $0xc,%esp
  802c0d:	6a 00                	push   $0x0
  802c0f:	e8 11 f3 ff ff       	call   801f25 <VIDEO_UpdateScreen>
  802c14:	83 c4 10             	add    $0x10,%esp
  802c17:	8d 65 f8             	lea    -0x8(%ebp),%esp
  802c1a:	5b                   	pop    %ebx
  802c1b:	5e                   	pop    %esi
  802c1c:	5d                   	pop    %ebp
  802c1d:	c3                   	ret    

00802c1e <PAL_RNGReadFrame>:
  802c1e:	55                   	push   %ebp
  802c1f:	89 e5                	mov    %esp,%ebp
  802c21:	53                   	push   %ebx
  802c22:	83 ec 24             	sub    $0x24,%esp
  802c25:	e8 b6 d5 ff ff       	call   8001e0 <__x86.get_pc_thunk.bx>
  802c2a:	81 c3 d6 83 04 00    	add    $0x483d6,%ebx
  802c30:	c7 45 f0 00 00 00 00 	movl   $0x0,-0x10(%ebp)
  802c37:	c7 45 ec 00 00 00 00 	movl   $0x0,-0x14(%ebp)
  802c3e:	c7 45 e8 00 00 00 00 	movl   $0x0,-0x18(%ebp)
  802c45:	c7 45 e4 00 00 00 00 	movl   $0x0,-0x1c(%ebp)
  802c4c:	c7 45 f4 00 00 00 00 	movl   $0x0,-0xc(%ebp)
  802c53:	83 7d 08 00          	cmpl   $0x0,0x8(%ebp)
  802c57:	74 0c                	je     802c65 <PAL_RNGReadFrame+0x47>
  802c59:	83 7d 18 00          	cmpl   $0x0,0x18(%ebp)
  802c5d:	74 06                	je     802c65 <PAL_RNGReadFrame+0x47>
  802c5f:	83 7d 0c 00          	cmpl   $0x0,0xc(%ebp)
  802c63:	75 0a                	jne    802c6f <PAL_RNGReadFrame+0x51>
  802c65:	b8 ff ff ff ff       	mov    $0xffffffff,%eax
  802c6a:	e9 7b 01 00 00       	jmp    802dea <PAL_RNGReadFrame+0x1cc>
  802c6f:	83 ec 0c             	sub    $0xc,%esp
  802c72:	ff 75 18             	pushl  0x18(%ebp)
  802c75:	e8 e1 35 02 00       	call   82625b <PAL_MKFGetChunkCount>
  802c7a:	83 c4 10             	add    $0x10,%esp
  802c7d:	89 45 e4             	mov    %eax,-0x1c(%ebp)
  802c80:	8b 45 e4             	mov    -0x1c(%ebp),%eax
  802c83:	39 45 10             	cmp    %eax,0x10(%ebp)
  802c86:	72 0a                	jb     802c92 <PAL_RNGReadFrame+0x74>
  802c88:	b8 ff ff ff ff       	mov    $0xffffffff,%eax
  802c8d:	e9 58 01 00 00       	jmp    802dea <PAL_RNGReadFrame+0x1cc>
  802c92:	8b 45 10             	mov    0x10(%ebp),%eax
  802c95:	c1 e0 02             	shl    $0x2,%eax
  802c98:	83 ec 04             	sub    $0x4,%esp
  802c9b:	6a 00                	push   $0x0
  802c9d:	50                   	push   %eax
  802c9e:	ff 75 18             	pushl  0x18(%ebp)
  802ca1:	e8 ca e3 02 00       	call   831070 <fseek>
  802ca6:	83 c4 10             	add    $0x10,%esp
  802ca9:	ff 75 18             	pushl  0x18(%ebp)
  802cac:	6a 01                	push   $0x1
  802cae:	6a 04                	push   $0x4
  802cb0:	8d 45 f0             	lea    -0x10(%ebp),%eax
  802cb3:	50                   	push   %eax
  802cb4:	e8 17 e0 02 00       	call   830cd0 <fread>
  802cb9:	83 c4 10             	add    $0x10,%esp
  802cbc:	ff 75 18             	pushl  0x18(%ebp)
  802cbf:	6a 01                	push   $0x1
  802cc1:	6a 04                	push   $0x4
  802cc3:	8d 45 e8             	lea    -0x18(%ebp),%eax
  802cc6:	50                   	push   %eax
  802cc7:	e8 04 e0 02 00       	call   830cd0 <fread>
  802ccc:	83 c4 10             	add    $0x10,%esp
  802ccf:	8b 45 f0             	mov    -0x10(%ebp),%eax
  802cd2:	89 45 f0             	mov    %eax,-0x10(%ebp)
  802cd5:	8b 45 e8             	mov    -0x18(%ebp),%eax
  802cd8:	89 45 e8             	mov    %eax,-0x18(%ebp)
  802cdb:	8b 55 e8             	mov    -0x18(%ebp),%edx
  802cde:	8b 45 f0             	mov    -0x10(%ebp),%eax
  802ce1:	29 c2                	sub    %eax,%edx
  802ce3:	89 d0                	mov    %edx,%eax
  802ce5:	89 45 f4             	mov    %eax,-0xc(%ebp)
  802ce8:	83 7d f4 00          	cmpl   $0x0,-0xc(%ebp)
  802cec:	74 3d                	je     802d2b <PAL_RNGReadFrame+0x10d>
  802cee:	8b 45 f0             	mov    -0x10(%ebp),%eax
  802cf1:	83 ec 04             	sub    $0x4,%esp
  802cf4:	6a 00                	push   $0x0
  802cf6:	50                   	push   %eax
  802cf7:	ff 75 18             	pushl  0x18(%ebp)
  802cfa:	e8 71 e3 02 00       	call   831070 <fseek>
  802cff:	83 c4 10             	add    $0x10,%esp
  802d02:	ff 75 18             	pushl  0x18(%ebp)
  802d05:	6a 01                	push   $0x1
  802d07:	6a 04                	push   $0x4
  802d09:	8d 45 e4             	lea    -0x1c(%ebp),%eax
  802d0c:	50                   	push   %eax
  802d0d:	e8 be df 02 00       	call   830cd0 <fread>
  802d12:	83 c4 10             	add    $0x10,%esp
  802d15:	8b 45 e4             	mov    -0x1c(%ebp),%eax
  802d18:	83 e8 04             	sub    $0x4,%eax
  802d1b:	c1 e8 02             	shr    $0x2,%eax
  802d1e:	89 45 e4             	mov    %eax,-0x1c(%ebp)
  802d21:	8b 45 e4             	mov    -0x1c(%ebp),%eax
  802d24:	39 45 14             	cmp    %eax,0x14(%ebp)
  802d27:	72 16                	jb     802d3f <PAL_RNGReadFrame+0x121>
  802d29:	eb 0a                	jmp    802d35 <PAL_RNGReadFrame+0x117>
  802d2b:	b8 ff ff ff ff       	mov    $0xffffffff,%eax
  802d30:	e9 b5 00 00 00       	jmp    802dea <PAL_RNGReadFrame+0x1cc>
  802d35:	b8 ff ff ff ff       	mov    $0xffffffff,%eax
  802d3a:	e9 ab 00 00 00       	jmp    802dea <PAL_RNGReadFrame+0x1cc>
  802d3f:	8b 45 14             	mov    0x14(%ebp),%eax
  802d42:	8d 14 85 00 00 00 00 	lea    0x0(,%eax,4),%edx
  802d49:	8b 45 f0             	mov    -0x10(%ebp),%eax
  802d4c:	01 d0                	add    %edx,%eax
  802d4e:	83 ec 04             	sub    $0x4,%esp
  802d51:	6a 00                	push   $0x0
  802d53:	50                   	push   %eax
  802d54:	ff 75 18             	pushl  0x18(%ebp)
  802d57:	e8 14 e3 02 00       	call   831070 <fseek>
  802d5c:	83 c4 10             	add    $0x10,%esp
  802d5f:	ff 75 18             	pushl  0x18(%ebp)
  802d62:	6a 01                	push   $0x1
  802d64:	6a 04                	push   $0x4
  802d66:	8d 45 ec             	lea    -0x14(%ebp),%eax
  802d69:	50                   	push   %eax
  802d6a:	e8 61 df 02 00       	call   830cd0 <fread>
  802d6f:	83 c4 10             	add    $0x10,%esp
  802d72:	ff 75 18             	pushl  0x18(%ebp)
  802d75:	6a 01                	push   $0x1
  802d77:	6a 04                	push   $0x4
  802d79:	8d 45 e8             	lea    -0x18(%ebp),%eax
  802d7c:	50                   	push   %eax
  802d7d:	e8 4e df 02 00       	call   830cd0 <fread>
  802d82:	83 c4 10             	add    $0x10,%esp
  802d85:	8b 45 ec             	mov    -0x14(%ebp),%eax
  802d88:	89 45 ec             	mov    %eax,-0x14(%ebp)
  802d8b:	8b 45 e8             	mov    -0x18(%ebp),%eax
  802d8e:	89 45 e8             	mov    %eax,-0x18(%ebp)
  802d91:	8b 55 e8             	mov    -0x18(%ebp),%edx
  802d94:	8b 45 ec             	mov    -0x14(%ebp),%eax
  802d97:	29 c2                	sub    %eax,%edx
  802d99:	89 d0                	mov    %edx,%eax
  802d9b:	89 45 f4             	mov    %eax,-0xc(%ebp)
  802d9e:	8b 45 f4             	mov    -0xc(%ebp),%eax
  802da1:	3b 45 0c             	cmp    0xc(%ebp),%eax
  802da4:	76 07                	jbe    802dad <PAL_RNGReadFrame+0x18f>
  802da6:	b8 fe ff ff ff       	mov    $0xfffffffe,%eax
  802dab:	eb 3d                	jmp    802dea <PAL_RNGReadFrame+0x1cc>
  802dad:	83 7d f4 00          	cmpl   $0x0,-0xc(%ebp)
  802db1:	74 32                	je     802de5 <PAL_RNGReadFrame+0x1c7>
  802db3:	8b 55 f0             	mov    -0x10(%ebp),%edx
  802db6:	8b 45 ec             	mov    -0x14(%ebp),%eax
  802db9:	01 d0                	add    %edx,%eax
  802dbb:	83 ec 04             	sub    $0x4,%esp
  802dbe:	6a 00                	push   $0x0
  802dc0:	50                   	push   %eax
  802dc1:	ff 75 18             	pushl  0x18(%ebp)
  802dc4:	e8 a7 e2 02 00       	call   831070 <fseek>
  802dc9:	83 c4 10             	add    $0x10,%esp
  802dcc:	8b 45 f4             	mov    -0xc(%ebp),%eax
  802dcf:	ff 75 18             	pushl  0x18(%ebp)
  802dd2:	6a 01                	push   $0x1
  802dd4:	50                   	push   %eax
  802dd5:	ff 75 08             	pushl  0x8(%ebp)
  802dd8:	e8 f3 de 02 00       	call   830cd0 <fread>
  802ddd:	83 c4 10             	add    $0x10,%esp
  802de0:	8b 45 f4             	mov    -0xc(%ebp),%eax
  802de3:	eb 05                	jmp    802dea <PAL_RNGReadFrame+0x1cc>
  802de5:	b8 ff ff ff ff       	mov    $0xffffffff,%eax
  802dea:	8b 5d fc             	mov    -0x4(%ebp),%ebx
  802ded:	c9                   	leave  
  802dee:	c3                   	ret    

00802def <PAL_RNGBlitToSurface>:
  802def:	55                   	push   %ebp
  802df0:	89 e5                	mov    %esp,%ebp
  802df2:	53                   	push   %ebx
  802df3:	83 ec 34             	sub    $0x34,%esp
  802df6:	e8 e5 d3 ff ff       	call   8001e0 <__x86.get_pc_thunk.bx>
  802dfb:	81 c3 05 82 04 00    	add    $0x48205,%ebx
  802e01:	c7 45 f4 00 00 00 00 	movl   $0x0,-0xc(%ebp)
  802e08:	c7 45 f0 00 00 00 00 	movl   $0x0,-0x10(%ebp)
  802e0f:	c6 45 e3 00          	movb   $0x0,-0x1d(%ebp)
  802e13:	66 c7 45 e0 00 00    	movw   $0x0,-0x20(%ebp)
  802e19:	c7 45 dc 00 00 00 00 	movl   $0x0,-0x24(%ebp)
  802e20:	c7 45 d8 00 00 00 00 	movl   $0x0,-0x28(%ebp)
  802e27:	83 7d 10 00          	cmpl   $0x0,0x10(%ebp)
  802e2b:	74 0c                	je     802e39 <PAL_RNGBlitToSurface+0x4a>
  802e2d:	83 7d 08 00          	cmpl   $0x0,0x8(%ebp)
  802e31:	78 06                	js     802e39 <PAL_RNGBlitToSurface+0x4a>
  802e33:	83 7d 0c 00          	cmpl   $0x0,0xc(%ebp)
  802e37:	79 0a                	jns    802e43 <PAL_RNGBlitToSurface+0x54>
  802e39:	b8 ff ff ff ff       	mov    $0xffffffff,%eax
  802e3e:	e9 29 0a 00 00       	jmp    80386c <.L59+0x14>
  802e43:	83 ec 08             	sub    $0x8,%esp
  802e46:	68 e8 fd 00 00       	push   $0xfde8
  802e4b:	6a 01                	push   $0x1
  802e4d:	e8 ee d0 02 00       	call   82ff40 <calloc>
  802e52:	83 c4 10             	add    $0x10,%esp
  802e55:	89 45 d8             	mov    %eax,-0x28(%ebp)
  802e58:	83 7d d8 00          	cmpl   $0x0,-0x28(%ebp)
  802e5c:	75 0a                	jne    802e68 <PAL_RNGBlitToSurface+0x79>
  802e5e:	b8 ff ff ff ff       	mov    $0xffffffff,%eax
  802e63:	e9 04 0a 00 00       	jmp    80386c <.L59+0x14>
  802e68:	8b 55 0c             	mov    0xc(%ebp),%edx
  802e6b:	8b 45 08             	mov    0x8(%ebp),%eax
  802e6e:	83 ec 0c             	sub    $0xc,%esp
  802e71:	ff 75 14             	pushl  0x14(%ebp)
  802e74:	52                   	push   %edx
  802e75:	50                   	push   %eax
  802e76:	68 e8 fd 00 00       	push   $0xfde8
  802e7b:	ff 75 d8             	pushl  -0x28(%ebp)
  802e7e:	e8 9b fd ff ff       	call   802c1e <PAL_RNGReadFrame>
  802e83:	83 c4 20             	add    $0x20,%esp
  802e86:	85 c0                	test   %eax,%eax
  802e88:	79 18                	jns    802ea2 <PAL_RNGBlitToSurface+0xb3>
  802e8a:	83 ec 0c             	sub    $0xc,%esp
  802e8d:	ff 75 d8             	pushl  -0x28(%ebp)
  802e90:	e8 7b eb 02 00       	call   831a10 <free>
  802e95:	83 c4 10             	add    $0x10,%esp
  802e98:	b8 ff ff ff ff       	mov    $0xffffffff,%eax
  802e9d:	e9 ca 09 00 00       	jmp    80386c <.L59+0x14>
  802ea2:	83 ec 08             	sub    $0x8,%esp
  802ea5:	68 e8 fd 00 00       	push   $0xfde8
  802eaa:	6a 01                	push   $0x1
  802eac:	e8 8f d0 02 00       	call   82ff40 <calloc>
  802eb1:	83 c4 10             	add    $0x10,%esp
  802eb4:	89 45 dc             	mov    %eax,-0x24(%ebp)
  802eb7:	83 7d dc 00          	cmpl   $0x0,-0x24(%ebp)
  802ebb:	75 18                	jne    802ed5 <PAL_RNGBlitToSurface+0xe6>
  802ebd:	83 ec 0c             	sub    $0xc,%esp
  802ec0:	ff 75 d8             	pushl  -0x28(%ebp)
  802ec3:	e8 48 eb 02 00       	call   831a10 <free>
  802ec8:	83 c4 10             	add    $0x10,%esp
  802ecb:	b8 ff ff ff ff       	mov    $0xffffffff,%eax
  802ed0:	e9 97 09 00 00       	jmp    80386c <.L59+0x14>
  802ed5:	83 ec 04             	sub    $0x4,%esp
  802ed8:	68 e8 fd 00 00       	push   $0xfde8
  802edd:	ff 75 dc             	pushl  -0x24(%ebp)
  802ee0:	ff 75 d8             	pushl  -0x28(%ebp)
  802ee3:	e8 a2 12 00 00       	call   80418a <Decompress>
  802ee8:	83 c4 10             	add    $0x10,%esp
  802eeb:	83 ec 0c             	sub    $0xc,%esp
  802eee:	ff 75 d8             	pushl  -0x28(%ebp)
  802ef1:	e8 1a eb 02 00       	call   831a10 <free>
  802ef6:	83 c4 10             	add    $0x10,%esp

00802ef9 <.L58>:
  802ef9:	8b 45 f4             	mov    -0xc(%ebp),%eax
  802efc:	8d 50 01             	lea    0x1(%eax),%edx
  802eff:	89 55 f4             	mov    %edx,-0xc(%ebp)
  802f02:	89 c2                	mov    %eax,%edx
  802f04:	8b 45 dc             	mov    -0x24(%ebp),%eax
  802f07:	01 d0                	add    %edx,%eax
  802f09:	0f b6 00             	movzbl (%eax),%eax
  802f0c:	88 45 e3             	mov    %al,-0x1d(%ebp)
  802f0f:	0f b6 45 e3          	movzbl -0x1d(%ebp),%eax
  802f13:	83 f8 13             	cmp    $0x13,%eax
  802f16:	77 e1                	ja     802ef9 <.L58>
  802f18:	c1 e0 02             	shl    $0x2,%eax
  802f1b:	8b 84 18 fc 67 ff ff 	mov    -0x9804(%eax,%ebx,1),%eax
  802f22:	01 d8                	add    %ebx,%eax
  802f24:	ff e0                	jmp    *%eax

00802f26 <.L24>:
  802f26:	83 45 f0 02          	addl   $0x2,-0x10(%ebp)
  802f2a:	e9 24 09 00 00       	jmp    803853 <.L36+0x104>

00802f2f <.L25>:
  802f2f:	8b 45 f4             	mov    -0xc(%ebp),%eax
  802f32:	8d 50 01             	lea    0x1(%eax),%edx
  802f35:	89 55 f4             	mov    %edx,-0xc(%ebp)
  802f38:	89 c2                	mov    %eax,%edx
  802f3a:	8b 45 dc             	mov    -0x24(%ebp),%eax
  802f3d:	01 d0                	add    %edx,%eax
  802f3f:	0f b6 00             	movzbl (%eax),%eax
  802f42:	88 45 e3             	mov    %al,-0x1d(%ebp)
  802f45:	0f b6 45 e3          	movzbl -0x1d(%ebp),%eax
  802f49:	83 c0 01             	add    $0x1,%eax
  802f4c:	01 c0                	add    %eax,%eax
  802f4e:	01 45 f0             	add    %eax,-0x10(%ebp)
  802f51:	e9 fd 08 00 00       	jmp    803853 <.L36+0x104>

00802f56 <.L26>:
  802f56:	8b 55 f4             	mov    -0xc(%ebp),%edx
  802f59:	8b 45 dc             	mov    -0x24(%ebp),%eax
  802f5c:	01 d0                	add    %edx,%eax
  802f5e:	0f b6 00             	movzbl (%eax),%eax
  802f61:	0f b6 c0             	movzbl %al,%eax
  802f64:	8b 55 f4             	mov    -0xc(%ebp),%edx
  802f67:	8d 4a 01             	lea    0x1(%edx),%ecx
  802f6a:	8b 55 dc             	mov    -0x24(%ebp),%edx
  802f6d:	01 ca                	add    %ecx,%edx
  802f6f:	0f b6 12             	movzbl (%edx),%edx
  802f72:	0f b6 d2             	movzbl %dl,%edx
  802f75:	c1 e2 08             	shl    $0x8,%edx
  802f78:	09 d0                	or     %edx,%eax
  802f7a:	66 89 45 e0          	mov    %ax,-0x20(%ebp)
  802f7e:	83 45 f4 02          	addl   $0x2,-0xc(%ebp)
  802f82:	0f b7 45 e0          	movzwl -0x20(%ebp),%eax
  802f86:	83 c0 01             	add    $0x1,%eax
  802f89:	8d 14 00             	lea    (%eax,%eax,1),%edx
  802f8c:	8b 45 f0             	mov    -0x10(%ebp),%eax
  802f8f:	01 d0                	add    %edx,%eax
  802f91:	89 45 f0             	mov    %eax,-0x10(%ebp)
  802f94:	e9 ba 08 00 00       	jmp    803853 <.L36+0x104>

00802f99 <.L31>:
  802f99:	8b 4d f0             	mov    -0x10(%ebp),%ecx
  802f9c:	ba 67 66 66 66       	mov    $0x66666667,%edx
  802fa1:	89 c8                	mov    %ecx,%eax
  802fa3:	f7 ea                	imul   %edx
  802fa5:	c1 fa 07             	sar    $0x7,%edx
  802fa8:	89 c8                	mov    %ecx,%eax
  802faa:	c1 f8 1f             	sar    $0x1f,%eax
  802fad:	29 c2                	sub    %eax,%edx
  802faf:	89 d0                	mov    %edx,%eax
  802fb1:	c1 e0 02             	shl    $0x2,%eax
  802fb4:	01 d0                	add    %edx,%eax
  802fb6:	c1 e0 06             	shl    $0x6,%eax
  802fb9:	29 c1                	sub    %eax,%ecx
  802fbb:	89 c8                	mov    %ecx,%eax
  802fbd:	89 45 ec             	mov    %eax,-0x14(%ebp)
  802fc0:	8b 4d f0             	mov    -0x10(%ebp),%ecx
  802fc3:	ba 67 66 66 66       	mov    $0x66666667,%edx
  802fc8:	89 c8                	mov    %ecx,%eax
  802fca:	f7 ea                	imul   %edx
  802fcc:	c1 fa 07             	sar    $0x7,%edx
  802fcf:	89 c8                	mov    %ecx,%eax
  802fd1:	c1 f8 1f             	sar    $0x1f,%eax
  802fd4:	29 c2                	sub    %eax,%edx
  802fd6:	89 d0                	mov    %edx,%eax
  802fd8:	89 45 e8             	mov    %eax,-0x18(%ebp)
  802fdb:	8b 45 10             	mov    0x10(%ebp),%eax
  802fde:	8b 50 20             	mov    0x20(%eax),%edx
  802fe1:	8b 45 10             	mov    0x10(%ebp),%eax
  802fe4:	0f b7 40 10          	movzwl 0x10(%eax),%eax
  802fe8:	0f b7 c0             	movzwl %ax,%eax
  802feb:	0f af 45 e8          	imul   -0x18(%ebp),%eax
  802fef:	89 c1                	mov    %eax,%ecx
  802ff1:	8b 45 ec             	mov    -0x14(%ebp),%eax
  802ff4:	01 c8                	add    %ecx,%eax
  802ff6:	8d 0c 02             	lea    (%edx,%eax,1),%ecx
  802ff9:	8b 45 f4             	mov    -0xc(%ebp),%eax
  802ffc:	8d 50 01             	lea    0x1(%eax),%edx
  802fff:	89 55 f4             	mov    %edx,-0xc(%ebp)
  803002:	89 c2                	mov    %eax,%edx
  803004:	8b 45 dc             	mov    -0x24(%ebp),%eax
  803007:	01 d0                	add    %edx,%eax
  803009:	0f b6 00             	movzbl (%eax),%eax
  80300c:	88 01                	mov    %al,(%ecx)
  80300e:	83 45 ec 01          	addl   $0x1,-0x14(%ebp)
  803012:	81 7d ec 3f 01 00 00 	cmpl   $0x13f,-0x14(%ebp)
  803019:	7e 0b                	jle    803026 <.L31+0x8d>
  80301b:	c7 45 ec 00 00 00 00 	movl   $0x0,-0x14(%ebp)
  803022:	83 45 e8 01          	addl   $0x1,-0x18(%ebp)
  803026:	8b 45 10             	mov    0x10(%ebp),%eax
  803029:	8b 50 20             	mov    0x20(%eax),%edx
  80302c:	8b 45 10             	mov    0x10(%ebp),%eax
  80302f:	0f b7 40 10          	movzwl 0x10(%eax),%eax
  803033:	0f b7 c0             	movzwl %ax,%eax
  803036:	0f af 45 e8          	imul   -0x18(%ebp),%eax
  80303a:	89 c1                	mov    %eax,%ecx
  80303c:	8b 45 ec             	mov    -0x14(%ebp),%eax
  80303f:	01 c8                	add    %ecx,%eax
  803041:	8d 0c 02             	lea    (%edx,%eax,1),%ecx
  803044:	8b 45 f4             	mov    -0xc(%ebp),%eax
  803047:	8d 50 01             	lea    0x1(%eax),%edx
  80304a:	89 55 f4             	mov    %edx,-0xc(%ebp)
  80304d:	89 c2                	mov    %eax,%edx
  80304f:	8b 45 dc             	mov    -0x24(%ebp),%eax
  803052:	01 d0                	add    %edx,%eax
  803054:	0f b6 00             	movzbl (%eax),%eax
  803057:	88 01                	mov    %al,(%ecx)
  803059:	83 45 f0 02          	addl   $0x2,-0x10(%ebp)

0080305d <.L30>:
  80305d:	8b 4d f0             	mov    -0x10(%ebp),%ecx
  803060:	ba 67 66 66 66       	mov    $0x66666667,%edx
  803065:	89 c8                	mov    %ecx,%eax
  803067:	f7 ea                	imul   %edx
  803069:	c1 fa 07             	sar    $0x7,%edx
  80306c:	89 c8                	mov    %ecx,%eax
  80306e:	c1 f8 1f             	sar    $0x1f,%eax
  803071:	29 c2                	sub    %eax,%edx
  803073:	89 d0                	mov    %edx,%eax
  803075:	c1 e0 02             	shl    $0x2,%eax
  803078:	01 d0                	add    %edx,%eax
  80307a:	c1 e0 06             	shl    $0x6,%eax
  80307d:	29 c1                	sub    %eax,%ecx
  80307f:	89 c8                	mov    %ecx,%eax
  803081:	89 45 ec             	mov    %eax,-0x14(%ebp)
  803084:	8b 4d f0             	mov    -0x10(%ebp),%ecx
  803087:	ba 67 66 66 66       	mov    $0x66666667,%edx
  80308c:	89 c8                	mov    %ecx,%eax
  80308e:	f7 ea                	imul   %edx
  803090:	c1 fa 07             	sar    $0x7,%edx
  803093:	89 c8                	mov    %ecx,%eax
  803095:	c1 f8 1f             	sar    $0x1f,%eax
  803098:	29 c2                	sub    %eax,%edx
  80309a:	89 d0                	mov    %edx,%eax
  80309c:	89 45 e8             	mov    %eax,-0x18(%ebp)
  80309f:	8b 45 10             	mov    0x10(%ebp),%eax
  8030a2:	8b 50 20             	mov    0x20(%eax),%edx
  8030a5:	8b 45 10             	mov    0x10(%ebp),%eax
  8030a8:	0f b7 40 10          	movzwl 0x10(%eax),%eax
  8030ac:	0f b7 c0             	movzwl %ax,%eax
  8030af:	0f af 45 e8          	imul   -0x18(%ebp),%eax
  8030b3:	89 c1                	mov    %eax,%ecx
  8030b5:	8b 45 ec             	mov    -0x14(%ebp),%eax
  8030b8:	01 c8                	add    %ecx,%eax
  8030ba:	8d 0c 02             	lea    (%edx,%eax,1),%ecx
  8030bd:	8b 45 f4             	mov    -0xc(%ebp),%eax
  8030c0:	8d 50 01             	lea    0x1(%eax),%edx
  8030c3:	89 55 f4             	mov    %edx,-0xc(%ebp)
  8030c6:	89 c2                	mov    %eax,%edx
  8030c8:	8b 45 dc             	mov    -0x24(%ebp),%eax
  8030cb:	01 d0                	add    %edx,%eax
  8030cd:	0f b6 00             	movzbl (%eax),%eax
  8030d0:	88 01                	mov    %al,(%ecx)
  8030d2:	83 45 ec 01          	addl   $0x1,-0x14(%ebp)
  8030d6:	81 7d ec 3f 01 00 00 	cmpl   $0x13f,-0x14(%ebp)
  8030dd:	7e 0b                	jle    8030ea <.L30+0x8d>
  8030df:	c7 45 ec 00 00 00 00 	movl   $0x0,-0x14(%ebp)
  8030e6:	83 45 e8 01          	addl   $0x1,-0x18(%ebp)
  8030ea:	8b 45 10             	mov    0x10(%ebp),%eax
  8030ed:	8b 50 20             	mov    0x20(%eax),%edx
  8030f0:	8b 45 10             	mov    0x10(%ebp),%eax
  8030f3:	0f b7 40 10          	movzwl 0x10(%eax),%eax
  8030f7:	0f b7 c0             	movzwl %ax,%eax
  8030fa:	0f af 45 e8          	imul   -0x18(%ebp),%eax
  8030fe:	89 c1                	mov    %eax,%ecx
  803100:	8b 45 ec             	mov    -0x14(%ebp),%eax
  803103:	01 c8                	add    %ecx,%eax
  803105:	8d 0c 02             	lea    (%edx,%eax,1),%ecx
  803108:	8b 45 f4             	mov    -0xc(%ebp),%eax
  80310b:	8d 50 01             	lea    0x1(%eax),%edx
  80310e:	89 55 f4             	mov    %edx,-0xc(%ebp)
  803111:	89 c2                	mov    %eax,%edx
  803113:	8b 45 dc             	mov    -0x24(%ebp),%eax
  803116:	01 d0                	add    %edx,%eax
  803118:	0f b6 00             	movzbl (%eax),%eax
  80311b:	88 01                	mov    %al,(%ecx)
  80311d:	83 45 f0 02          	addl   $0x2,-0x10(%ebp)

00803121 <.L29>:
  803121:	8b 4d f0             	mov    -0x10(%ebp),%ecx
  803124:	ba 67 66 66 66       	mov    $0x66666667,%edx
  803129:	89 c8                	mov    %ecx,%eax
  80312b:	f7 ea                	imul   %edx
  80312d:	c1 fa 07             	sar    $0x7,%edx
  803130:	89 c8                	mov    %ecx,%eax
  803132:	c1 f8 1f             	sar    $0x1f,%eax
  803135:	29 c2                	sub    %eax,%edx
  803137:	89 d0                	mov    %edx,%eax
  803139:	c1 e0 02             	shl    $0x2,%eax
  80313c:	01 d0                	add    %edx,%eax
  80313e:	c1 e0 06             	shl    $0x6,%eax
  803141:	29 c1                	sub    %eax,%ecx
  803143:	89 c8                	mov    %ecx,%eax
  803145:	89 45 ec             	mov    %eax,-0x14(%ebp)
  803148:	8b 4d f0             	mov    -0x10(%ebp),%ecx
  80314b:	ba 67 66 66 66       	mov    $0x66666667,%edx
  803150:	89 c8                	mov    %ecx,%eax
  803152:	f7 ea                	imul   %edx
  803154:	c1 fa 07             	sar    $0x7,%edx
  803157:	89 c8                	mov    %ecx,%eax
  803159:	c1 f8 1f             	sar    $0x1f,%eax
  80315c:	29 c2                	sub    %eax,%edx
  80315e:	89 d0                	mov    %edx,%eax
  803160:	89 45 e8             	mov    %eax,-0x18(%ebp)
  803163:	8b 45 10             	mov    0x10(%ebp),%eax
  803166:	8b 50 20             	mov    0x20(%eax),%edx
  803169:	8b 45 10             	mov    0x10(%ebp),%eax
  80316c:	0f b7 40 10          	movzwl 0x10(%eax),%eax
  803170:	0f b7 c0             	movzwl %ax,%eax
  803173:	0f af 45 e8          	imul   -0x18(%ebp),%eax
  803177:	89 c1                	mov    %eax,%ecx
  803179:	8b 45 ec             	mov    -0x14(%ebp),%eax
  80317c:	01 c8                	add    %ecx,%eax
  80317e:	8d 0c 02             	lea    (%edx,%eax,1),%ecx
  803181:	8b 45 f4             	mov    -0xc(%ebp),%eax
  803184:	8d 50 01             	lea    0x1(%eax),%edx
  803187:	89 55 f4             	mov    %edx,-0xc(%ebp)
  80318a:	89 c2                	mov    %eax,%edx
  80318c:	8b 45 dc             	mov    -0x24(%ebp),%eax
  80318f:	01 d0                	add    %edx,%eax
  803191:	0f b6 00             	movzbl (%eax),%eax
  803194:	88 01                	mov    %al,(%ecx)
  803196:	83 45 ec 01          	addl   $0x1,-0x14(%ebp)
  80319a:	81 7d ec 3f 01 00 00 	cmpl   $0x13f,-0x14(%ebp)
  8031a1:	7e 0b                	jle    8031ae <.L29+0x8d>
  8031a3:	c7 45 ec 00 00 00 00 	movl   $0x0,-0x14(%ebp)
  8031aa:	83 45 e8 01          	addl   $0x1,-0x18(%ebp)
  8031ae:	8b 45 10             	mov    0x10(%ebp),%eax
  8031b1:	8b 50 20             	mov    0x20(%eax),%edx
  8031b4:	8b 45 10             	mov    0x10(%ebp),%eax
  8031b7:	0f b7 40 10          	movzwl 0x10(%eax),%eax
  8031bb:	0f b7 c0             	movzwl %ax,%eax
  8031be:	0f af 45 e8          	imul   -0x18(%ebp),%eax
  8031c2:	89 c1                	mov    %eax,%ecx
  8031c4:	8b 45 ec             	mov    -0x14(%ebp),%eax
  8031c7:	01 c8                	add    %ecx,%eax
  8031c9:	8d 0c 02             	lea    (%edx,%eax,1),%ecx
  8031cc:	8b 45 f4             	mov    -0xc(%ebp),%eax
  8031cf:	8d 50 01             	lea    0x1(%eax),%edx
  8031d2:	89 55 f4             	mov    %edx,-0xc(%ebp)
  8031d5:	89 c2                	mov    %eax,%edx
  8031d7:	8b 45 dc             	mov    -0x24(%ebp),%eax
  8031da:	01 d0                	add    %edx,%eax
  8031dc:	0f b6 00             	movzbl (%eax),%eax
  8031df:	88 01                	mov    %al,(%ecx)
  8031e1:	83 45 f0 02          	addl   $0x2,-0x10(%ebp)

008031e5 <.L28>:
  8031e5:	8b 4d f0             	mov    -0x10(%ebp),%ecx
  8031e8:	ba 67 66 66 66       	mov    $0x66666667,%edx
  8031ed:	89 c8                	mov    %ecx,%eax
  8031ef:	f7 ea                	imul   %edx
  8031f1:	c1 fa 07             	sar    $0x7,%edx
  8031f4:	89 c8                	mov    %ecx,%eax
  8031f6:	c1 f8 1f             	sar    $0x1f,%eax
  8031f9:	29 c2                	sub    %eax,%edx
  8031fb:	89 d0                	mov    %edx,%eax
  8031fd:	c1 e0 02             	shl    $0x2,%eax
  803200:	01 d0                	add    %edx,%eax
  803202:	c1 e0 06             	shl    $0x6,%eax
  803205:	29 c1                	sub    %eax,%ecx
  803207:	89 c8                	mov    %ecx,%eax
  803209:	89 45 ec             	mov    %eax,-0x14(%ebp)
  80320c:	8b 4d f0             	mov    -0x10(%ebp),%ecx
  80320f:	ba 67 66 66 66       	mov    $0x66666667,%edx
  803214:	89 c8                	mov    %ecx,%eax
  803216:	f7 ea                	imul   %edx
  803218:	c1 fa 07             	sar    $0x7,%edx
  80321b:	89 c8                	mov    %ecx,%eax
  80321d:	c1 f8 1f             	sar    $0x1f,%eax
  803220:	29 c2                	sub    %eax,%edx
  803222:	89 d0                	mov    %edx,%eax
  803224:	89 45 e8             	mov    %eax,-0x18(%ebp)
  803227:	8b 45 10             	mov    0x10(%ebp),%eax
  80322a:	8b 50 20             	mov    0x20(%eax),%edx
  80322d:	8b 45 10             	mov    0x10(%ebp),%eax
  803230:	0f b7 40 10          	movzwl 0x10(%eax),%eax
  803234:	0f b7 c0             	movzwl %ax,%eax
  803237:	0f af 45 e8          	imul   -0x18(%ebp),%eax
  80323b:	89 c1                	mov    %eax,%ecx
  80323d:	8b 45 ec             	mov    -0x14(%ebp),%eax
  803240:	01 c8                	add    %ecx,%eax
  803242:	8d 0c 02             	lea    (%edx,%eax,1),%ecx
  803245:	8b 45 f4             	mov    -0xc(%ebp),%eax
  803248:	8d 50 01             	lea    0x1(%eax),%edx
  80324b:	89 55 f4             	mov    %edx,-0xc(%ebp)
  80324e:	89 c2                	mov    %eax,%edx
  803250:	8b 45 dc             	mov    -0x24(%ebp),%eax
  803253:	01 d0                	add    %edx,%eax
  803255:	0f b6 00             	movzbl (%eax),%eax
  803258:	88 01                	mov    %al,(%ecx)
  80325a:	83 45 ec 01          	addl   $0x1,-0x14(%ebp)
  80325e:	81 7d ec 3f 01 00 00 	cmpl   $0x13f,-0x14(%ebp)
  803265:	7e 0b                	jle    803272 <.L28+0x8d>
  803267:	c7 45 ec 00 00 00 00 	movl   $0x0,-0x14(%ebp)
  80326e:	83 45 e8 01          	addl   $0x1,-0x18(%ebp)
  803272:	8b 45 10             	mov    0x10(%ebp),%eax
  803275:	8b 50 20             	mov    0x20(%eax),%edx
  803278:	8b 45 10             	mov    0x10(%ebp),%eax
  80327b:	0f b7 40 10          	movzwl 0x10(%eax),%eax
  80327f:	0f b7 c0             	movzwl %ax,%eax
  803282:	0f af 45 e8          	imul   -0x18(%ebp),%eax
  803286:	89 c1                	mov    %eax,%ecx
  803288:	8b 45 ec             	mov    -0x14(%ebp),%eax
  80328b:	01 c8                	add    %ecx,%eax
  80328d:	8d 0c 02             	lea    (%edx,%eax,1),%ecx
  803290:	8b 45 f4             	mov    -0xc(%ebp),%eax
  803293:	8d 50 01             	lea    0x1(%eax),%edx
  803296:	89 55 f4             	mov    %edx,-0xc(%ebp)
  803299:	89 c2                	mov    %eax,%edx
  80329b:	8b 45 dc             	mov    -0x24(%ebp),%eax
  80329e:	01 d0                	add    %edx,%eax
  8032a0:	0f b6 00             	movzbl (%eax),%eax
  8032a3:	88 01                	mov    %al,(%ecx)
  8032a5:	83 45 f0 02          	addl   $0x2,-0x10(%ebp)

008032a9 <.L27>:
  8032a9:	8b 4d f0             	mov    -0x10(%ebp),%ecx
  8032ac:	ba 67 66 66 66       	mov    $0x66666667,%edx
  8032b1:	89 c8                	mov    %ecx,%eax
  8032b3:	f7 ea                	imul   %edx
  8032b5:	c1 fa 07             	sar    $0x7,%edx
  8032b8:	89 c8                	mov    %ecx,%eax
  8032ba:	c1 f8 1f             	sar    $0x1f,%eax
  8032bd:	29 c2                	sub    %eax,%edx
  8032bf:	89 d0                	mov    %edx,%eax
  8032c1:	c1 e0 02             	shl    $0x2,%eax
  8032c4:	01 d0                	add    %edx,%eax
  8032c6:	c1 e0 06             	shl    $0x6,%eax
  8032c9:	29 c1                	sub    %eax,%ecx
  8032cb:	89 c8                	mov    %ecx,%eax
  8032cd:	89 45 ec             	mov    %eax,-0x14(%ebp)
  8032d0:	8b 4d f0             	mov    -0x10(%ebp),%ecx
  8032d3:	ba 67 66 66 66       	mov    $0x66666667,%edx
  8032d8:	89 c8                	mov    %ecx,%eax
  8032da:	f7 ea                	imul   %edx
  8032dc:	c1 fa 07             	sar    $0x7,%edx
  8032df:	89 c8                	mov    %ecx,%eax
  8032e1:	c1 f8 1f             	sar    $0x1f,%eax
  8032e4:	29 c2                	sub    %eax,%edx
  8032e6:	89 d0                	mov    %edx,%eax
  8032e8:	89 45 e8             	mov    %eax,-0x18(%ebp)
  8032eb:	8b 45 10             	mov    0x10(%ebp),%eax
  8032ee:	8b 50 20             	mov    0x20(%eax),%edx
  8032f1:	8b 45 10             	mov    0x10(%ebp),%eax
  8032f4:	0f b7 40 10          	movzwl 0x10(%eax),%eax
  8032f8:	0f b7 c0             	movzwl %ax,%eax
  8032fb:	0f af 45 e8          	imul   -0x18(%ebp),%eax
  8032ff:	89 c1                	mov    %eax,%ecx
  803301:	8b 45 ec             	mov    -0x14(%ebp),%eax
  803304:	01 c8                	add    %ecx,%eax
  803306:	8d 0c 02             	lea    (%edx,%eax,1),%ecx
  803309:	8b 45 f4             	mov    -0xc(%ebp),%eax
  80330c:	8d 50 01             	lea    0x1(%eax),%edx
  80330f:	89 55 f4             	mov    %edx,-0xc(%ebp)
  803312:	89 c2                	mov    %eax,%edx
  803314:	8b 45 dc             	mov    -0x24(%ebp),%eax
  803317:	01 d0                	add    %edx,%eax
  803319:	0f b6 00             	movzbl (%eax),%eax
  80331c:	88 01                	mov    %al,(%ecx)
  80331e:	83 45 ec 01          	addl   $0x1,-0x14(%ebp)
  803322:	81 7d ec 3f 01 00 00 	cmpl   $0x13f,-0x14(%ebp)
  803329:	7e 0b                	jle    803336 <.L27+0x8d>
  80332b:	c7 45 ec 00 00 00 00 	movl   $0x0,-0x14(%ebp)
  803332:	83 45 e8 01          	addl   $0x1,-0x18(%ebp)
  803336:	8b 45 10             	mov    0x10(%ebp),%eax
  803339:	8b 50 20             	mov    0x20(%eax),%edx
  80333c:	8b 45 10             	mov    0x10(%ebp),%eax
  80333f:	0f b7 40 10          	movzwl 0x10(%eax),%eax
  803343:	0f b7 c0             	movzwl %ax,%eax
  803346:	0f af 45 e8          	imul   -0x18(%ebp),%eax
  80334a:	89 c1                	mov    %eax,%ecx
  80334c:	8b 45 ec             	mov    -0x14(%ebp),%eax
  80334f:	01 c8                	add    %ecx,%eax
  803351:	8d 0c 02             	lea    (%edx,%eax,1),%ecx
  803354:	8b 45 f4             	mov    -0xc(%ebp),%eax
  803357:	8d 50 01             	lea    0x1(%eax),%edx
  80335a:	89 55 f4             	mov    %edx,-0xc(%ebp)
  80335d:	89 c2                	mov    %eax,%edx
  80335f:	8b 45 dc             	mov    -0x24(%ebp),%eax
  803362:	01 d0                	add    %edx,%eax
  803364:	0f b6 00             	movzbl (%eax),%eax
  803367:	88 01                	mov    %al,(%ecx)
  803369:	83 45 f0 02          	addl   $0x2,-0x10(%ebp)
  80336d:	e9 e1 04 00 00       	jmp    803853 <.L36+0x104>

00803372 <.L32>:
  803372:	8b 45 f4             	mov    -0xc(%ebp),%eax
  803375:	8d 50 01             	lea    0x1(%eax),%edx
  803378:	89 55 f4             	mov    %edx,-0xc(%ebp)
  80337b:	89 c2                	mov    %eax,%edx
  80337d:	8b 45 dc             	mov    -0x24(%ebp),%eax
  803380:	01 d0                	add    %edx,%eax
  803382:	0f b6 00             	movzbl (%eax),%eax
  803385:	88 45 e3             	mov    %al,-0x1d(%ebp)
  803388:	c7 45 e4 00 00 00 00 	movl   $0x0,-0x1c(%ebp)
  80338f:	e9 c8 00 00 00       	jmp    80345c <.L32+0xea>
  803394:	8b 4d f0             	mov    -0x10(%ebp),%ecx
  803397:	ba 67 66 66 66       	mov    $0x66666667,%edx
  80339c:	89 c8                	mov    %ecx,%eax
  80339e:	f7 ea                	imul   %edx
  8033a0:	c1 fa 07             	sar    $0x7,%edx
  8033a3:	89 c8                	mov    %ecx,%eax
  8033a5:	c1 f8 1f             	sar    $0x1f,%eax
  8033a8:	29 c2                	sub    %eax,%edx
  8033aa:	89 d0                	mov    %edx,%eax
  8033ac:	c1 e0 02             	shl    $0x2,%eax
  8033af:	01 d0                	add    %edx,%eax
  8033b1:	c1 e0 06             	shl    $0x6,%eax
  8033b4:	29 c1                	sub    %eax,%ecx
  8033b6:	89 c8                	mov    %ecx,%eax
  8033b8:	89 45 ec             	mov    %eax,-0x14(%ebp)
  8033bb:	8b 4d f0             	mov    -0x10(%ebp),%ecx
  8033be:	ba 67 66 66 66       	mov    $0x66666667,%edx
  8033c3:	89 c8                	mov    %ecx,%eax
  8033c5:	f7 ea                	imul   %edx
  8033c7:	c1 fa 07             	sar    $0x7,%edx
  8033ca:	89 c8                	mov    %ecx,%eax
  8033cc:	c1 f8 1f             	sar    $0x1f,%eax
  8033cf:	29 c2                	sub    %eax,%edx
  8033d1:	89 d0                	mov    %edx,%eax
  8033d3:	89 45 e8             	mov    %eax,-0x18(%ebp)
  8033d6:	8b 45 10             	mov    0x10(%ebp),%eax
  8033d9:	8b 50 20             	mov    0x20(%eax),%edx
  8033dc:	8b 45 10             	mov    0x10(%ebp),%eax
  8033df:	0f b7 40 10          	movzwl 0x10(%eax),%eax
  8033e3:	0f b7 c0             	movzwl %ax,%eax
  8033e6:	0f af 45 e8          	imul   -0x18(%ebp),%eax
  8033ea:	89 c1                	mov    %eax,%ecx
  8033ec:	8b 45 ec             	mov    -0x14(%ebp),%eax
  8033ef:	01 c8                	add    %ecx,%eax
  8033f1:	8d 0c 02             	lea    (%edx,%eax,1),%ecx
  8033f4:	8b 45 f4             	mov    -0xc(%ebp),%eax
  8033f7:	8d 50 01             	lea    0x1(%eax),%edx
  8033fa:	89 55 f4             	mov    %edx,-0xc(%ebp)
  8033fd:	89 c2                	mov    %eax,%edx
  8033ff:	8b 45 dc             	mov    -0x24(%ebp),%eax
  803402:	01 d0                	add    %edx,%eax
  803404:	0f b6 00             	movzbl (%eax),%eax
  803407:	88 01                	mov    %al,(%ecx)
  803409:	83 45 ec 01          	addl   $0x1,-0x14(%ebp)
  80340d:	81 7d ec 3f 01 00 00 	cmpl   $0x13f,-0x14(%ebp)
  803414:	7e 0b                	jle    803421 <.L32+0xaf>
  803416:	c7 45 ec 00 00 00 00 	movl   $0x0,-0x14(%ebp)
  80341d:	83 45 e8 01          	addl   $0x1,-0x18(%ebp)
  803421:	8b 45 10             	mov    0x10(%ebp),%eax
  803424:	8b 50 20             	mov    0x20(%eax),%edx
  803427:	8b 45 10             	mov    0x10(%ebp),%eax
  80342a:	0f b7 40 10          	movzwl 0x10(%eax),%eax
  80342e:	0f b7 c0             	movzwl %ax,%eax
  803431:	0f af 45 e8          	imul   -0x18(%ebp),%eax
  803435:	89 c1                	mov    %eax,%ecx
  803437:	8b 45 ec             	mov    -0x14(%ebp),%eax
  80343a:	01 c8                	add    %ecx,%eax
  80343c:	8d 0c 02             	lea    (%edx,%eax,1),%ecx
  80343f:	8b 45 f4             	mov    -0xc(%ebp),%eax
  803442:	8d 50 01             	lea    0x1(%eax),%edx
  803445:	89 55 f4             	mov    %edx,-0xc(%ebp)
  803448:	89 c2                	mov    %eax,%edx
  80344a:	8b 45 dc             	mov    -0x24(%ebp),%eax
  80344d:	01 d0                	add    %edx,%eax
  80344f:	0f b6 00             	movzbl (%eax),%eax
  803452:	88 01                	mov    %al,(%ecx)
  803454:	83 45 f0 02          	addl   $0x2,-0x10(%ebp)
  803458:	83 45 e4 01          	addl   $0x1,-0x1c(%ebp)
  80345c:	0f b6 45 e3          	movzbl -0x1d(%ebp),%eax
  803460:	3b 45 e4             	cmp    -0x1c(%ebp),%eax
  803463:	0f 8d 2b ff ff ff    	jge    803394 <.L32+0x22>
  803469:	e9 e5 03 00 00       	jmp    803853 <.L36+0x104>

0080346e <.L33>:
  80346e:	8b 55 f4             	mov    -0xc(%ebp),%edx
  803471:	8b 45 dc             	mov    -0x24(%ebp),%eax
  803474:	01 d0                	add    %edx,%eax
  803476:	0f b6 00             	movzbl (%eax),%eax
  803479:	0f b6 c0             	movzbl %al,%eax
  80347c:	8b 55 f4             	mov    -0xc(%ebp),%edx
  80347f:	8d 4a 01             	lea    0x1(%edx),%ecx
  803482:	8b 55 dc             	mov    -0x24(%ebp),%edx
  803485:	01 ca                	add    %ecx,%edx
  803487:	0f b6 12             	movzbl (%edx),%edx
  80348a:	0f b6 d2             	movzbl %dl,%edx
  80348d:	c1 e2 08             	shl    $0x8,%edx
  803490:	09 d0                	or     %edx,%eax
  803492:	66 89 45 e0          	mov    %ax,-0x20(%ebp)
  803496:	83 45 f4 02          	addl   $0x2,-0xc(%ebp)
  80349a:	c7 45 e4 00 00 00 00 	movl   $0x0,-0x1c(%ebp)
  8034a1:	e9 c8 00 00 00       	jmp    80356e <.L33+0x100>
  8034a6:	8b 4d f0             	mov    -0x10(%ebp),%ecx
  8034a9:	ba 67 66 66 66       	mov    $0x66666667,%edx
  8034ae:	89 c8                	mov    %ecx,%eax
  8034b0:	f7 ea                	imul   %edx
  8034b2:	c1 fa 07             	sar    $0x7,%edx
  8034b5:	89 c8                	mov    %ecx,%eax
  8034b7:	c1 f8 1f             	sar    $0x1f,%eax
  8034ba:	29 c2                	sub    %eax,%edx
  8034bc:	89 d0                	mov    %edx,%eax
  8034be:	c1 e0 02             	shl    $0x2,%eax
  8034c1:	01 d0                	add    %edx,%eax
  8034c3:	c1 e0 06             	shl    $0x6,%eax
  8034c6:	29 c1                	sub    %eax,%ecx
  8034c8:	89 c8                	mov    %ecx,%eax
  8034ca:	89 45 ec             	mov    %eax,-0x14(%ebp)
  8034cd:	8b 4d f0             	mov    -0x10(%ebp),%ecx
  8034d0:	ba 67 66 66 66       	mov    $0x66666667,%edx
  8034d5:	89 c8                	mov    %ecx,%eax
  8034d7:	f7 ea                	imul   %edx
  8034d9:	c1 fa 07             	sar    $0x7,%edx
  8034dc:	89 c8                	mov    %ecx,%eax
  8034de:	c1 f8 1f             	sar    $0x1f,%eax
  8034e1:	29 c2                	sub    %eax,%edx
  8034e3:	89 d0                	mov    %edx,%eax
  8034e5:	89 45 e8             	mov    %eax,-0x18(%ebp)
  8034e8:	8b 45 10             	mov    0x10(%ebp),%eax
  8034eb:	8b 50 20             	mov    0x20(%eax),%edx
  8034ee:	8b 45 10             	mov    0x10(%ebp),%eax
  8034f1:	0f b7 40 10          	movzwl 0x10(%eax),%eax
  8034f5:	0f b7 c0             	movzwl %ax,%eax
  8034f8:	0f af 45 e8          	imul   -0x18(%ebp),%eax
  8034fc:	89 c1                	mov    %eax,%ecx
  8034fe:	8b 45 ec             	mov    -0x14(%ebp),%eax
  803501:	01 c8                	add    %ecx,%eax
  803503:	8d 0c 02             	lea    (%edx,%eax,1),%ecx
  803506:	8b 45 f4             	mov    -0xc(%ebp),%eax
  803509:	8d 50 01             	lea    0x1(%eax),%edx
  80350c:	89 55 f4             	mov    %edx,-0xc(%ebp)
  80350f:	89 c2                	mov    %eax,%edx
  803511:	8b 45 dc             	mov    -0x24(%ebp),%eax
  803514:	01 d0                	add    %edx,%eax
  803516:	0f b6 00             	movzbl (%eax),%eax
  803519:	88 01                	mov    %al,(%ecx)
  80351b:	83 45 ec 01          	addl   $0x1,-0x14(%ebp)
  80351f:	81 7d ec 3f 01 00 00 	cmpl   $0x13f,-0x14(%ebp)
  803526:	7e 0b                	jle    803533 <.L33+0xc5>
  803528:	c7 45 ec 00 00 00 00 	movl   $0x0,-0x14(%ebp)
  80352f:	83 45 e8 01          	addl   $0x1,-0x18(%ebp)
  803533:	8b 45 10             	mov    0x10(%ebp),%eax
  803536:	8b 50 20             	mov    0x20(%eax),%edx
  803539:	8b 45 10             	mov    0x10(%ebp),%eax
  80353c:	0f b7 40 10          	movzwl 0x10(%eax),%eax
  803540:	0f b7 c0             	movzwl %ax,%eax
  803543:	0f af 45 e8          	imul   -0x18(%ebp),%eax
  803547:	89 c1                	mov    %eax,%ecx
  803549:	8b 45 ec             	mov    -0x14(%ebp),%eax
  80354c:	01 c8                	add    %ecx,%eax
  80354e:	8d 0c 02             	lea    (%edx,%eax,1),%ecx
  803551:	8b 45 f4             	mov    -0xc(%ebp),%eax
  803554:	8d 50 01             	lea    0x1(%eax),%edx
  803557:	89 55 f4             	mov    %edx,-0xc(%ebp)
  80355a:	89 c2                	mov    %eax,%edx
  80355c:	8b 45 dc             	mov    -0x24(%ebp),%eax
  80355f:	01 d0                	add    %edx,%eax
  803561:	0f b6 00             	movzbl (%eax),%eax
  803564:	88 01                	mov    %al,(%ecx)
  803566:	83 45 f0 02          	addl   $0x2,-0x10(%ebp)
  80356a:	83 45 e4 01          	addl   $0x1,-0x1c(%ebp)
  80356e:	0f b7 45 e0          	movzwl -0x20(%ebp),%eax
  803572:	3b 45 e4             	cmp    -0x1c(%ebp),%eax
  803575:	0f 8d 2b ff ff ff    	jge    8034a6 <.L33+0x38>
  80357b:	e9 d3 02 00 00       	jmp    803853 <.L36+0x104>

00803580 <.L34>:
  803580:	c7 45 e4 00 00 00 00 	movl   $0x0,-0x1c(%ebp)
  803587:	e9 b9 00 00 00       	jmp    803645 <.L34+0xc5>
  80358c:	8b 4d f0             	mov    -0x10(%ebp),%ecx
  80358f:	ba 67 66 66 66       	mov    $0x66666667,%edx
  803594:	89 c8                	mov    %ecx,%eax
  803596:	f7 ea                	imul   %edx
  803598:	c1 fa 07             	sar    $0x7,%edx
  80359b:	89 c8                	mov    %ecx,%eax
  80359d:	c1 f8 1f             	sar    $0x1f,%eax
  8035a0:	29 c2                	sub    %eax,%edx
  8035a2:	89 d0                	mov    %edx,%eax
  8035a4:	c1 e0 02             	shl    $0x2,%eax
  8035a7:	01 d0                	add    %edx,%eax
  8035a9:	c1 e0 06             	shl    $0x6,%eax
  8035ac:	29 c1                	sub    %eax,%ecx
  8035ae:	89 c8                	mov    %ecx,%eax
  8035b0:	89 45 ec             	mov    %eax,-0x14(%ebp)
  8035b3:	8b 4d f0             	mov    -0x10(%ebp),%ecx
  8035b6:	ba 67 66 66 66       	mov    $0x66666667,%edx
  8035bb:	89 c8                	mov    %ecx,%eax
  8035bd:	f7 ea                	imul   %edx
  8035bf:	c1 fa 07             	sar    $0x7,%edx
  8035c2:	89 c8                	mov    %ecx,%eax
  8035c4:	c1 f8 1f             	sar    $0x1f,%eax
  8035c7:	29 c2                	sub    %eax,%edx
  8035c9:	89 d0                	mov    %edx,%eax
  8035cb:	89 45 e8             	mov    %eax,-0x18(%ebp)
  8035ce:	8b 45 10             	mov    0x10(%ebp),%eax
  8035d1:	8b 50 20             	mov    0x20(%eax),%edx
  8035d4:	8b 45 10             	mov    0x10(%ebp),%eax
  8035d7:	0f b7 40 10          	movzwl 0x10(%eax),%eax
  8035db:	0f b7 c0             	movzwl %ax,%eax
  8035de:	0f af 45 e8          	imul   -0x18(%ebp),%eax
  8035e2:	89 c1                	mov    %eax,%ecx
  8035e4:	8b 45 ec             	mov    -0x14(%ebp),%eax
  8035e7:	01 c8                	add    %ecx,%eax
  8035e9:	01 c2                	add    %eax,%edx
  8035eb:	8b 4d f4             	mov    -0xc(%ebp),%ecx
  8035ee:	8b 45 dc             	mov    -0x24(%ebp),%eax
  8035f1:	01 c8                	add    %ecx,%eax
  8035f3:	0f b6 00             	movzbl (%eax),%eax
  8035f6:	88 02                	mov    %al,(%edx)
  8035f8:	83 45 ec 01          	addl   $0x1,-0x14(%ebp)
  8035fc:	81 7d ec 3f 01 00 00 	cmpl   $0x13f,-0x14(%ebp)
  803603:	7e 0b                	jle    803610 <.L34+0x90>
  803605:	c7 45 ec 00 00 00 00 	movl   $0x0,-0x14(%ebp)
  80360c:	83 45 e8 01          	addl   $0x1,-0x18(%ebp)
  803610:	8b 45 10             	mov    0x10(%ebp),%eax
  803613:	8b 50 20             	mov    0x20(%eax),%edx
  803616:	8b 45 10             	mov    0x10(%ebp),%eax
  803619:	0f b7 40 10          	movzwl 0x10(%eax),%eax
  80361d:	0f b7 c0             	movzwl %ax,%eax
  803620:	0f af 45 e8          	imul   -0x18(%ebp),%eax
  803624:	89 c1                	mov    %eax,%ecx
  803626:	8b 45 ec             	mov    -0x14(%ebp),%eax
  803629:	01 c8                	add    %ecx,%eax
  80362b:	01 c2                	add    %eax,%edx
  80362d:	8b 45 f4             	mov    -0xc(%ebp),%eax
  803630:	8d 48 01             	lea    0x1(%eax),%ecx
  803633:	8b 45 dc             	mov    -0x24(%ebp),%eax
  803636:	01 c8                	add    %ecx,%eax
  803638:	0f b6 00             	movzbl (%eax),%eax
  80363b:	88 02                	mov    %al,(%edx)
  80363d:	83 45 f0 02          	addl   $0x2,-0x10(%ebp)
  803641:	83 45 e4 01          	addl   $0x1,-0x1c(%ebp)
  803645:	0f b6 45 e3          	movzbl -0x1d(%ebp),%eax
  803649:	83 e8 0b             	sub    $0xb,%eax
  80364c:	3b 45 e4             	cmp    -0x1c(%ebp),%eax
  80364f:	0f 8f 37 ff ff ff    	jg     80358c <.L34+0xc>
  803655:	83 45 f4 02          	addl   $0x2,-0xc(%ebp)
  803659:	e9 f5 01 00 00       	jmp    803853 <.L36+0x104>

0080365e <.L35>:
  80365e:	8b 45 f4             	mov    -0xc(%ebp),%eax
  803661:	8d 50 01             	lea    0x1(%eax),%edx
  803664:	89 55 f4             	mov    %edx,-0xc(%ebp)
  803667:	89 c2                	mov    %eax,%edx
  803669:	8b 45 dc             	mov    -0x24(%ebp),%eax
  80366c:	01 d0                	add    %edx,%eax
  80366e:	0f b6 00             	movzbl (%eax),%eax
  803671:	88 45 e3             	mov    %al,-0x1d(%ebp)
  803674:	c7 45 e4 00 00 00 00 	movl   $0x0,-0x1c(%ebp)
  80367b:	e9 b9 00 00 00       	jmp    803739 <.L35+0xdb>
  803680:	8b 4d f0             	mov    -0x10(%ebp),%ecx
  803683:	ba 67 66 66 66       	mov    $0x66666667,%edx
  803688:	89 c8                	mov    %ecx,%eax
  80368a:	f7 ea                	imul   %edx
  80368c:	c1 fa 07             	sar    $0x7,%edx
  80368f:	89 c8                	mov    %ecx,%eax
  803691:	c1 f8 1f             	sar    $0x1f,%eax
  803694:	29 c2                	sub    %eax,%edx
  803696:	89 d0                	mov    %edx,%eax
  803698:	c1 e0 02             	shl    $0x2,%eax
  80369b:	01 d0                	add    %edx,%eax
  80369d:	c1 e0 06             	shl    $0x6,%eax
  8036a0:	29 c1                	sub    %eax,%ecx
  8036a2:	89 c8                	mov    %ecx,%eax
  8036a4:	89 45 ec             	mov    %eax,-0x14(%ebp)
  8036a7:	8b 4d f0             	mov    -0x10(%ebp),%ecx
  8036aa:	ba 67 66 66 66       	mov    $0x66666667,%edx
  8036af:	89 c8                	mov    %ecx,%eax
  8036b1:	f7 ea                	imul   %edx
  8036b3:	c1 fa 07             	sar    $0x7,%edx
  8036b6:	89 c8                	mov    %ecx,%eax
  8036b8:	c1 f8 1f             	sar    $0x1f,%eax
  8036bb:	29 c2                	sub    %eax,%edx
  8036bd:	89 d0                	mov    %edx,%eax
  8036bf:	89 45 e8             	mov    %eax,-0x18(%ebp)
  8036c2:	8b 45 10             	mov    0x10(%ebp),%eax
  8036c5:	8b 50 20             	mov    0x20(%eax),%edx
  8036c8:	8b 45 10             	mov    0x10(%ebp),%eax
  8036cb:	0f b7 40 10          	movzwl 0x10(%eax),%eax
  8036cf:	0f b7 c0             	movzwl %ax,%eax
  8036d2:	0f af 45 e8          	imul   -0x18(%ebp),%eax
  8036d6:	89 c1                	mov    %eax,%ecx
  8036d8:	8b 45 ec             	mov    -0x14(%ebp),%eax
  8036db:	01 c8                	add    %ecx,%eax
  8036dd:	01 c2                	add    %eax,%edx
  8036df:	8b 4d f4             	mov    -0xc(%ebp),%ecx
  8036e2:	8b 45 dc             	mov    -0x24(%ebp),%eax
  8036e5:	01 c8                	add    %ecx,%eax
  8036e7:	0f b6 00             	movzbl (%eax),%eax
  8036ea:	88 02                	mov    %al,(%edx)
  8036ec:	83 45 ec 01          	addl   $0x1,-0x14(%ebp)
  8036f0:	81 7d ec 3f 01 00 00 	cmpl   $0x13f,-0x14(%ebp)
  8036f7:	7e 0b                	jle    803704 <.L35+0xa6>
  8036f9:	c7 45 ec 00 00 00 00 	movl   $0x0,-0x14(%ebp)
  803700:	83 45 e8 01          	addl   $0x1,-0x18(%ebp)
  803704:	8b 45 10             	mov    0x10(%ebp),%eax
  803707:	8b 50 20             	mov    0x20(%eax),%edx
  80370a:	8b 45 10             	mov    0x10(%ebp),%eax
  80370d:	0f b7 40 10          	movzwl 0x10(%eax),%eax
  803711:	0f b7 c0             	movzwl %ax,%eax
  803714:	0f af 45 e8          	imul   -0x18(%ebp),%eax
  803718:	89 c1                	mov    %eax,%ecx
  80371a:	8b 45 ec             	mov    -0x14(%ebp),%eax
  80371d:	01 c8                	add    %ecx,%eax
  80371f:	01 c2                	add    %eax,%edx
  803721:	8b 45 f4             	mov    -0xc(%ebp),%eax
  803724:	8d 48 01             	lea    0x1(%eax),%ecx
  803727:	8b 45 dc             	mov    -0x24(%ebp),%eax
  80372a:	01 c8                	add    %ecx,%eax
  80372c:	0f b6 00             	movzbl (%eax),%eax
  80372f:	88 02                	mov    %al,(%edx)
  803731:	83 45 f0 02          	addl   $0x2,-0x10(%ebp)
  803735:	83 45 e4 01          	addl   $0x1,-0x1c(%ebp)
  803739:	0f b6 45 e3          	movzbl -0x1d(%ebp),%eax
  80373d:	3b 45 e4             	cmp    -0x1c(%ebp),%eax
  803740:	0f 8d 3a ff ff ff    	jge    803680 <.L35+0x22>
  803746:	83 45 f4 02          	addl   $0x2,-0xc(%ebp)
  80374a:	e9 04 01 00 00       	jmp    803853 <.L36+0x104>

0080374f <.L36>:
  80374f:	8b 55 f4             	mov    -0xc(%ebp),%edx
  803752:	8b 45 dc             	mov    -0x24(%ebp),%eax
  803755:	01 d0                	add    %edx,%eax
  803757:	0f b6 00             	movzbl (%eax),%eax
  80375a:	0f b6 c0             	movzbl %al,%eax
  80375d:	8b 55 f4             	mov    -0xc(%ebp),%edx
  803760:	8d 4a 01             	lea    0x1(%edx),%ecx
  803763:	8b 55 dc             	mov    -0x24(%ebp),%edx
  803766:	01 ca                	add    %ecx,%edx
  803768:	0f b6 12             	movzbl (%edx),%edx
  80376b:	0f b6 d2             	movzbl %dl,%edx
  80376e:	c1 e2 08             	shl    $0x8,%edx
  803771:	09 d0                	or     %edx,%eax
  803773:	83 c0 01             	add    $0x1,%eax
  803776:	89 45 d4             	mov    %eax,-0x2c(%ebp)
  803779:	83 45 f4 02          	addl   $0x2,-0xc(%ebp)
  80377d:	c7 45 e4 00 00 00 00 	movl   $0x0,-0x1c(%ebp)
  803784:	e9 b9 00 00 00       	jmp    803842 <.L36+0xf3>
  803789:	8b 4d f0             	mov    -0x10(%ebp),%ecx
  80378c:	ba 67 66 66 66       	mov    $0x66666667,%edx
  803791:	89 c8                	mov    %ecx,%eax
  803793:	f7 ea                	imul   %edx
  803795:	c1 fa 07             	sar    $0x7,%edx
  803798:	89 c8                	mov    %ecx,%eax
  80379a:	c1 f8 1f             	sar    $0x1f,%eax
  80379d:	29 c2                	sub    %eax,%edx
  80379f:	89 d0                	mov    %edx,%eax
  8037a1:	c1 e0 02             	shl    $0x2,%eax
  8037a4:	01 d0                	add    %edx,%eax
  8037a6:	c1 e0 06             	shl    $0x6,%eax
  8037a9:	29 c1                	sub    %eax,%ecx
  8037ab:	89 c8                	mov    %ecx,%eax
  8037ad:	89 45 ec             	mov    %eax,-0x14(%ebp)
  8037b0:	8b 4d f0             	mov    -0x10(%ebp),%ecx
  8037b3:	ba 67 66 66 66       	mov    $0x66666667,%edx
  8037b8:	89 c8                	mov    %ecx,%eax
  8037ba:	f7 ea                	imul   %edx
  8037bc:	c1 fa 07             	sar    $0x7,%edx
  8037bf:	89 c8                	mov    %ecx,%eax
  8037c1:	c1 f8 1f             	sar    $0x1f,%eax
  8037c4:	29 c2                	sub    %eax,%edx
  8037c6:	89 d0                	mov    %edx,%eax
  8037c8:	89 45 e8             	mov    %eax,-0x18(%ebp)
  8037cb:	8b 45 10             	mov    0x10(%ebp),%eax
  8037ce:	8b 50 20             	mov    0x20(%eax),%edx
  8037d1:	8b 45 10             	mov    0x10(%ebp),%eax
  8037d4:	0f b7 40 10          	movzwl 0x10(%eax),%eax
  8037d8:	0f b7 c0             	movzwl %ax,%eax
  8037db:	0f af 45 e8          	imul   -0x18(%ebp),%eax
  8037df:	89 c1                	mov    %eax,%ecx
  8037e1:	8b 45 ec             	mov    -0x14(%ebp),%eax
  8037e4:	01 c8                	add    %ecx,%eax
  8037e6:	01 c2                	add    %eax,%edx
  8037e8:	8b 4d f4             	mov    -0xc(%ebp),%ecx
  8037eb:	8b 45 dc             	mov    -0x24(%ebp),%eax
  8037ee:	01 c8                	add    %ecx,%eax
  8037f0:	0f b6 00             	movzbl (%eax),%eax
  8037f3:	88 02                	mov    %al,(%edx)
  8037f5:	83 45 ec 01          	addl   $0x1,-0x14(%ebp)
  8037f9:	81 7d ec 3f 01 00 00 	cmpl   $0x13f,-0x14(%ebp)
  803800:	7e 0b                	jle    80380d <.L36+0xbe>
  803802:	c7 45 ec 00 00 00 00 	movl   $0x0,-0x14(%ebp)
  803809:	83 45 e8 01          	addl   $0x1,-0x18(%ebp)
  80380d:	8b 45 10             	mov    0x10(%ebp),%eax
  803810:	8b 50 20             	mov    0x20(%eax),%edx
  803813:	8b 45 10             	mov    0x10(%ebp),%eax
  803816:	0f b7 40 10          	movzwl 0x10(%eax),%eax
  80381a:	0f b7 c0             	movzwl %ax,%eax
  80381d:	0f af 45 e8          	imul   -0x18(%ebp),%eax
  803821:	89 c1                	mov    %eax,%ecx
  803823:	8b 45 ec             	mov    -0x14(%ebp),%eax
  803826:	01 c8                	add    %ecx,%eax
  803828:	01 c2                	add    %eax,%edx
  80382a:	8b 45 f4             	mov    -0xc(%ebp),%eax
  80382d:	8d 48 01             	lea    0x1(%eax),%ecx
  803830:	8b 45 dc             	mov    -0x24(%ebp),%eax
  803833:	01 c8                	add    %ecx,%eax
  803835:	0f b6 00             	movzbl (%eax),%eax
  803838:	88 02                	mov    %al,(%edx)
  80383a:	83 45 f0 02          	addl   $0x2,-0x10(%ebp)
  80383e:	83 45 e4 01          	addl   $0x1,-0x1c(%ebp)
  803842:	8b 45 e4             	mov    -0x1c(%ebp),%eax
  803845:	3b 45 d4             	cmp    -0x2c(%ebp),%eax
  803848:	0f 8c 3b ff ff ff    	jl     803789 <.L36+0x3a>
  80384e:	83 45 f4 02          	addl   $0x2,-0xc(%ebp)
  803852:	90                   	nop
  803853:	e9 a1 f6 ff ff       	jmp    802ef9 <.L58>

00803858 <.L59>:
  803858:	90                   	nop
  803859:	83 ec 0c             	sub    $0xc,%esp
  80385c:	ff 75 dc             	pushl  -0x24(%ebp)
  80385f:	e8 ac e1 02 00       	call   831a10 <free>
  803864:	83 c4 10             	add    $0x10,%esp
  803867:	b8 00 00 00 00       	mov    $0x0,%eax
  80386c:	8b 5d fc             	mov    -0x4(%ebp),%ebx
  80386f:	c9                   	leave  
  803870:	c3                   	ret    

00803871 <PAL_RNGPlay>:
  803871:	55                   	push   %ebp
  803872:	89 e5                	mov    %esp,%ebp
  803874:	53                   	push   %ebx
  803875:	83 ec 14             	sub    $0x14,%esp
  803878:	e8 63 c9 ff ff       	call   8001e0 <__x86.get_pc_thunk.bx>
  80387d:	81 c3 83 77 04 00    	add    $0x47783,%ebx
  803883:	83 7d 14 00          	cmpl   $0x0,0x14(%ebp)
  803887:	74 0b                	je     803894 <PAL_RNGPlay+0x23>
  803889:	b8 20 03 00 00       	mov    $0x320,%eax
  80388e:	99                   	cltd   
  80388f:	f7 7d 14             	idivl  0x14(%ebp)
  803892:	eb 05                	jmp    803899 <PAL_RNGPlay+0x28>
  803894:	b8 32 00 00 00       	mov    $0x32,%eax
  803899:	89 45 f4             	mov    %eax,-0xc(%ebp)
  80389c:	83 ec 0c             	sub    $0xc,%esp
  80389f:	8d 83 4c 68 ff ff    	lea    -0x97b4(%ebx),%eax
  8038a5:	50                   	push   %eax
  8038a6:	e8 e0 04 00 00       	call   803d8b <UTIL_OpenRequiredFile>
  8038ab:	83 c4 10             	add    $0x10,%esp
  8038ae:	89 45 f0             	mov    %eax,-0x10(%ebp)
  8038b1:	e9 c8 00 00 00       	jmp    80397e <PAL_RNGPlay+0x10d>
  8038b6:	e8 1b d9 01 00       	call   8211d6 <SDL_GetTicks>
  8038bb:	89 c2                	mov    %eax,%edx
  8038bd:	8b 45 f4             	mov    -0xc(%ebp),%eax
  8038c0:	01 d0                	add    %edx,%eax
  8038c2:	89 45 ec             	mov    %eax,-0x14(%ebp)
  8038c5:	c7 c0 a0 c3 85 00    	mov    $0x85c3a0,%eax
  8038cb:	8b 00                	mov    (%eax),%eax
  8038cd:	ff 75 f0             	pushl  -0x10(%ebp)
  8038d0:	50                   	push   %eax
  8038d1:	ff 75 0c             	pushl  0xc(%ebp)
  8038d4:	ff 75 08             	pushl  0x8(%ebp)
  8038d7:	e8 13 f5 ff ff       	call   802def <PAL_RNGBlitToSurface>
  8038dc:	83 c4 10             	add    $0x10,%esp
  8038df:	83 f8 ff             	cmp    $0xffffffff,%eax
  8038e2:	75 13                	jne    8038f7 <PAL_RNGPlay+0x86>
  8038e4:	83 ec 0c             	sub    $0xc,%esp
  8038e7:	ff 75 f0             	pushl  -0x10(%ebp)
  8038ea:	e8 71 c8 02 00       	call   830160 <fclose>
  8038ef:	83 c4 10             	add    $0x10,%esp
  8038f2:	e9 a1 00 00 00       	jmp    803998 <PAL_RNGPlay+0x127>
  8038f7:	83 ec 0c             	sub    $0xc,%esp
  8038fa:	6a 00                	push   $0x0
  8038fc:	e8 24 e6 ff ff       	call   801f25 <VIDEO_UpdateScreen>
  803901:	83 c4 10             	add    $0x10,%esp
  803904:	c7 c0 34 d1 85 00    	mov    $0x85d134,%eax
  80390a:	8b 00                	mov    (%eax),%eax
  80390c:	8b 80 d4 2a 00 00    	mov    0x2ad4(%eax),%eax
  803912:	85 c0                	test   %eax,%eax
  803914:	74 41                	je     803957 <PAL_RNGPlay+0xe6>
  803916:	c7 c0 34 d1 85 00    	mov    $0x85d134,%eax
  80391c:	8b 00                	mov    (%eax),%eax
  80391e:	8b 90 50 44 00 00    	mov    0x4450(%eax),%edx
  803924:	c7 c0 34 d1 85 00    	mov    $0x85d134,%eax
  80392a:	8b 00                	mov    (%eax),%eax
  80392c:	0f b7 80 4c 44 00 00 	movzwl 0x444c(%eax),%eax
  803933:	0f b7 c0             	movzwl %ax,%eax
  803936:	83 ec 04             	sub    $0x4,%esp
  803939:	6a 01                	push   $0x1
  80393b:	52                   	push   %edx
  80393c:	50                   	push   %eax
  80393d:	e8 37 d1 ff ff       	call   800a79 <PAL_FadeIn>
  803942:	83 c4 10             	add    $0x10,%esp
  803945:	c7 c0 34 d1 85 00    	mov    $0x85d134,%eax
  80394b:	8b 00                	mov    (%eax),%eax
  80394d:	c7 80 d4 2a 00 00 00 	movl   $0x0,0x2ad4(%eax)
  803954:	00 00 00 
  803957:	e8 01 e3 ff ff       	call   801c5d <PAL_ProcessEvent>
  80395c:	eb 12                	jmp    803970 <PAL_RNGPlay+0xff>
  80395e:	e8 fa e2 ff ff       	call   801c5d <PAL_ProcessEvent>
  803963:	83 ec 0c             	sub    $0xc,%esp
  803966:	6a 01                	push   $0x1
  803968:	e8 87 d8 01 00       	call   8211f4 <SDL_Delay>
  80396d:	83 c4 10             	add    $0x10,%esp
  803970:	e8 61 d8 01 00       	call   8211d6 <SDL_GetTicks>
  803975:	3b 45 ec             	cmp    -0x14(%ebp),%eax
  803978:	76 e4                	jbe    80395e <PAL_RNGPlay+0xed>
  80397a:	83 45 0c 01          	addl   $0x1,0xc(%ebp)
  80397e:	8b 45 0c             	mov    0xc(%ebp),%eax
  803981:	3b 45 10             	cmp    0x10(%ebp),%eax
  803984:	0f 8e 2c ff ff ff    	jle    8038b6 <PAL_RNGPlay+0x45>
  80398a:	83 ec 0c             	sub    $0xc,%esp
  80398d:	ff 75 f0             	pushl  -0x10(%ebp)
  803990:	e8 cb c7 02 00       	call   830160 <fclose>
  803995:	83 c4 10             	add    $0x10,%esp
  803998:	8b 5d fc             	mov    -0x4(%ebp),%ebx
  80399b:	c9                   	leave  
  80399c:	c3                   	ret    

0080399d <cli>:
  80399d:	55                   	push   %ebp
  80399e:	89 e5                	mov    %esp,%ebp
  8039a0:	e8 37 c8 ff ff       	call   8001dc <__x86.get_pc_thunk.ax>
  8039a5:	05 5b 76 04 00       	add    $0x4765b,%eax
  8039aa:	fa                   	cli    
  8039ab:	90                   	nop
  8039ac:	5d                   	pop    %ebp
  8039ad:	c3                   	ret    

008039ae <trim>:
  8039ae:	55                   	push   %ebp
  8039af:	89 e5                	mov    %esp,%ebp
  8039b1:	83 ec 10             	sub    $0x10,%esp
  8039b4:	e8 23 c8 ff ff       	call   8001dc <__x86.get_pc_thunk.ax>
  8039b9:	05 47 76 04 00       	add    $0x47647,%eax
  8039be:	c7 45 fc 00 00 00 00 	movl   $0x0,-0x4(%ebp)
  8039c5:	8b 45 08             	mov    0x8(%ebp),%eax
  8039c8:	89 45 f8             	mov    %eax,-0x8(%ebp)
  8039cb:	eb 04                	jmp    8039d1 <trim+0x23>
  8039cd:	83 45 fc 01          	addl   $0x1,-0x4(%ebp)
  8039d1:	8b 55 fc             	mov    -0x4(%ebp),%edx
  8039d4:	8b 45 08             	mov    0x8(%ebp),%eax
  8039d7:	01 d0                	add    %edx,%eax
  8039d9:	0f b6 00             	movzbl (%eax),%eax
  8039dc:	3c 20                	cmp    $0x20,%al
  8039de:	7f 2b                	jg     803a0b <trim+0x5d>
  8039e0:	8b 55 fc             	mov    -0x4(%ebp),%edx
  8039e3:	8b 45 08             	mov    0x8(%ebp),%eax
  8039e6:	01 d0                	add    %edx,%eax
  8039e8:	0f b6 00             	movzbl (%eax),%eax
  8039eb:	84 c0                	test   %al,%al
  8039ed:	7f de                	jg     8039cd <trim+0x1f>
  8039ef:	eb 1a                	jmp    803a0b <trim+0x5d>
  8039f1:	8b 45 f8             	mov    -0x8(%ebp),%eax
  8039f4:	8d 50 01             	lea    0x1(%eax),%edx
  8039f7:	89 55 f8             	mov    %edx,-0x8(%ebp)
  8039fa:	8b 4d fc             	mov    -0x4(%ebp),%ecx
  8039fd:	8b 55 08             	mov    0x8(%ebp),%edx
  803a00:	01 ca                	add    %ecx,%edx
  803a02:	0f b6 12             	movzbl (%edx),%edx
  803a05:	88 10                	mov    %dl,(%eax)
  803a07:	83 45 fc 01          	addl   $0x1,-0x4(%ebp)
  803a0b:	8b 55 fc             	mov    -0x4(%ebp),%edx
  803a0e:	8b 45 08             	mov    0x8(%ebp),%eax
  803a11:	01 d0                	add    %edx,%eax
  803a13:	0f b6 00             	movzbl (%eax),%eax
  803a16:	84 c0                	test   %al,%al
  803a18:	75 d7                	jne    8039f1 <trim+0x43>
  803a1a:	8b 45 f8             	mov    -0x8(%ebp),%eax
  803a1d:	8d 50 ff             	lea    -0x1(%eax),%edx
  803a20:	89 55 f8             	mov    %edx,-0x8(%ebp)
  803a23:	c6 00 00             	movb   $0x0,(%eax)
  803a26:	eb 0c                	jmp    803a34 <trim+0x86>
  803a28:	8b 45 f8             	mov    -0x8(%ebp),%eax
  803a2b:	8d 50 ff             	lea    -0x1(%eax),%edx
  803a2e:	89 55 f8             	mov    %edx,-0x8(%ebp)
  803a31:	c6 00 00             	movb   $0x0,(%eax)
  803a34:	8b 45 f8             	mov    -0x8(%ebp),%eax
  803a37:	3b 45 08             	cmp    0x8(%ebp),%eax
  803a3a:	72 14                	jb     803a50 <trim+0xa2>
  803a3c:	8b 45 f8             	mov    -0x8(%ebp),%eax
  803a3f:	0f b6 00             	movzbl (%eax),%eax
  803a42:	3c 20                	cmp    $0x20,%al
  803a44:	7f 0a                	jg     803a50 <trim+0xa2>
  803a46:	8b 45 f8             	mov    -0x8(%ebp),%eax
  803a49:	0f b6 00             	movzbl (%eax),%eax
  803a4c:	84 c0                	test   %al,%al
  803a4e:	7f d8                	jg     803a28 <trim+0x7a>
  803a50:	90                   	nop
  803a51:	c9                   	leave  
  803a52:	c3                   	ret    

00803a53 <va>:
  803a53:	55                   	push   %ebp
  803a54:	89 e5                	mov    %esp,%ebp
  803a56:	53                   	push   %ebx
  803a57:	83 ec 14             	sub    $0x14,%esp
  803a5a:	e8 81 c7 ff ff       	call   8001e0 <__x86.get_pc_thunk.bx>
  803a5f:	81 c3 a1 75 04 00    	add    $0x475a1,%ebx
  803a65:	8d 45 0c             	lea    0xc(%ebp),%eax
  803a68:	89 45 f4             	mov    %eax,-0xc(%ebp)
  803a6b:	8b 45 f4             	mov    -0xc(%ebp),%eax
  803a6e:	50                   	push   %eax
  803a6f:	ff 75 08             	pushl  0x8(%ebp)
  803a72:	68 00 01 00 00       	push   $0x100
  803a77:	8d 83 e0 13 01 00    	lea    0x113e0(%ebx),%eax
  803a7d:	50                   	push   %eax
  803a7e:	e8 cd 49 03 00       	call   838450 <vsnprintf>
  803a83:	83 c4 10             	add    $0x10,%esp
  803a86:	8d 83 e0 13 01 00    	lea    0x113e0(%ebx),%eax
  803a8c:	8b 5d fc             	mov    -0x4(%ebp),%ebx
  803a8f:	c9                   	leave  
  803a90:	c3                   	ret    

00803a91 <lsrand>:
  803a91:	55                   	push   %ebp
  803a92:	89 e5                	mov    %esp,%ebp
  803a94:	e8 43 c7 ff ff       	call   8001dc <__x86.get_pc_thunk.ax>
  803a99:	05 67 75 04 00       	add    $0x47567,%eax
  803a9e:	8b 55 08             	mov    0x8(%ebp),%edx
  803aa1:	69 d2 0d 66 19 00    	imul   $0x19660d,%edx,%edx
  803aa7:	81 c2 5f f3 6e 3c    	add    $0x3c6ef35f,%edx
  803aad:	89 90 c0 13 01 00    	mov    %edx,0x113c0(%eax)
  803ab3:	90                   	nop
  803ab4:	5d                   	pop    %ebp
  803ab5:	c3                   	ret    

00803ab6 <lrand>:
  803ab6:	55                   	push   %ebp
  803ab7:	89 e5                	mov    %esp,%ebp
  803ab9:	53                   	push   %ebx
  803aba:	83 ec 04             	sub    $0x4,%esp
  803abd:	e8 1e c7 ff ff       	call   8001e0 <__x86.get_pc_thunk.bx>
  803ac2:	81 c3 3e 75 04 00    	add    $0x4753e,%ebx
  803ac8:	8b 83 c0 13 01 00    	mov    0x113c0(%ebx),%eax
  803ace:	85 c0                	test   %eax,%eax
  803ad0:	75 11                	jne    803ae3 <lrand+0x2d>
  803ad2:	e8 ff d6 01 00       	call   8211d6 <SDL_GetTicks>
  803ad7:	83 ec 0c             	sub    $0xc,%esp
  803ada:	50                   	push   %eax
  803adb:	e8 b1 ff ff ff       	call   803a91 <lsrand>
  803ae0:	83 c4 10             	add    $0x10,%esp
  803ae3:	8b 83 c0 13 01 00    	mov    0x113c0(%ebx),%eax
  803ae9:	69 c0 0d 66 19 00    	imul   $0x19660d,%eax,%eax
  803aef:	05 5f f3 6e 3c       	add    $0x3c6ef35f,%eax
  803af4:	89 83 c0 13 01 00    	mov    %eax,0x113c0(%ebx)
  803afa:	8b 83 c0 13 01 00    	mov    0x113c0(%ebx),%eax
  803b00:	d1 f8                	sar    %eax
  803b02:	05 00 00 00 40       	add    $0x40000000,%eax
  803b07:	8b 5d fc             	mov    -0x4(%ebp),%ebx
  803b0a:	c9                   	leave  
  803b0b:	c3                   	ret    

00803b0c <RandomLong>:
  803b0c:	55                   	push   %ebp
  803b0d:	89 e5                	mov    %esp,%ebp
  803b0f:	53                   	push   %ebx
  803b10:	83 ec 04             	sub    $0x4,%esp
  803b13:	e8 c4 c6 ff ff       	call   8001dc <__x86.get_pc_thunk.ax>
  803b18:	05 e8 74 04 00       	add    $0x474e8,%eax
  803b1d:	8b 45 0c             	mov    0xc(%ebp),%eax
  803b20:	3b 45 08             	cmp    0x8(%ebp),%eax
  803b23:	7f 05                	jg     803b2a <RandomLong+0x1e>
  803b25:	8b 45 08             	mov    0x8(%ebp),%eax
  803b28:	eb 26                	jmp    803b50 <RandomLong+0x44>
  803b2a:	e8 87 ff ff ff       	call   803ab6 <lrand>
  803b2f:	89 c1                	mov    %eax,%ecx
  803b31:	8b 45 0c             	mov    0xc(%ebp),%eax
  803b34:	2b 45 08             	sub    0x8(%ebp),%eax
  803b37:	8d 58 01             	lea    0x1(%eax),%ebx
  803b3a:	b8 ff ff ff 7f       	mov    $0x7fffffff,%eax
  803b3f:	99                   	cltd   
  803b40:	f7 fb                	idiv   %ebx
  803b42:	89 c3                	mov    %eax,%ebx
  803b44:	89 c8                	mov    %ecx,%eax
  803b46:	99                   	cltd   
  803b47:	f7 fb                	idiv   %ebx
  803b49:	89 c2                	mov    %eax,%edx
  803b4b:	8b 45 08             	mov    0x8(%ebp),%eax
  803b4e:	01 d0                	add    %edx,%eax
  803b50:	83 c4 04             	add    $0x4,%esp
  803b53:	5b                   	pop    %ebx
  803b54:	5d                   	pop    %ebp
  803b55:	c3                   	ret    

00803b56 <RandomFloat>:
  803b56:	55                   	push   %ebp
  803b57:	89 e5                	mov    %esp,%ebp
  803b59:	53                   	push   %ebx
  803b5a:	83 ec 14             	sub    $0x14,%esp
  803b5d:	e8 7e c6 ff ff       	call   8001e0 <__x86.get_pc_thunk.bx>
  803b62:	81 c3 9e 74 04 00    	add    $0x4749e,%ebx
  803b68:	d9 45 08             	flds   0x8(%ebp)
  803b6b:	d9 45 0c             	flds   0xc(%ebp)
  803b6e:	d9 c9                	fxch   %st(1)
  803b70:	df e9                	fucomip %st(1),%st
  803b72:	dd d8                	fstp   %st(0)
  803b74:	72 05                	jb     803b7b <RandomFloat+0x25>
  803b76:	d9 45 08             	flds   0x8(%ebp)
  803b79:	eb 38                	jmp    803bb3 <RandomFloat+0x5d>
  803b7b:	e8 36 ff ff ff       	call   803ab6 <lrand>
  803b80:	89 c2                	mov    %eax,%edx
  803b82:	d9 45 0c             	flds   0xc(%ebp)
  803b85:	d8 65 08             	fsubs  0x8(%ebp)
  803b88:	d9 e8                	fld1   
  803b8a:	de c1                	faddp  %st,%st(1)
  803b8c:	d9 7d f6             	fnstcw -0xa(%ebp)
  803b8f:	0f b7 45 f6          	movzwl -0xa(%ebp),%eax
  803b93:	b4 0c                	mov    $0xc,%ah
  803b95:	66 89 45 f4          	mov    %ax,-0xc(%ebp)
  803b99:	d9 6d f4             	fldcw  -0xc(%ebp)
  803b9c:	db 5d f0             	fistpl -0x10(%ebp)
  803b9f:	d9 6d f6             	fldcw  -0xa(%ebp)
  803ba2:	8b 4d f0             	mov    -0x10(%ebp),%ecx
  803ba5:	89 d0                	mov    %edx,%eax
  803ba7:	99                   	cltd   
  803ba8:	f7 f9                	idiv   %ecx
  803baa:	89 55 ec             	mov    %edx,-0x14(%ebp)
  803bad:	db 45 ec             	fildl  -0x14(%ebp)
  803bb0:	d8 45 08             	fadds  0x8(%ebp)
  803bb3:	83 c4 14             	add    $0x14,%esp
  803bb6:	5b                   	pop    %ebx
  803bb7:	5d                   	pop    %ebp
  803bb8:	c3                   	ret    

00803bb9 <UTIL_Delay>:
  803bb9:	55                   	push   %ebp
  803bba:	89 e5                	mov    %esp,%ebp
  803bbc:	53                   	push   %ebx
  803bbd:	83 ec 14             	sub    $0x14,%esp
  803bc0:	e8 1b c6 ff ff       	call   8001e0 <__x86.get_pc_thunk.bx>
  803bc5:	81 c3 3b 74 04 00    	add    $0x4743b,%ebx
  803bcb:	e8 06 d6 01 00       	call   8211d6 <SDL_GetTicks>
  803bd0:	89 c2                	mov    %eax,%edx
  803bd2:	8b 45 08             	mov    0x8(%ebp),%eax
  803bd5:	01 d0                	add    %edx,%eax
  803bd7:	89 45 f4             	mov    %eax,-0xc(%ebp)
  803bda:	90                   	nop
  803bdb:	83 ec 0c             	sub    $0xc,%esp
  803bde:	6a 00                	push   $0x0
  803be0:	e8 9d e0 ff ff       	call   801c82 <PAL_PollEvent>
  803be5:	83 c4 10             	add    $0x10,%esp
  803be8:	85 c0                	test   %eax,%eax
  803bea:	75 ef                	jne    803bdb <UTIL_Delay+0x22>
  803bec:	eb 1f                	jmp    803c0d <UTIL_Delay+0x54>
  803bee:	83 ec 0c             	sub    $0xc,%esp
  803bf1:	6a 01                	push   $0x1
  803bf3:	e8 fc d5 01 00       	call   8211f4 <SDL_Delay>
  803bf8:	83 c4 10             	add    $0x10,%esp
  803bfb:	90                   	nop
  803bfc:	83 ec 0c             	sub    $0xc,%esp
  803bff:	6a 00                	push   $0x0
  803c01:	e8 7c e0 ff ff       	call   801c82 <PAL_PollEvent>
  803c06:	83 c4 10             	add    $0x10,%esp
  803c09:	85 c0                	test   %eax,%eax
  803c0b:	75 ef                	jne    803bfc <UTIL_Delay+0x43>
  803c0d:	e8 c4 d5 01 00       	call   8211d6 <SDL_GetTicks>
  803c12:	3b 45 f4             	cmp    -0xc(%ebp),%eax
  803c15:	72 d7                	jb     803bee <UTIL_Delay+0x35>
  803c17:	90                   	nop
  803c18:	8b 5d fc             	mov    -0x4(%ebp),%ebx
  803c1b:	c9                   	leave  
  803c1c:	c3                   	ret    

00803c1d <TerminateOnError>:
  803c1d:	55                   	push   %ebp
  803c1e:	89 e5                	mov    %esp,%ebp
  803c20:	53                   	push   %ebx
  803c21:	81 ec 14 01 00 00    	sub    $0x114,%esp
  803c27:	e8 b4 c5 ff ff       	call   8001e0 <__x86.get_pc_thunk.bx>
  803c2c:	81 c3 d4 73 04 00    	add    $0x473d4,%ebx
  803c32:	8d 45 0c             	lea    0xc(%ebp),%eax
  803c35:	89 45 f4             	mov    %eax,-0xc(%ebp)
  803c38:	8b 45 f4             	mov    -0xc(%ebp),%eax
  803c3b:	50                   	push   %eax
  803c3c:	ff 75 08             	pushl  0x8(%ebp)
  803c3f:	68 00 01 00 00       	push   $0x100
  803c44:	8d 85 f4 fe ff ff    	lea    -0x10c(%ebp),%eax
  803c4a:	50                   	push   %eax
  803c4b:	e8 00 48 03 00       	call   838450 <vsnprintf>
  803c50:	83 c4 10             	add    $0x10,%esp
  803c53:	e8 48 dc 02 00       	call   8318a0 <__getreent>
  803c58:	8b 40 0c             	mov    0xc(%eax),%eax
  803c5b:	83 ec 04             	sub    $0x4,%esp
  803c5e:	8d 95 f4 fe ff ff    	lea    -0x10c(%ebp),%edx
  803c64:	52                   	push   %edx
  803c65:	8d 93 54 68 ff ff    	lea    -0x97ac(%ebx),%edx
  803c6b:	52                   	push   %edx
  803c6c:	50                   	push   %eax
  803c6d:	e8 2e ce 02 00       	call   830aa0 <fprintf>
  803c72:	83 c4 10             	add    $0x10,%esp
  803c75:	e8 23 fd ff ff       	call   80399d <cli>
  803c7a:	83 ec 0c             	sub    $0xc,%esp
  803c7d:	8d 85 f4 fe ff ff    	lea    -0x10c(%ebp),%eax
  803c83:	50                   	push   %eax
  803c84:	8d 83 cc 69 ff ff    	lea    -0x9634(%ebx),%eax
  803c8a:	50                   	push   %eax
  803c8b:	68 3c 01 00 00       	push   $0x13c
  803c90:	8d 83 66 68 ff ff    	lea    -0x979a(%ebx),%eax
  803c96:	50                   	push   %eax
  803c97:	8d 83 80 68 ff ff    	lea    -0x9780(%ebx),%eax
  803c9d:	50                   	push   %eax
  803c9e:	e8 6d e7 02 00       	call   832410 <printf>
  803ca3:	83 c4 20             	add    $0x20,%esp
  803ca6:	b8 01 00 00 00       	mov    $0x1,%eax
  803cab:	82 e8 57             	sub    $0x57,%al
  803cae:	19 01                	sbb    %eax,(%ecx)
  803cb0:	00 83 ec 0c 68 ff    	add    %al,-0x97f314(%ebx)
  803cb6:	00 00                	add    %al,(%eax)
  803cb8:	00 e8                	add    %ch,%al
  803cba:	72 c3                	jb     803c7f <TerminateOnError+0x62>
  803cbc:	02 00                	add    (%eax),%al

00803cbe <UTIL_malloc>:
  803cbe:	55                   	push   %ebp
  803cbf:	89 e5                	mov    %esp,%ebp
  803cc1:	53                   	push   %ebx
  803cc2:	83 ec 14             	sub    $0x14,%esp
  803cc5:	e8 16 c5 ff ff       	call   8001e0 <__x86.get_pc_thunk.bx>
  803cca:	81 c3 36 73 04 00    	add    $0x47336,%ebx
  803cd0:	83 7d 08 00          	cmpl   $0x0,0x8(%ebp)
  803cd4:	75 15                	jne    803ceb <UTIL_malloc+0x2d>
  803cd6:	83 ec 08             	sub    $0x8,%esp
  803cd9:	ff 75 08             	pushl  0x8(%ebp)
  803cdc:	8d 83 dc 68 ff ff    	lea    -0x9724(%ebx),%eax
  803ce2:	50                   	push   %eax
  803ce3:	e8 35 ff ff ff       	call   803c1d <TerminateOnError>
  803ce8:	83 c4 10             	add    $0x10,%esp
  803ceb:	83 ec 0c             	sub    $0xc,%esp
  803cee:	ff 75 08             	pushl  0x8(%ebp)
  803cf1:	e8 fa dc 02 00       	call   8319f0 <malloc>
  803cf6:	83 c4 10             	add    $0x10,%esp
  803cf9:	89 45 f4             	mov    %eax,-0xc(%ebp)
  803cfc:	83 7d f4 00          	cmpl   $0x0,-0xc(%ebp)
  803d00:	75 15                	jne    803d17 <UTIL_malloc+0x59>
  803d02:	83 ec 08             	sub    $0x8,%esp
  803d05:	ff 75 08             	pushl  0x8(%ebp)
  803d08:	8d 83 10 69 ff ff    	lea    -0x96f0(%ebx),%eax
  803d0e:	50                   	push   %eax
  803d0f:	e8 09 ff ff ff       	call   803c1d <TerminateOnError>
  803d14:	83 c4 10             	add    $0x10,%esp
  803d17:	8b 45 f4             	mov    -0xc(%ebp),%eax
  803d1a:	8b 5d fc             	mov    -0x4(%ebp),%ebx
  803d1d:	c9                   	leave  
  803d1e:	c3                   	ret    

00803d1f <UTIL_calloc>:
  803d1f:	55                   	push   %ebp
  803d20:	89 e5                	mov    %esp,%ebp
  803d22:	53                   	push   %ebx
  803d23:	83 ec 14             	sub    $0x14,%esp
  803d26:	e8 b5 c4 ff ff       	call   8001e0 <__x86.get_pc_thunk.bx>
  803d2b:	81 c3 d5 72 04 00    	add    $0x472d5,%ebx
  803d31:	83 7d 08 00          	cmpl   $0x0,0x8(%ebp)
  803d35:	74 06                	je     803d3d <UTIL_calloc+0x1e>
