
nemu：     文件格式 elf32-i386


Disassembly of section .init:

00002568 <_init>:
    2568:	53                   	push   %ebx
    2569:	83 ec 08             	sub    $0x8,%esp
    256c:	e8 4f 07 00 00       	call   2cc0 <__x86.get_pc_thunk.bx>
    2571:	81 c3 8f 8a 02 00    	add    $0x28a8f,%ebx
    2577:	8b 83 ec ff ff ff    	mov    -0x14(%ebx),%eax
    257d:	85 c0                	test   %eax,%eax
    257f:	74 05                	je     2586 <_init+0x1e>
    2581:	e8 42 03 00 00       	call   28c8 <.plt.got+0x8>
    2586:	83 c4 08             	add    $0x8,%esp
    2589:	5b                   	pop    %ebx
    258a:	c3                   	ret    

Disassembly of section .plt:

00002590 <.plt>:
    2590:	ff b3 04 00 00 00    	pushl  0x4(%ebx)
    2596:	ff a3 08 00 00 00    	jmp    *0x8(%ebx)
    259c:	00 00                	add    %al,(%eax)
	...

000025a0 <fread@plt>:
    25a0:	ff a3 0c 00 00 00    	jmp    *0xc(%ebx)
    25a6:	68 00 00 00 00       	push   $0x0
    25ab:	e9 e0 ff ff ff       	jmp    2590 <.plt>

000025b0 <SDL_Quit@plt>:
    25b0:	ff a3 10 00 00 00    	jmp    *0x10(%ebx)
    25b6:	68 08 00 00 00       	push   $0x8
    25bb:	e9 d0 ff ff ff       	jmp    2590 <.plt>

000025c0 <SDL_Flip@plt>:
    25c0:	ff a3 14 00 00 00    	jmp    *0x14(%ebx)
    25c6:	68 10 00 00 00       	push   $0x10
    25cb:	e9 c0 ff ff ff       	jmp    2590 <.plt>

000025d0 <fwrite@plt>:
    25d0:	ff a3 18 00 00 00    	jmp    *0x18(%ebx)
    25d6:	68 18 00 00 00       	push   $0x18
    25db:	e9 b0 ff ff ff       	jmp    2590 <.plt>

000025e0 <memcpy@plt>:
    25e0:	ff a3 1c 00 00 00    	jmp    *0x1c(%ebx)
    25e6:	68 20 00 00 00       	push   $0x20
    25eb:	e9 a0 ff ff ff       	jmp    2590 <.plt>

000025f0 <malloc@plt>:
    25f0:	ff a3 20 00 00 00    	jmp    *0x20(%ebx)
    25f6:	68 28 00 00 00       	push   $0x28
    25fb:	e9 90 ff ff ff       	jmp    2590 <.plt>

00002600 <SDL_EnableKeyRepeat@plt>:
    2600:	ff a3 24 00 00 00    	jmp    *0x24(%ebx)
    2606:	68 30 00 00 00       	push   $0x30
    260b:	e9 80 ff ff ff       	jmp    2590 <.plt>

00002610 <strlen@plt>:
    2610:	ff a3 28 00 00 00    	jmp    *0x28(%ebx)
    2616:	68 38 00 00 00       	push   $0x38
    261b:	e9 70 ff ff ff       	jmp    2590 <.plt>

00002620 <SDL_PollEvent@plt>:
    2620:	ff a3 2c 00 00 00    	jmp    *0x2c(%ebx)
    2626:	68 40 00 00 00       	push   $0x40
    262b:	e9 60 ff ff ff       	jmp    2590 <.plt>

00002630 <sprintf@plt>:
    2630:	ff a3 30 00 00 00    	jmp    *0x30(%ebx)
    2636:	68 48 00 00 00       	push   $0x48
    263b:	e9 50 ff ff ff       	jmp    2590 <.plt>

00002640 <SDL_Delay@plt>:
    2640:	ff a3 34 00 00 00    	jmp    *0x34(%ebx)
    2646:	68 50 00 00 00       	push   $0x50
    264b:	e9 40 ff ff ff       	jmp    2590 <.plt>

00002650 <strcmp@plt>:
    2650:	ff a3 38 00 00 00    	jmp    *0x38(%ebx)
    2656:	68 58 00 00 00       	push   $0x58
    265b:	e9 30 ff ff ff       	jmp    2590 <.plt>

00002660 <SDL_GetError@plt>:
    2660:	ff a3 3c 00 00 00    	jmp    *0x3c(%ebx)
    2666:	68 60 00 00 00       	push   $0x60
    266b:	e9 20 ff ff ff       	jmp    2590 <.plt>

00002670 <time@plt>:
    2670:	ff a3 40 00 00 00    	jmp    *0x40(%ebx)
    2676:	68 68 00 00 00       	push   $0x68
    267b:	e9 10 ff ff ff       	jmp    2590 <.plt>

00002680 <SDL_CreateThread@plt>:
    2680:	ff a3 44 00 00 00    	jmp    *0x44(%ebx)
    2686:	68 70 00 00 00       	push   $0x70
    268b:	e9 00 ff ff ff       	jmp    2590 <.plt>

00002690 <fflush@plt>:
    2690:	ff a3 48 00 00 00    	jmp    *0x48(%ebx)
    2696:	68 78 00 00 00       	push   $0x78
    269b:	e9 f0 fe ff ff       	jmp    2590 <.plt>

000026a0 <memcmp@plt>:
    26a0:	ff a3 4c 00 00 00    	jmp    *0x4c(%ebx)
    26a6:	68 80 00 00 00       	push   $0x80
    26ab:	e9 e0 fe ff ff       	jmp    2590 <.plt>

000026b0 <SDL_UpperBlit@plt>:
    26b0:	ff a3 50 00 00 00    	jmp    *0x50(%ebx)
    26b6:	68 88 00 00 00       	push   $0x88
    26bb:	e9 d0 fe ff ff       	jmp    2590 <.plt>

000026c0 <fseek@plt>:
    26c0:	ff a3 54 00 00 00    	jmp    *0x54(%ebx)
    26c6:	68 90 00 00 00       	push   $0x90
    26cb:	e9 c0 fe ff ff       	jmp    2590 <.plt>

000026d0 <SDL_Init@plt>:
    26d0:	ff a3 58 00 00 00    	jmp    *0x58(%ebx)
    26d6:	68 98 00 00 00       	push   $0x98
    26db:	e9 b0 fe ff ff       	jmp    2590 <.plt>

000026e0 <readline@plt>:
    26e0:	ff a3 5c 00 00 00    	jmp    *0x5c(%ebx)
    26e6:	68 a0 00 00 00       	push   $0xa0
    26eb:	e9 a0 fe ff ff       	jmp    2590 <.plt>

000026f0 <srand@plt>:
    26f0:	ff a3 60 00 00 00    	jmp    *0x60(%ebx)
    26f6:	68 a8 00 00 00       	push   $0xa8
    26fb:	e9 90 fe ff ff       	jmp    2590 <.plt>

00002700 <SDL_SetVideoMode@plt>:
    2700:	ff a3 64 00 00 00    	jmp    *0x64(%ebx)
    2706:	68 b0 00 00 00       	push   $0xb0
    270b:	e9 80 fe ff ff       	jmp    2590 <.plt>

00002710 <SDL_SetPalette@plt>:
    2710:	ff a3 68 00 00 00    	jmp    *0x68(%ebx)
    2716:	68 b8 00 00 00       	push   $0xb8
    271b:	e9 70 fe ff ff       	jmp    2590 <.plt>

00002720 <SDL_WM_SetCaption@plt>:
    2720:	ff a3 6c 00 00 00    	jmp    *0x6c(%ebx)
    2726:	68 c0 00 00 00       	push   $0xc0
    272b:	e9 60 fe ff ff       	jmp    2590 <.plt>

00002730 <__libc_start_main@plt>:
    2730:	ff a3 70 00 00 00    	jmp    *0x70(%ebx)
    2736:	68 c8 00 00 00       	push   $0xc8
    273b:	e9 50 fe ff ff       	jmp    2590 <.plt>

00002740 <__isoc99_sscanf@plt>:
    2740:	ff a3 74 00 00 00    	jmp    *0x74(%ebx)
    2746:	68 d0 00 00 00       	push   $0xd0
    274b:	e9 40 fe ff ff       	jmp    2590 <.plt>

00002750 <rand@plt>:
    2750:	ff a3 78 00 00 00    	jmp    *0x78(%ebx)
    2756:	68 d8 00 00 00       	push   $0xd8
    275b:	e9 30 fe ff ff       	jmp    2590 <.plt>

00002760 <__isoc99_scanf@plt>:
    2760:	ff a3 7c 00 00 00    	jmp    *0x7c(%ebx)
    2766:	68 e0 00 00 00       	push   $0xe0
    276b:	e9 20 fe ff ff       	jmp    2590 <.plt>

00002770 <regexec@plt>:
    2770:	ff a3 80 00 00 00    	jmp    *0x80(%ebx)
    2776:	68 e8 00 00 00       	push   $0xe8
    277b:	e9 10 fe ff ff       	jmp    2590 <.plt>

00002780 <free@plt>:
    2780:	ff a3 84 00 00 00    	jmp    *0x84(%ebx)
    2786:	68 f0 00 00 00       	push   $0xf0
    278b:	e9 00 fe ff ff       	jmp    2590 <.plt>

00002790 <add_history@plt>:
    2790:	ff a3 88 00 00 00    	jmp    *0x88(%ebx)
    2796:	68 f8 00 00 00       	push   $0xf8
    279b:	e9 f0 fd ff ff       	jmp    2590 <.plt>

000027a0 <regcomp@plt>:
    27a0:	ff a3 8c 00 00 00    	jmp    *0x8c(%ebx)
    27a6:	68 00 01 00 00       	push   $0x100
    27ab:	e9 e0 fd ff ff       	jmp    2590 <.plt>

000027b0 <SDL_CreateRGBSurface@plt>:
    27b0:	ff a3 90 00 00 00    	jmp    *0x90(%ebx)
    27b6:	68 08 01 00 00       	push   $0x108
    27bb:	e9 d0 fd ff ff       	jmp    2590 <.plt>

000027c0 <printf@plt>:
    27c0:	ff a3 94 00 00 00    	jmp    *0x94(%ebx)
    27c6:	68 10 01 00 00       	push   $0x110
    27cb:	e9 c0 fd ff ff       	jmp    2590 <.plt>

000027d0 <regerror@plt>:
    27d0:	ff a3 98 00 00 00    	jmp    *0x98(%ebx)
    27d6:	68 18 01 00 00       	push   $0x118
    27db:	e9 b0 fd ff ff       	jmp    2590 <.plt>

000027e0 <stpcpy@plt>:
    27e0:	ff a3 9c 00 00 00    	jmp    *0x9c(%ebx)
    27e6:	68 20 01 00 00       	push   $0x120
    27eb:	e9 a0 fd ff ff       	jmp    2590 <.plt>

000027f0 <strtok@plt>:
    27f0:	ff a3 a0 00 00 00    	jmp    *0xa0(%ebx)
    27f6:	68 28 01 00 00       	push   $0x128
    27fb:	e9 90 fd ff ff       	jmp    2590 <.plt>

00002800 <puts@plt>:
    2800:	ff a3 a4 00 00 00    	jmp    *0xa4(%ebx)
    2806:	68 30 01 00 00       	push   $0x130
    280b:	e9 80 fd ff ff       	jmp    2590 <.plt>

00002810 <_IO_putc@plt>:
    2810:	ff a3 a8 00 00 00    	jmp    *0xa8(%ebx)
    2816:	68 38 01 00 00       	push   $0x138
    281b:	e9 70 fd ff ff       	jmp    2590 <.plt>

00002820 <memset@plt>:
    2820:	ff a3 ac 00 00 00    	jmp    *0xac(%ebx)
    2826:	68 40 01 00 00       	push   $0x140
    282b:	e9 60 fd ff ff       	jmp    2590 <.plt>

00002830 <putchar@plt>:
    2830:	ff a3 b0 00 00 00    	jmp    *0xb0(%ebx)
    2836:	68 48 01 00 00       	push   $0x148
    283b:	e9 50 fd ff ff       	jmp    2590 <.plt>

00002840 <strspn@plt>:
    2840:	ff a3 b4 00 00 00    	jmp    *0xb4(%ebx)
    2846:	68 50 01 00 00       	push   $0x150
    284b:	e9 40 fd ff ff       	jmp    2590 <.plt>

00002850 <__strdup@plt>:
    2850:	ff a3 b8 00 00 00    	jmp    *0xb8(%ebx)
    2856:	68 58 01 00 00       	push   $0x158
    285b:	e9 30 fd ff ff       	jmp    2590 <.plt>

00002860 <fclose@plt>:
    2860:	ff a3 bc 00 00 00    	jmp    *0xbc(%ebx)
    2866:	68 60 01 00 00       	push   $0x160
    286b:	e9 20 fd ff ff       	jmp    2590 <.plt>

00002870 <SDL_WaitThread@plt>:
    2870:	ff a3 c0 00 00 00    	jmp    *0xc0(%ebx)
    2876:	68 68 01 00 00       	push   $0x168
    287b:	e9 10 fd ff ff       	jmp    2590 <.plt>

00002880 <strcpy@plt>:
    2880:	ff a3 c4 00 00 00    	jmp    *0xc4(%ebx)
    2886:	68 70 01 00 00       	push   $0x170
    288b:	e9 00 fd ff ff       	jmp    2590 <.plt>

00002890 <__assert_fail@plt>:
    2890:	ff a3 c8 00 00 00    	jmp    *0xc8(%ebx)
    2896:	68 78 01 00 00       	push   $0x178
    289b:	e9 f0 fc ff ff       	jmp    2590 <.plt>

000028a0 <fopen@plt>:
    28a0:	ff a3 cc 00 00 00    	jmp    *0xcc(%ebx)
    28a6:	68 80 01 00 00       	push   $0x180
    28ab:	e9 e0 fc ff ff       	jmp    2590 <.plt>

000028b0 <ftell@plt>:
    28b0:	ff a3 d0 00 00 00    	jmp    *0xd0(%ebx)
    28b6:	68 88 01 00 00       	push   $0x188
    28bb:	e9 d0 fc ff ff       	jmp    2590 <.plt>

Disassembly of section .plt.got:

000028c0 <.plt.got>:
    28c0:	ff a3 d0 ff ff ff    	jmp    *-0x30(%ebx)
    28c6:	66 90                	xchg   %ax,%ax
    28c8:	ff a3 ec ff ff ff    	jmp    *-0x14(%ebx)
    28ce:	66 90                	xchg   %ax,%ax

Disassembly of section .text:

000028d0 <draw_pixel.part.1>:
    28d0:	53                   	push   %ebx
    28d1:	e8 ea 03 00 00       	call   2cc0 <__x86.get_pc_thunk.bx>
    28d6:	81 c3 2a 87 02 00    	add    $0x2872a,%ebx
    28dc:	83 ec 08             	sub    $0x8,%esp
    28df:	8d 83 9c fb fe ff    	lea    -0x10464(%ebx),%eax
    28e5:	50                   	push   %eax
    28e6:	8d 83 4b fb fe ff    	lea    -0x104b5(%ebx),%eax
    28ec:	6a 19                	push   $0x19
    28ee:	50                   	push   %eax
    28ef:	8d 83 64 fb fe ff    	lea    -0x1049c(%ebx),%eax
    28f5:	50                   	push   %eax
    28f6:	e8 95 ff ff ff       	call   2890 <__assert_fail@plt>

000028fb <hw_mem_write.part.1>:
    28fb:	53                   	push   %ebx
    28fc:	e8 bf 03 00 00       	call   2cc0 <__x86.get_pc_thunk.bx>
    2901:	81 c3 ff 86 02 00    	add    $0x286ff,%ebx
    2907:	83 ec 08             	sub    $0x8,%esp
    290a:	8d 83 a0 1e ff ff    	lea    -0xe160(%ebx),%eax
    2910:	50                   	push   %eax
    2911:	8d 83 17 1e ff ff    	lea    -0xe1e9(%ebx),%eax
    2917:	6a 16                	push   $0x16
    2919:	50                   	push   %eax
    291a:	8d 83 2b 1e ff ff    	lea    -0xe1d5(%ebx),%eax
    2920:	50                   	push   %eax
    2921:	e8 6a ff ff ff       	call   2890 <__assert_fail@plt>
    2926:	66 90                	xchg   %ax,%ax
    2928:	66 90                	xchg   %ax,%ax
    292a:	66 90                	xchg   %ax,%ax
    292c:	66 90                	xchg   %ax,%ax
    292e:	66 90                	xchg   %ax,%ax

00002930 <main>:
    2930:	8d 4c 24 04          	lea    0x4(%esp),%ecx
    2934:	83 e4 f0             	and    $0xfffffff0,%esp
    2937:	ff 71 fc             	pushl  -0x4(%ecx)
    293a:	55                   	push   %ebp
    293b:	89 e5                	mov    %esp,%ebp
    293d:	57                   	push   %edi
    293e:	56                   	push   %esi
    293f:	53                   	push   %ebx
    2940:	51                   	push   %ecx
    2941:	e8 7a 03 00 00       	call   2cc0 <__x86.get_pc_thunk.bx>
    2946:	81 c3 ba 86 02 00    	add    $0x286ba,%ebx
    294c:	83 ec 38             	sub    $0x38,%esp
    294f:	8b 01                	mov    (%ecx),%eax
    2951:	8b 51 04             	mov    0x4(%ecx),%edx
    2954:	83 f8 01             	cmp    $0x1,%eax
    2957:	0f 84 15 03 00 00    	je     2c72 <main+0x342>
    295d:	83 f8 03             	cmp    $0x3,%eax
    2960:	0f 84 bf 01 00 00    	je     2b25 <main+0x1f5>
    2966:	83 f8 02             	cmp    $0x2,%eax
    2969:	0f 85 93 01 00 00    	jne    2b02 <main+0x1d2>
    296f:	8b 72 04             	mov    0x4(%edx),%esi
    2972:	8d 83 13 12 ff ff    	lea    -0xeded(%ebx),%eax
    2978:	51                   	push   %ecx
    2979:	51                   	push   %ecx
    297a:	50                   	push   %eax
    297b:	56                   	push   %esi
    297c:	e8 cf fc ff ff       	call   2650 <strcmp@plt>
    2981:	83 c4 10             	add    $0x10,%esp
    2984:	85 c0                	test   %eax,%eax
    2986:	0f 84 39 02 00 00    	je     2bc5 <main+0x295>
    298c:	8d 83 1c 12 ff ff    	lea    -0xede4(%ebx),%eax
    2992:	52                   	push   %edx
    2993:	52                   	push   %edx
    2994:	50                   	push   %eax
    2995:	56                   	push   %esi
    2996:	e8 b5 fc ff ff       	call   2650 <strcmp@plt>
    299b:	83 c4 10             	add    $0x10,%esp
    299e:	85 c0                	test   %eax,%eax
    29a0:	0f 85 9b 02 00 00    	jne    2c41 <main+0x311>
    29a6:	c6 83 a2 14 05 00 01 	movb   $0x1,0x514a2(%ebx)
    29ad:	c6 83 a1 14 05 00 01 	movb   $0x1,0x514a1(%ebx)
    29b4:	80 bb a0 14 05 00 00 	cmpb   $0x0,0x514a0(%ebx)
    29bb:	0f 85 4c 02 00 00    	jne    2c0d <main+0x2dd>
    29c1:	8d 83 bc fc ff ff    	lea    -0x344(%ebx),%eax
    29c7:	8d bb 40 fc ff ff    	lea    -0x3c0(%ebx),%edi
    29cd:	8d b3 cf 14 05 00    	lea    0x514cf(%ebx),%esi
    29d3:	89 45 e4             	mov    %eax,-0x1c(%ebp)
    29d6:	8d 05 40 15 05 00    	lea    0x51540,%eax
    29dc:	89 45 d0             	mov    %eax,-0x30(%ebp)
    29df:	8d 05 44 15 05 00    	lea    0x51544,%eax
    29e5:	89 45 cc             	mov    %eax,-0x34(%ebp)
    29e8:	8d 05 48 15 05 00    	lea    0x51548,%eax
    29ee:	89 45 c8             	mov    %eax,-0x38(%ebp)
    29f1:	8d 05 4c 15 05 00    	lea    0x5154c,%eax
    29f7:	89 45 c4             	mov    %eax,-0x3c(%ebp)
    29fa:	8d 05 c0 14 05 00    	lea    0x514c0,%eax
    2a00:	89 45 e0             	mov    %eax,-0x20(%ebp)
    2a03:	8d 05 c4 14 05 00    	lea    0x514c4,%eax
    2a09:	89 45 dc             	mov    %eax,-0x24(%ebp)
    2a0c:	8d 05 c8 14 05 00    	lea    0x514c8,%eax
    2a12:	89 45 d8             	mov    %eax,-0x28(%ebp)
    2a15:	8d 05 cc 14 05 00    	lea    0x514cc,%eax
    2a1b:	89 45 d4             	mov    %eax,-0x2c(%ebp)
    2a1e:	8d 83 4f 15 05 00    	lea    0x5154f(%ebx),%eax
    2a24:	89 45 bc             	mov    %eax,-0x44(%ebp)
    2a27:	e9 90 00 00 00       	jmp    2abc <main+0x18c>
    2a2c:	8d 74 26 00          	lea    0x0(%esi,%eiz,1),%esi
    2a30:	c7 04 18 2e 2f 74 65 	movl   $0x65742f2e,(%eax,%ebx,1)
    2a37:	8b 45 cc             	mov    -0x34(%ebp),%eax
    2a3a:	83 ec 08             	sub    $0x8,%esp
    2a3d:	8b 0f                	mov    (%edi),%ecx
    2a3f:	c7 04 18 73 74 63 61 	movl   $0x61637473,(%eax,%ebx,1)
    2a46:	8b 45 c8             	mov    -0x38(%ebp),%eax
    2a49:	89 4d c0             	mov    %ecx,-0x40(%ebp)
    2a4c:	c7 04 18 73 65 2f 62 	movl   $0x622f6573,(%eax,%ebx,1)
    2a53:	8b 45 c4             	mov    -0x3c(%ebp),%eax
    2a56:	c7 04 18 69 6e 2f 00 	movl   $0x2f6e69,(%eax,%ebx,1)
    2a5d:	51                   	push   %ecx
    2a5e:	ff 75 bc             	pushl  -0x44(%ebp)
    2a61:	e8 7a fd ff ff       	call   27e0 <stpcpy@plt>
    2a66:	8b 4d c0             	mov    -0x40(%ebp),%ecx
    2a69:	c7 00 2e 69 6d 67    	movl   $0x676d692e,(%eax)
    2a6f:	83 c4 10             	add    $0x10,%esp
    2a72:	c6 40 04 00          	movb   $0x0,0x4(%eax)
    2a76:	8b 45 e0             	mov    -0x20(%ebp),%eax
    2a79:	83 ec 08             	sub    $0x8,%esp
    2a7c:	83 c7 04             	add    $0x4,%edi
    2a7f:	c7 04 18 2e 2f 74 65 	movl   $0x65742f2e,(%eax,%ebx,1)
    2a86:	8b 45 dc             	mov    -0x24(%ebp),%eax
    2a89:	c7 04 18 73 74 63 61 	movl   $0x61637473,(%eax,%ebx,1)
    2a90:	8b 45 d8             	mov    -0x28(%ebp),%eax
    2a93:	c7 04 18 73 65 2f 62 	movl   $0x622f6573,(%eax,%ebx,1)
    2a9a:	8b 45 d4             	mov    -0x2c(%ebp),%eax
    2a9d:	c7 04 18 69 6e 2f 00 	movl   $0x2f6e69,(%eax,%ebx,1)
    2aa4:	51                   	push   %ecx
    2aa5:	56                   	push   %esi
    2aa6:	e8 d5 fd ff ff       	call   2880 <strcpy@plt>
    2aab:	e8 30 4b 01 00       	call   175e0 <single_run>
    2ab0:	83 c4 10             	add    $0x10,%esp
    2ab3:	39 7d e4             	cmp    %edi,-0x1c(%ebp)
    2ab6:	0f 84 3f 01 00 00    	je     2bfb <main+0x2cb>
    2abc:	80 bb a1 14 05 00 00 	cmpb   $0x0,0x514a1(%ebx)
    2ac3:	8b 45 d0             	mov    -0x30(%ebp),%eax
    2ac6:	0f 84 64 ff ff ff    	je     2a30 <main+0x100>
    2acc:	c7 04 18 2e 2f 6b 65 	movl   $0x656b2f2e,(%eax,%ebx,1)
    2ad3:	8b 45 cc             	mov    -0x34(%ebp),%eax
    2ad6:	8b 0f                	mov    (%edi),%ecx
    2ad8:	c7 04 18 72 6e 65 6c 	movl   $0x6c656e72,(%eax,%ebx,1)
    2adf:	8b 45 c8             	mov    -0x38(%ebp),%eax
    2ae2:	c7 04 18 2f 6b 65 72 	movl   $0x72656b2f,(%eax,%ebx,1)
    2ae9:	8b 45 c4             	mov    -0x3c(%ebp),%eax
    2aec:	c7 04 18 6e 65 6c 2e 	movl   $0x2e6c656e,(%eax,%ebx,1)
    2af3:	c7 83 50 15 05 00 69 	movl   $0x676d69,0x51550(%ebx)
    2afa:	6d 67 00 
    2afd:	e9 74 ff ff ff       	jmp    2a76 <main+0x146>
    2b02:	8d 83 2f 12 ff ff    	lea    -0xedd1(%ebx),%eax
    2b08:	83 ec 0c             	sub    $0xc,%esp
    2b0b:	50                   	push   %eax
    2b0c:	e8 ef fc ff ff       	call   2800 <puts@plt>
    2b11:	83 c4 10             	add    $0x10,%esp
    2b14:	b8 01 00 00 00       	mov    $0x1,%eax
    2b19:	8d 65 f0             	lea    -0x10(%ebp),%esp
    2b1c:	59                   	pop    %ecx
    2b1d:	5b                   	pop    %ebx
    2b1e:	5e                   	pop    %esi
    2b1f:	5f                   	pop    %edi
    2b20:	5d                   	pop    %ebp
    2b21:	8d 61 fc             	lea    -0x4(%ecx),%esp
    2b24:	c3                   	ret    
    2b25:	8b 72 04             	mov    0x4(%edx),%esi
    2b28:	50                   	push   %eax
    2b29:	50                   	push   %eax
    2b2a:	8d 83 d1 11 ff ff    	lea    -0xee2f(%ebx),%eax
    2b30:	89 55 e4             	mov    %edx,-0x1c(%ebp)
    2b33:	50                   	push   %eax
    2b34:	56                   	push   %esi
    2b35:	e8 16 fb ff ff       	call   2650 <strcmp@plt>
    2b3a:	83 c4 10             	add    $0x10,%esp
    2b3d:	85 c0                	test   %eax,%eax
    2b3f:	8b 55 e4             	mov    -0x1c(%ebp),%edx
    2b42:	0f 85 89 00 00 00    	jne    2bd1 <main+0x2a1>
    2b48:	8d 83 40 15 05 00    	lea    0x51540(%ebx),%eax
    2b4e:	8d b3 03 12 ff ff    	lea    -0xedfd(%ebx),%esi
    2b54:	b9 04 00 00 00       	mov    $0x4,%ecx
    2b59:	89 55 e0             	mov    %edx,-0x20(%ebp)
    2b5c:	89 c7                	mov    %eax,%edi
    2b5e:	89 75 e4             	mov    %esi,-0x1c(%ebp)
    2b61:	8d 83 4f 15 05 00    	lea    0x5154f(%ebx),%eax
    2b67:	f3 a5                	rep movsl %ds:(%esi),%es:(%edi)
    2b69:	56                   	push   %esi
    2b6a:	56                   	push   %esi
    2b6b:	ff 72 08             	pushl  0x8(%edx)
    2b6e:	50                   	push   %eax
    2b6f:	e8 6c fc ff ff       	call   27e0 <stpcpy@plt>
    2b74:	c7 00 2e 69 6d 67    	movl   $0x676d692e,(%eax)
    2b7a:	c6 40 04 00          	movb   $0x0,0x4(%eax)
    2b7e:	8d 83 c0 14 05 00    	lea    0x514c0(%ebx),%eax
    2b84:	8b 75 e4             	mov    -0x1c(%ebp),%esi
    2b87:	b9 04 00 00 00       	mov    $0x4,%ecx
    2b8c:	8b 55 e0             	mov    -0x20(%ebp),%edx
    2b8f:	89 c7                	mov    %eax,%edi
    2b91:	f3 a5                	rep movsl %ds:(%esi),%es:(%edi)
    2b93:	8d b3 cf 14 05 00    	lea    0x514cf(%ebx),%esi
    2b99:	5f                   	pop    %edi
    2b9a:	58                   	pop    %eax
    2b9b:	ff 72 08             	pushl  0x8(%edx)
    2b9e:	56                   	push   %esi
    2b9f:	e8 dc fc ff ff       	call   2880 <strcpy@plt>
    2ba4:	e8 37 4a 01 00       	call   175e0 <single_run>
    2ba9:	83 c4 10             	add    $0x10,%esp
    2bac:	80 bb a2 14 05 00 00 	cmpb   $0x0,0x514a2(%ebx)
    2bb3:	0f 85 fb fd ff ff    	jne    29b4 <main+0x84>
    2bb9:	e8 e2 11 00 00       	call   3da0 <close_sdl>
    2bbe:	31 c0                	xor    %eax,%eax
    2bc0:	e9 54 ff ff ff       	jmp    2b19 <main+0x1e9>
    2bc5:	c6 83 a2 14 05 00 01 	movb   $0x1,0x514a2(%ebx)
    2bcc:	e9 e3 fd ff ff       	jmp    29b4 <main+0x84>
    2bd1:	8d 83 d6 11 ff ff    	lea    -0xee2a(%ebx),%eax
    2bd7:	ff 72 08             	pushl  0x8(%edx)
    2bda:	56                   	push   %esi
    2bdb:	ff 32                	pushl  (%edx)
    2bdd:	50                   	push   %eax
    2bde:	e8 dd fb ff ff       	call   27c0 <printf@plt>
    2be3:	8d 83 e7 11 ff ff    	lea    -0xee19(%ebx),%eax
    2be9:	89 04 24             	mov    %eax,(%esp)
    2bec:	e8 0f fc ff ff       	call   2800 <puts@plt>
    2bf1:	83 c4 10             	add    $0x10,%esp
    2bf4:	31 c0                	xor    %eax,%eax
    2bf6:	e9 1e ff ff ff       	jmp    2b19 <main+0x1e9>
    2bfb:	80 bb a2 14 05 00 00 	cmpb   $0x0,0x514a2(%ebx)
    2c02:	74 b5                	je     2bb9 <main+0x289>
    2c04:	80 bb a0 14 05 00 00 	cmpb   $0x0,0x514a0(%ebx)
    2c0b:	74 ac                	je     2bb9 <main+0x289>
    2c0d:	8d 83 40 15 05 00    	lea    0x51540(%ebx),%eax
    2c13:	8d b3 46 12 ff ff    	lea    -0xedba(%ebx),%esi
    2c19:	b9 05 00 00 00       	mov    $0x5,%ecx
    2c1e:	89 c7                	mov    %eax,%edi
    2c20:	8d 83 c0 14 05 00    	lea    0x514c0(%ebx),%eax
    2c26:	f3 a5                	rep movsl %ds:(%esi),%es:(%edi)
    2c28:	8d b3 5a 12 ff ff    	lea    -0xeda6(%ebx),%esi
    2c2e:	89 c7                	mov    %eax,%edi
    2c30:	b9 03 00 00 00       	mov    $0x3,%ecx
    2c35:	f3 a5                	rep movsl %ds:(%esi),%es:(%edi)
    2c37:	e8 a4 49 01 00       	call   175e0 <single_run>
    2c3c:	e9 78 ff ff ff       	jmp    2bb9 <main+0x289>
    2c41:	50                   	push   %eax
    2c42:	50                   	push   %eax
    2c43:	8d 83 29 12 ff ff    	lea    -0xedd7(%ebx),%eax
    2c49:	50                   	push   %eax
    2c4a:	56                   	push   %esi
    2c4b:	e8 00 fa ff ff       	call   2650 <strcmp@plt>
    2c50:	83 c4 10             	add    $0x10,%esp
    2c53:	85 c0                	test   %eax,%eax
    2c55:	0f 85 51 ff ff ff    	jne    2bac <main+0x27c>
    2c5b:	c6 83 a2 14 05 00 01 	movb   $0x1,0x514a2(%ebx)
    2c62:	c6 83 a1 14 05 00 01 	movb   $0x1,0x514a1(%ebx)
    2c69:	c6 83 a0 14 05 00 01 	movb   $0x1,0x514a0(%ebx)
    2c70:	eb 9b                	jmp    2c0d <main+0x2dd>
    2c72:	e8 99 23 00 00       	call   5010 <reg_test>
    2c77:	e8 d4 64 00 00       	call   9150 <alu_test>
    2c7c:	e8 ef 70 00 00       	call   9d70 <fpu_test>
    2c81:	31 c0                	xor    %eax,%eax
    2c83:	e9 91 fe ff ff       	jmp    2b19 <main+0x1e9>

00002c88 <_start>:
    2c88:	31 ed                	xor    %ebp,%ebp
    2c8a:	5e                   	pop    %esi
    2c8b:	89 e1                	mov    %esp,%ecx
    2c8d:	83 e4 f0             	and    $0xfffffff0,%esp
    2c90:	50                   	push   %eax
    2c91:	54                   	push   %esp
    2c92:	52                   	push   %edx
    2c93:	e8 22 00 00 00       	call   2cba <_start+0x32>
    2c98:	81 c3 68 83 02 00    	add    $0x28368,%ebx
    2c9e:	8d 83 80 f9 fe ff    	lea    -0x10680(%ebx),%eax
    2ca4:	50                   	push   %eax
    2ca5:	8d 83 20 f9 fe ff    	lea    -0x106e0(%ebx),%eax
    2cab:	50                   	push   %eax
    2cac:	51                   	push   %ecx
    2cad:	56                   	push   %esi
    2cae:	ff b3 d4 ff ff ff    	pushl  -0x2c(%ebx)
    2cb4:	e8 77 fa ff ff       	call   2730 <__libc_start_main@plt>
    2cb9:	f4                   	hlt    
    2cba:	8b 1c 24             	mov    (%esp),%ebx
    2cbd:	c3                   	ret    
    2cbe:	66 90                	xchg   %ax,%ax

00002cc0 <__x86.get_pc_thunk.bx>:
    2cc0:	8b 1c 24             	mov    (%esp),%ebx
    2cc3:	c3                   	ret    
    2cc4:	66 90                	xchg   %ax,%ax
    2cc6:	66 90                	xchg   %ax,%ax
    2cc8:	66 90                	xchg   %ax,%ax
    2cca:	66 90                	xchg   %ax,%ax
    2ccc:	66 90                	xchg   %ax,%ax
    2cce:	66 90                	xchg   %ax,%ax

00002cd0 <deregister_tm_clones>:
    2cd0:	e8 17 01 00 00       	call   2dec <__x86.get_pc_thunk.dx>
    2cd5:	81 c2 2b 83 02 00    	add    $0x2832b,%edx
    2cdb:	8d 8a 78 13 00 00    	lea    0x1378(%edx),%ecx
    2ce1:	8d 82 7b 13 00 00    	lea    0x137b(%edx),%eax
    2ce7:	29 c8                	sub    %ecx,%eax
    2ce9:	83 f8 06             	cmp    $0x6,%eax
    2cec:	76 17                	jbe    2d05 <deregister_tm_clones+0x35>
    2cee:	8b 82 e8 ff ff ff    	mov    -0x18(%edx),%eax
    2cf4:	85 c0                	test   %eax,%eax
    2cf6:	74 0d                	je     2d05 <deregister_tm_clones+0x35>
    2cf8:	55                   	push   %ebp
    2cf9:	89 e5                	mov    %esp,%ebp
    2cfb:	83 ec 14             	sub    $0x14,%esp
    2cfe:	51                   	push   %ecx
    2cff:	ff d0                	call   *%eax
    2d01:	83 c4 10             	add    $0x10,%esp
    2d04:	c9                   	leave  
    2d05:	f3 c3                	repz ret 
    2d07:	89 f6                	mov    %esi,%esi
    2d09:	8d bc 27 00 00 00 00 	lea    0x0(%edi,%eiz,1),%edi

00002d10 <register_tm_clones>:
    2d10:	e8 d7 00 00 00       	call   2dec <__x86.get_pc_thunk.dx>
    2d15:	81 c2 eb 82 02 00    	add    $0x282eb,%edx
    2d1b:	55                   	push   %ebp
    2d1c:	8d 8a 78 13 00 00    	lea    0x1378(%edx),%ecx
    2d22:	8d 82 78 13 00 00    	lea    0x1378(%edx),%eax
    2d28:	89 e5                	mov    %esp,%ebp
    2d2a:	53                   	push   %ebx
    2d2b:	29 c8                	sub    %ecx,%eax
    2d2d:	c1 f8 02             	sar    $0x2,%eax
    2d30:	83 ec 04             	sub    $0x4,%esp
    2d33:	89 c3                	mov    %eax,%ebx
    2d35:	c1 eb 1f             	shr    $0x1f,%ebx
    2d38:	01 d8                	add    %ebx,%eax
    2d3a:	d1 f8                	sar    %eax
    2d3c:	74 14                	je     2d52 <register_tm_clones+0x42>
    2d3e:	8b 92 f0 ff ff ff    	mov    -0x10(%edx),%edx
    2d44:	85 d2                	test   %edx,%edx
    2d46:	74 0a                	je     2d52 <register_tm_clones+0x42>
    2d48:	83 ec 08             	sub    $0x8,%esp
    2d4b:	50                   	push   %eax
    2d4c:	51                   	push   %ecx
    2d4d:	ff d2                	call   *%edx
    2d4f:	83 c4 10             	add    $0x10,%esp
    2d52:	8b 5d fc             	mov    -0x4(%ebp),%ebx
    2d55:	c9                   	leave  
    2d56:	c3                   	ret    
    2d57:	89 f6                	mov    %esi,%esi
    2d59:	8d bc 27 00 00 00 00 	lea    0x0(%edi,%eiz,1),%edi

00002d60 <__do_global_dtors_aux>:
    2d60:	55                   	push   %ebp
    2d61:	89 e5                	mov    %esp,%ebp
    2d63:	53                   	push   %ebx
    2d64:	e8 57 ff ff ff       	call   2cc0 <__x86.get_pc_thunk.bx>
    2d69:	81 c3 97 82 02 00    	add    $0x28297,%ebx
    2d6f:	83 ec 04             	sub    $0x4,%esp
    2d72:	80 bb 80 13 00 00 00 	cmpb   $0x0,0x1380(%ebx)
    2d79:	75 27                	jne    2da2 <__do_global_dtors_aux+0x42>
    2d7b:	8b 83 d0 ff ff ff    	mov    -0x30(%ebx),%eax
    2d81:	85 c0                	test   %eax,%eax
    2d83:	74 11                	je     2d96 <__do_global_dtors_aux+0x36>
    2d85:	83 ec 0c             	sub    $0xc,%esp
    2d88:	ff b3 e4 00 00 00    	pushl  0xe4(%ebx)
    2d8e:	e8 2d fb ff ff       	call   28c0 <.plt.got>
    2d93:	83 c4 10             	add    $0x10,%esp
    2d96:	e8 35 ff ff ff       	call   2cd0 <deregister_tm_clones>
    2d9b:	c6 83 80 13 00 00 01 	movb   $0x1,0x1380(%ebx)
    2da2:	8b 5d fc             	mov    -0x4(%ebp),%ebx
    2da5:	c9                   	leave  
    2da6:	c3                   	ret    
    2da7:	89 f6                	mov    %esi,%esi
    2da9:	8d bc 27 00 00 00 00 	lea    0x0(%edi,%eiz,1),%edi

00002db0 <frame_dummy>:
    2db0:	e8 37 00 00 00       	call   2dec <__x86.get_pc_thunk.dx>
    2db5:	81 c2 4b 82 02 00    	add    $0x2824b,%edx
    2dbb:	8d 82 3c fc ff ff    	lea    -0x3c4(%edx),%eax
    2dc1:	8b 08                	mov    (%eax),%ecx
    2dc3:	85 c9                	test   %ecx,%ecx
    2dc5:	75 09                	jne    2dd0 <frame_dummy+0x20>
    2dc7:	e9 44 ff ff ff       	jmp    2d10 <register_tm_clones>
    2dcc:	8d 74 26 00          	lea    0x0(%esi,%eiz,1),%esi
    2dd0:	8b 92 e4 ff ff ff    	mov    -0x1c(%edx),%edx
    2dd6:	85 d2                	test   %edx,%edx
    2dd8:	74 ed                	je     2dc7 <frame_dummy+0x17>
    2dda:	55                   	push   %ebp
    2ddb:	89 e5                	mov    %esp,%ebp
    2ddd:	83 ec 14             	sub    $0x14,%esp
    2de0:	50                   	push   %eax
    2de1:	ff d2                	call   *%edx
    2de3:	83 c4 10             	add    $0x10,%esp
    2de6:	c9                   	leave  
    2de7:	e9 24 ff ff ff       	jmp    2d10 <register_tm_clones>

00002dec <__x86.get_pc_thunk.dx>:
    2dec:	8b 14 24             	mov    (%esp),%edx
    2def:	c3                   	ret    

00002df0 <pio_write>:
    2df0:	55                   	push   %ebp
    2df1:	57                   	push   %edi
    2df2:	56                   	push   %esi
    2df3:	53                   	push   %ebx
    2df4:	e8 c7 fe ff ff       	call   2cc0 <__x86.get_pc_thunk.bx>
    2df9:	81 c3 07 82 02 00    	add    $0x28207,%ebx
    2dff:	83 ec 2c             	sub    $0x2c,%esp
    2e02:	8b 7c 24 44          	mov    0x44(%esp),%edi
    2e06:	8b 54 24 40          	mov    0x40(%esp),%edx
    2e0a:	8b 44 24 48          	mov    0x48(%esp),%eax
    2e0e:	8d 4f ff             	lea    -0x1(%edi),%ecx
    2e11:	89 d6                	mov    %edx,%esi
    2e13:	83 f9 01             	cmp    $0x1,%ecx
    2e16:	76 09                	jbe    2e21 <pio_write+0x31>
    2e18:	83 ff 04             	cmp    $0x4,%edi
    2e1b:	0f 85 ac 00 00 00    	jne    2ecd <pio_write+0xdd>
    2e21:	0f b7 ea             	movzwl %dx,%ebp
    2e24:	89 44 24 1c          	mov    %eax,0x1c(%esp)
    2e28:	8d 4c 24 1c          	lea    0x1c(%esp),%ecx
    2e2c:	8d 84 2b a0 13 00 00 	lea    0x13a0(%ebx,%ebp,1),%eax
    2e33:	89 54 24 0c          	mov    %edx,0xc(%esp)
    2e37:	83 ec 04             	sub    $0x4,%esp
    2e3a:	57                   	push   %edi
    2e3b:	51                   	push   %ecx
    2e3c:	50                   	push   %eax
    2e3d:	e8 9e f7 ff ff       	call   25e0 <memcpy@plt>
    2e42:	83 c4 10             	add    $0x10,%esp
    2e45:	8b 54 24 0c          	mov    0xc(%esp),%edx
    2e49:	66 81 fa f0 01       	cmp    $0x1f0,%dx
    2e4e:	74 75                	je     2ec5 <pio_write+0xd5>
    2e50:	ba f1 01 00 00       	mov    $0x1f1,%edx
    2e55:	b8 01 00 00 00       	mov    $0x1,%eax
    2e5a:	eb 14                	jmp    2e70 <pio_write+0x80>
    2e5c:	8d 74 26 00          	lea    0x0(%esi,%eiz,1),%esi
    2e60:	83 c0 01             	add    $0x1,%eax
    2e63:	83 f8 1a             	cmp    $0x1a,%eax
    2e66:	74 30                	je     2e98 <pio_write+0xa8>
    2e68:	0f b7 94 c3 00 fe ff 	movzwl -0x200(%ebx,%eax,8),%edx
    2e6f:	ff 
    2e70:	66 39 d6             	cmp    %dx,%si
    2e73:	75 eb                	jne    2e60 <pio_write+0x70>
    2e75:	8b 84 c3 04 fe ff ff 	mov    -0x1fc(%ebx,%eax,8),%eax
    2e7c:	89 7c 24 44          	mov    %edi,0x44(%esp)
    2e80:	89 6c 24 40          	mov    %ebp,0x40(%esp)
    2e84:	c7 44 24 48 01 00 00 	movl   $0x1,0x48(%esp)
    2e8b:	00 
    2e8c:	83 c4 2c             	add    $0x2c,%esp
    2e8f:	5b                   	pop    %ebx
    2e90:	5e                   	pop    %esi
    2e91:	5f                   	pop    %edi
    2e92:	5d                   	pop    %ebp
    2e93:	ff e0                	jmp    *%eax
    2e95:	8d 76 00             	lea    0x0(%esi),%esi
    2e98:	8d 83 e4 f9 fe ff    	lea    -0x1061c(%ebx),%eax
    2e9e:	83 ec 04             	sub    $0x4,%esp
    2ea1:	55                   	push   %ebp
    2ea2:	55                   	push   %ebp
    2ea3:	50                   	push   %eax
    2ea4:	e8 17 f9 ff ff       	call   27c0 <printf@plt>
    2ea9:	8d 83 3c fa fe ff    	lea    -0x105c4(%ebx),%eax
    2eaf:	50                   	push   %eax
    2eb0:	8d 83 a8 f9 fe ff    	lea    -0x10658(%ebx),%eax
    2eb6:	6a 4d                	push   $0x4d
    2eb8:	50                   	push   %eax
    2eb9:	8d 83 74 1a ff ff    	lea    -0xe58c(%ebx),%eax
    2ebf:	50                   	push   %eax
    2ec0:	e8 cb f9 ff ff       	call   2890 <__assert_fail@plt>
    2ec5:	8d 83 c0 83 fd ff    	lea    -0x27c40(%ebx),%eax
    2ecb:	eb af                	jmp    2e7c <pio_write+0x8c>
    2ecd:	8d 83 3c fa fe ff    	lea    -0x105c4(%ebx),%eax
    2ed3:	50                   	push   %eax
    2ed4:	8d 83 a8 f9 fe ff    	lea    -0x10658(%ebx),%eax
    2eda:	6a 42                	push   $0x42
    2edc:	50                   	push   %eax
    2edd:	8d 83 c0 f9 fe ff    	lea    -0x10640(%ebx),%eax
    2ee3:	50                   	push   %eax
    2ee4:	e8 a7 f9 ff ff       	call   2890 <__assert_fail@plt>
    2ee9:	8d b4 26 00 00 00 00 	lea    0x0(%esi,%eiz,1),%esi

00002ef0 <pio_read>:
    2ef0:	57                   	push   %edi
    2ef1:	56                   	push   %esi
    2ef2:	53                   	push   %ebx
    2ef3:	e8 c8 fd ff ff       	call   2cc0 <__x86.get_pc_thunk.bx>
    2ef8:	81 c3 08 81 02 00    	add    $0x28108,%ebx
    2efe:	83 ec 10             	sub    $0x10,%esp
    2f01:	8b 7c 24 24          	mov    0x24(%esp),%edi
    2f05:	8b 74 24 20          	mov    0x20(%esp),%esi
    2f09:	8d 47 ff             	lea    -0x1(%edi),%eax
    2f0c:	89 f1                	mov    %esi,%ecx
    2f0e:	83 f8 01             	cmp    $0x1,%eax
    2f11:	76 09                	jbe    2f1c <pio_read+0x2c>
    2f13:	83 ff 04             	cmp    $0x4,%edi
    2f16:	0f 85 ac 00 00 00    	jne    2fc8 <pio_read+0xd8>
    2f1c:	66 81 fe f0 01       	cmp    $0x1f0,%si
    2f21:	0f 84 99 00 00 00    	je     2fc0 <pio_read+0xd0>
    2f27:	ba f1 01 00 00       	mov    $0x1f1,%edx
    2f2c:	b8 01 00 00 00       	mov    $0x1,%eax
    2f31:	eb 15                	jmp    2f48 <pio_read+0x58>
    2f33:	90                   	nop
    2f34:	8d 74 26 00          	lea    0x0(%esi,%eiz,1),%esi
    2f38:	83 c0 01             	add    $0x1,%eax
    2f3b:	83 f8 1a             	cmp    $0x1a,%eax
    2f3e:	74 50                	je     2f90 <pio_read+0xa0>
    2f40:	0f b7 94 c3 00 fe ff 	movzwl -0x200(%ebx,%eax,8),%edx
    2f47:	ff 
    2f48:	66 39 d1             	cmp    %dx,%cx
    2f4b:	75 eb                	jne    2f38 <pio_read+0x48>
    2f4d:	8b 84 c3 04 fe ff ff 	mov    -0x1fc(%ebx,%eax,8),%eax
    2f54:	83 ec 04             	sub    $0x4,%esp
    2f57:	0f b7 f6             	movzwl %si,%esi
    2f5a:	6a 00                	push   $0x0
    2f5c:	57                   	push   %edi
    2f5d:	56                   	push   %esi
    2f5e:	ff d0                	call   *%eax
    2f60:	8d 44 24 1c          	lea    0x1c(%esp),%eax
    2f64:	8d 94 33 a0 13 00 00 	lea    0x13a0(%ebx,%esi,1),%edx
    2f6b:	c7 44 24 1c 00 00 00 	movl   $0x0,0x1c(%esp)
    2f72:	00 
    2f73:	83 c4 0c             	add    $0xc,%esp
    2f76:	57                   	push   %edi
    2f77:	52                   	push   %edx
    2f78:	50                   	push   %eax
    2f79:	e8 62 f6 ff ff       	call   25e0 <memcpy@plt>
    2f7e:	8b 44 24 1c          	mov    0x1c(%esp),%eax
    2f82:	83 c4 20             	add    $0x20,%esp
    2f85:	5b                   	pop    %ebx
    2f86:	5e                   	pop    %esi
    2f87:	5f                   	pop    %edi
    2f88:	c3                   	ret    
    2f89:	8d b4 26 00 00 00 00 	lea    0x0(%esi,%eiz,1),%esi
    2f90:	8d 83 0c fa fe ff    	lea    -0x105f4(%ebx),%eax
    2f96:	83 ec 04             	sub    $0x4,%esp
    2f99:	0f b7 f6             	movzwl %si,%esi
    2f9c:	56                   	push   %esi
    2f9d:	56                   	push   %esi
    2f9e:	50                   	push   %eax
    2f9f:	e8 1c f8 ff ff       	call   27c0 <printf@plt>
    2fa4:	8d 83 30 fa fe ff    	lea    -0x105d0(%ebx),%eax
    2faa:	50                   	push   %eax
    2fab:	8d 83 a8 f9 fe ff    	lea    -0x10658(%ebx),%eax
    2fb1:	6a 5e                	push   $0x5e
    2fb3:	50                   	push   %eax
    2fb4:	8d 83 74 1a ff ff    	lea    -0xe58c(%ebx),%eax
    2fba:	50                   	push   %eax
    2fbb:	e8 d0 f8 ff ff       	call   2890 <__assert_fail@plt>
    2fc0:	8d 83 c0 83 fd ff    	lea    -0x27c40(%ebx),%eax
    2fc6:	eb 8c                	jmp    2f54 <pio_read+0x64>
    2fc8:	8d 83 30 fa fe ff    	lea    -0x105d0(%ebx),%eax
    2fce:	50                   	push   %eax
    2fcf:	8d 83 a8 f9 fe ff    	lea    -0x10658(%ebx),%eax
    2fd5:	6a 53                	push   $0x53
    2fd7:	50                   	push   %eax
    2fd8:	8d 83 c0 f9 fe ff    	lea    -0x10640(%ebx),%eax
    2fde:	50                   	push   %eax
    2fdf:	e8 ac f8 ff ff       	call   2890 <__assert_fail@plt>
    2fe4:	8d b6 00 00 00 00    	lea    0x0(%esi),%esi
    2fea:	8d bf 00 00 00 00    	lea    0x0(%edi),%edi

00002ff0 <write_io_port>:
    2ff0:	53                   	push   %ebx
    2ff1:	e8 ca fc ff ff       	call   2cc0 <__x86.get_pc_thunk.bx>
    2ff6:	81 c3 0a 80 02 00    	add    $0x2800a,%ebx
    2ffc:	83 ec 08             	sub    $0x8,%esp
    2fff:	0f b7 44 24 10       	movzwl 0x10(%esp),%eax
    3004:	8d 54 24 18          	lea    0x18(%esp),%edx
    3008:	83 ec 04             	sub    $0x4,%esp
    300b:	ff 74 24 18          	pushl  0x18(%esp)
    300f:	52                   	push   %edx
    3010:	8d 84 03 a0 13 00 00 	lea    0x13a0(%ebx,%eax,1),%eax
    3017:	50                   	push   %eax
    3018:	e8 c3 f5 ff ff       	call   25e0 <memcpy@plt>
    301d:	83 c4 18             	add    $0x18,%esp
    3020:	5b                   	pop    %ebx
    3021:	c3                   	ret    
    3022:	8d b4 26 00 00 00 00 	lea    0x0(%esi,%eiz,1),%esi
    3029:	8d bc 27 00 00 00 00 	lea    0x0(%edi,%eiz,1),%edi

00003030 <read_io_port>:
    3030:	53                   	push   %ebx
    3031:	e8 8a fc ff ff       	call   2cc0 <__x86.get_pc_thunk.bx>
    3036:	81 c3 ca 7f 02 00    	add    $0x27fca,%ebx
    303c:	83 ec 18             	sub    $0x18,%esp
    303f:	0f b7 54 24 20       	movzwl 0x20(%esp),%edx
    3044:	8d 44 24 0c          	lea    0xc(%esp),%eax
    3048:	c7 44 24 0c 00 00 00 	movl   $0x0,0xc(%esp)
    304f:	00 
    3050:	83 ec 04             	sub    $0x4,%esp
    3053:	ff 74 24 28          	pushl  0x28(%esp)
    3057:	8d 94 13 a0 13 00 00 	lea    0x13a0(%ebx,%edx,1),%edx
    305e:	52                   	push   %edx
    305f:	50                   	push   %eax
    3060:	e8 7b f5 ff ff       	call   25e0 <memcpy@plt>
    3065:	8b 44 24 1c          	mov    0x1c(%esp),%eax
    3069:	83 c4 28             	add    $0x28,%esp
    306c:	5b                   	pop    %ebx
    306d:	c3                   	ret    
    306e:	66 90                	xchg   %ax,%ax

00003070 <add_mmio_map>:
    3070:	55                   	push   %ebp
    3071:	57                   	push   %edi
    3072:	e8 75 fd ff ff       	call   2dec <__x86.get_pc_thunk.dx>
    3077:	81 c2 89 7f 02 00    	add    $0x27f89,%edx
    307d:	56                   	push   %esi
    307e:	53                   	push   %ebx
    307f:	83 ec 0c             	sub    $0xc,%esp
    3082:	8b 8a a0 13 01 00    	mov    0x113a0(%edx),%ecx
    3088:	8b 6c 24 20          	mov    0x20(%esp),%ebp
    308c:	8b 74 24 24          	mov    0x24(%esp),%esi
    3090:	83 f9 07             	cmp    $0x7,%ecx
    3093:	7f 53                	jg     30e8 <add_mmio_map+0x78>
    3095:	8b 82 40 14 01 00    	mov    0x11440(%edx),%eax
    309b:	8d 3c 30             	lea    (%eax,%esi,1),%edi
    309e:	81 ff 00 00 04 00    	cmp    $0x40000,%edi
    30a4:	77 60                	ja     3106 <add_mmio_map+0x96>
    30a6:	89 cb                	mov    %ecx,%ebx
    30a8:	8d 74 35 ff          	lea    -0x1(%ebp,%esi,1),%esi
    30ac:	8d 84 02 60 14 01 00 	lea    0x11460(%edx,%eax,1),%eax
    30b3:	c1 e3 04             	shl    $0x4,%ebx
    30b6:	83 c1 01             	add    $0x1,%ecx
    30b9:	89 ba 40 14 01 00    	mov    %edi,0x11440(%edx)
    30bf:	89 ac 1a c0 13 01 00 	mov    %ebp,0x113c0(%edx,%ebx,1)
    30c6:	8d 9c 1a c0 13 01 00 	lea    0x113c0(%edx,%ebx,1),%ebx
    30cd:	89 8a a0 13 01 00    	mov    %ecx,0x113a0(%edx)
    30d3:	89 73 04             	mov    %esi,0x4(%ebx)
    30d6:	8b 74 24 28          	mov    0x28(%esp),%esi
    30da:	89 43 08             	mov    %eax,0x8(%ebx)
    30dd:	89 73 0c             	mov    %esi,0xc(%ebx)
    30e0:	83 c4 0c             	add    $0xc,%esp
    30e3:	5b                   	pop    %ebx
    30e4:	5e                   	pop    %esi
    30e5:	5f                   	pop    %edi
    30e6:	5d                   	pop    %ebp
    30e7:	c3                   	ret    
    30e8:	8d 82 b4 fa fe ff    	lea    -0x1054c(%edx),%eax
    30ee:	89 d3                	mov    %edx,%ebx
    30f0:	50                   	push   %eax
    30f1:	8d 82 46 fa fe ff    	lea    -0x105ba(%edx),%eax
    30f7:	6a 15                	push   $0x15
    30f9:	50                   	push   %eax
    30fa:	8d 82 5c fa fe ff    	lea    -0x105a4(%edx),%eax
    3100:	50                   	push   %eax
    3101:	e8 8a f7 ff ff       	call   2890 <__assert_fail@plt>
    3106:	8d 82 b4 fa fe ff    	lea    -0x1054c(%edx),%eax
    310c:	89 d3                	mov    %edx,%ebx
    310e:	50                   	push   %eax
    310f:	8d 82 46 fa fe ff    	lea    -0x105ba(%edx),%eax
    3115:	6a 16                	push   $0x16
    3117:	50                   	push   %eax
    3118:	8d 82 6c fa fe ff    	lea    -0x10594(%edx),%eax
    311e:	50                   	push   %eax
    311f:	e8 6c f7 ff ff       	call   2890 <__assert_fail@plt>
    3124:	8d b6 00 00 00 00    	lea    0x0(%esi),%esi
    312a:	8d bf 00 00 00 00    	lea    0x0(%edi),%edi

00003130 <clear_mmio_map>:
    3130:	e8 b5 01 00 00       	call   32ea <__x86.get_pc_thunk.ax>
    3135:	05 cb 7e 02 00       	add    $0x27ecb,%eax
    313a:	c7 80 a0 13 01 00 00 	movl   $0x0,0x113a0(%eax)
    3141:	00 00 00 
    3144:	c7 80 40 14 01 00 00 	movl   $0x0,0x11440(%eax)
    314b:	00 00 00 
    314e:	c3                   	ret    
    314f:	90                   	nop

00003150 <is_mmio>:
    3150:	e8 95 01 00 00       	call   32ea <__x86.get_pc_thunk.ax>
    3155:	05 ab 7e 02 00       	add    $0x27eab,%eax
    315a:	53                   	push   %ebx
    315b:	8b 4c 24 08          	mov    0x8(%esp),%ecx
    315f:	8b 98 a0 13 01 00    	mov    0x113a0(%eax),%ebx
    3165:	85 db                	test   %ebx,%ebx
    3167:	7e 22                	jle    318b <is_mmio+0x3b>
    3169:	8d 90 c0 13 01 00    	lea    0x113c0(%eax),%edx
    316f:	31 c0                	xor    %eax,%eax
    3171:	8d b4 26 00 00 00 00 	lea    0x0(%esi,%eiz,1),%esi
    3178:	39 0a                	cmp    %ecx,(%edx)
    317a:	77 05                	ja     3181 <is_mmio+0x31>
    317c:	3b 4a 04             	cmp    0x4(%edx),%ecx
    317f:	76 0f                	jbe    3190 <is_mmio+0x40>
    3181:	83 c0 01             	add    $0x1,%eax
    3184:	83 c2 10             	add    $0x10,%edx
    3187:	39 d8                	cmp    %ebx,%eax
    3189:	75 ed                	jne    3178 <is_mmio+0x28>
    318b:	b8 ff ff ff ff       	mov    $0xffffffff,%eax
    3190:	5b                   	pop    %ebx
    3191:	c3                   	ret    
    3192:	8d b4 26 00 00 00 00 	lea    0x0(%esi,%eiz,1),%esi
    3199:	8d bc 27 00 00 00 00 	lea    0x0(%edi,%eiz,1),%edi

000031a0 <mmio_read>:
    31a0:	55                   	push   %ebp
    31a1:	57                   	push   %edi
    31a2:	56                   	push   %esi
    31a3:	53                   	push   %ebx
    31a4:	e8 17 fb ff ff       	call   2cc0 <__x86.get_pc_thunk.bx>
    31a9:	81 c3 57 7e 02 00    	add    $0x27e57,%ebx
    31af:	83 ec 0c             	sub    $0xc,%esp
    31b2:	8b 54 24 24          	mov    0x24(%esp),%edx
    31b6:	8b 74 24 20          	mov    0x20(%esp),%esi
    31ba:	8d 42 ff             	lea    -0x1(%edx),%eax
    31bd:	83 f8 01             	cmp    $0x1,%eax
    31c0:	76 05                	jbe    31c7 <mmio_read+0x27>
    31c2:	83 fa 04             	cmp    $0x4,%edx
    31c5:	75 42                	jne    3209 <mmio_read+0x69>
    31c7:	8b 44 24 28          	mov    0x28(%esp),%eax
    31cb:	89 f5                	mov    %esi,%ebp
    31cd:	b9 04 00 00 00       	mov    $0x4,%ecx
    31d2:	29 d1                	sub    %edx,%ecx
    31d4:	83 ec 04             	sub    $0x4,%esp
    31d7:	c1 e1 03             	shl    $0x3,%ecx
    31da:	c1 e0 04             	shl    $0x4,%eax
    31dd:	8d bc 03 c0 13 01 00 	lea    0x113c0(%ebx,%eax,1),%edi
    31e4:	2b ac 03 c0 13 01 00 	sub    0x113c0(%ebx,%eax,1),%ebp
    31eb:	bb ff ff ff ff       	mov    $0xffffffff,%ebx
    31f0:	d3 eb                	shr    %cl,%ebx
    31f2:	8b 47 08             	mov    0x8(%edi),%eax
    31f5:	23 1c 28             	and    (%eax,%ebp,1),%ebx
    31f8:	6a 00                	push   $0x0
    31fa:	52                   	push   %edx
    31fb:	56                   	push   %esi
    31fc:	ff 57 0c             	call   *0xc(%edi)
    31ff:	83 c4 1c             	add    $0x1c,%esp
    3202:	89 d8                	mov    %ebx,%eax
    3204:	5b                   	pop    %ebx
    3205:	5e                   	pop    %esi
    3206:	5f                   	pop    %edi
    3207:	5d                   	pop    %ebp
    3208:	c3                   	ret    
    3209:	8d 83 a8 fa fe ff    	lea    -0x10558(%ebx),%eax
    320f:	50                   	push   %eax
    3210:	8d 83 46 fa fe ff    	lea    -0x105ba(%ebx),%eax
    3216:	6a 33                	push   $0x33
    3218:	50                   	push   %eax
    3219:	8d 83 c0 f9 fe ff    	lea    -0x10640(%ebx),%eax
    321f:	50                   	push   %eax
    3220:	e8 6b f6 ff ff       	call   2890 <__assert_fail@plt>
    3225:	8d 74 26 00          	lea    0x0(%esi,%eiz,1),%esi
    3229:	8d bc 27 00 00 00 00 	lea    0x0(%edi,%eiz,1),%edi

00003230 <mmio_write>:
    3230:	55                   	push   %ebp
    3231:	57                   	push   %edi
    3232:	56                   	push   %esi
    3233:	53                   	push   %ebx
    3234:	e8 87 fa ff ff       	call   2cc0 <__x86.get_pc_thunk.bx>
    3239:	81 c3 c7 7d 02 00    	add    $0x27dc7,%ebx
    323f:	83 ec 1c             	sub    $0x1c,%esp
    3242:	8b 54 24 34          	mov    0x34(%esp),%edx
    3246:	8b 7c 24 30          	mov    0x30(%esp),%edi
    324a:	8d 42 ff             	lea    -0x1(%edx),%eax
    324d:	83 f8 01             	cmp    $0x1,%eax
    3250:	76 05                	jbe    3257 <mmio_write+0x27>
    3252:	83 fa 04             	cmp    $0x4,%edx
    3255:	75 77                	jne    32ce <mmio_write+0x9e>
    3257:	b9 04 00 00 00       	mov    $0x4,%ecx
    325c:	b8 ff ff ff ff       	mov    $0xffffffff,%eax
    3261:	89 fd                	mov    %edi,%ebp
    3263:	29 d1                	sub    %edx,%ecx
    3265:	c1 e1 03             	shl    $0x3,%ecx
    3268:	d3 e8                	shr    %cl,%eax
    326a:	8d 4c 24 0c          	lea    0xc(%esp),%ecx
    326e:	89 44 24 0c          	mov    %eax,0xc(%esp)
    3272:	8b 44 24 3c          	mov    0x3c(%esp),%eax
    3276:	c1 e0 04             	shl    $0x4,%eax
    3279:	2b ac 03 c0 13 01 00 	sub    0x113c0(%ebx,%eax,1),%ebp
    3280:	8b b4 03 c8 13 01 00 	mov    0x113c8(%ebx,%eax,1),%esi
    3287:	31 c0                	xor    %eax,%eax
    3289:	01 ee                	add    %ebp,%esi
    328b:	85 d2                	test   %edx,%edx
    328d:	89 cd                	mov    %ecx,%ebp
    328f:	74 1d                	je     32ae <mmio_write+0x7e>
    3291:	8d b4 26 00 00 00 00 	lea    0x0(%esi,%eiz,1),%esi
    3298:	80 7c 05 00 00       	cmpb   $0x0,0x0(%ebp,%eax,1)
    329d:	74 08                	je     32a7 <mmio_write+0x77>
    329f:	0f b6 4c 04 38       	movzbl 0x38(%esp,%eax,1),%ecx
    32a4:	88 0c 06             	mov    %cl,(%esi,%eax,1)
    32a7:	83 c0 01             	add    $0x1,%eax
    32aa:	39 d0                	cmp    %edx,%eax
    32ac:	75 ea                	jne    3298 <mmio_write+0x68>
    32ae:	83 ec 04             	sub    $0x4,%esp
    32b1:	8b 44 24 40          	mov    0x40(%esp),%eax
    32b5:	6a 01                	push   $0x1
    32b7:	52                   	push   %edx
    32b8:	57                   	push   %edi
    32b9:	c1 e0 04             	shl    $0x4,%eax
    32bc:	ff 94 03 cc 13 01 00 	call   *0x113cc(%ebx,%eax,1)
    32c3:	83 c4 10             	add    $0x10,%esp
    32c6:	83 c4 1c             	add    $0x1c,%esp
    32c9:	5b                   	pop    %ebx
    32ca:	5e                   	pop    %esi
    32cb:	5f                   	pop    %edi
    32cc:	5d                   	pop    %ebp
    32cd:	c3                   	ret    
    32ce:	8d 83 9c fa fe ff    	lea    -0x10564(%ebx),%eax
    32d4:	50                   	push   %eax
    32d5:	8d 83 46 fa fe ff    	lea    -0x105ba(%ebx),%eax
    32db:	6a 3c                	push   $0x3c
    32dd:	50                   	push   %eax
    32de:	8d 83 c0 f9 fe ff    	lea    -0x10640(%ebx),%eax
    32e4:	50                   	push   %eax
    32e5:	e8 a6 f5 ff ff       	call   2890 <__assert_fail@plt>

000032ea <__x86.get_pc_thunk.ax>:
    32ea:	8b 04 24             	mov    (%esp),%eax
    32ed:	c3                   	ret    
    32ee:	66 90                	xchg   %ax,%ax

000032f0 <i8259_query_intr_no>:
    32f0:	e8 f5 ff ff ff       	call   32ea <__x86.get_pc_thunk.ax>
    32f5:	05 0b 7d 02 00       	add    $0x27d0b,%eax
    32fa:	0f b6 80 e8 00 00 00 	movzbl 0xe8(%eax),%eax
    3301:	c3                   	ret    
    3302:	8d b4 26 00 00 00 00 	lea    0x0(%esi,%eiz,1),%esi
    3309:	8d bc 27 00 00 00 00 	lea    0x0(%edi,%eiz,1),%edi

00003310 <i8259_raise_intr>:
    3310:	0f b6 44 24 04       	movzbl 0x4(%esp),%eax
    3315:	e8 d2 fa ff ff       	call   2dec <__x86.get_pc_thunk.dx>
    331a:	81 c2 e6 7c 02 00    	add    $0x27ce6,%edx
    3320:	83 c0 20             	add    $0x20,%eax
    3323:	88 82 e8 00 00 00    	mov    %al,0xe8(%edx)
    3329:	8d 82 60 1d 05 00    	lea    0x51d60(%edx),%eax
    332f:	c6 80 a0 00 00 00 01 	movb   $0x1,0xa0(%eax)
    3336:	c3                   	ret    
    3337:	89 f6                	mov    %esi,%esi
    3339:	8d bc 27 00 00 00 00 	lea    0x0(%edi,%eiz,1),%edi

00003340 <i8259_ack_intr>:
    3340:	e8 a5 ff ff ff       	call   32ea <__x86.get_pc_thunk.ax>
    3345:	05 bb 7c 02 00       	add    $0x27cbb,%eax
    334a:	c6 80 e8 00 00 00 ff 	movb   $0xff,0xe8(%eax)
    3351:	8d 80 60 1d 05 00    	lea    0x51d60(%eax),%eax
    3357:	c6 80 a0 00 00 00 00 	movb   $0x0,0xa0(%eax)
    335e:	c3                   	ret    
    335f:	90                   	nop

00003360 <init_ide>:
    3360:	53                   	push   %ebx
    3361:	e8 5a f9 ff ff       	call   2cc0 <__x86.get_pc_thunk.bx>
    3366:	81 c3 9a 7c 02 00    	add    $0x27c9a,%ebx
    336c:	83 ec 10             	sub    $0x10,%esp
    336f:	8d 83 c1 fa fe ff    	lea    -0x1053f(%ebx),%eax
    3375:	50                   	push   %eax
    3376:	ff 74 24 1c          	pushl  0x1c(%esp)
    337a:	e8 21 f5 ff ff       	call   28a0 <fopen@plt>
    337f:	83 c4 10             	add    $0x10,%esp
    3382:	85 c0                	test   %eax,%eax
    3384:	89 83 60 14 05 00    	mov    %eax,0x51460(%ebx)
    338a:	74 16                	je     33a2 <init_ide+0x42>
    338c:	83 ec 04             	sub    $0x4,%esp
    338f:	6a 40                	push   $0x40
    3391:	6a 01                	push   $0x1
    3393:	68 f7 01 00 00       	push   $0x1f7
    3398:	e8 53 fc ff ff       	call   2ff0 <write_io_port>
    339d:	83 c4 18             	add    $0x18,%esp
    33a0:	5b                   	pop    %ebx
    33a1:	c3                   	ret    
    33a2:	8d 83 10 fb fe ff    	lea    -0x104f0(%ebx),%eax
    33a8:	50                   	push   %eax
    33a9:	8d 83 c4 fa fe ff    	lea    -0x1053c(%ebx),%eax
    33af:	6a 0f                	push   $0xf
    33b1:	50                   	push   %eax
    33b2:	8d 83 d9 fa fe ff    	lea    -0x10527(%ebx),%eax
    33b8:	50                   	push   %eax
    33b9:	e8 d2 f4 ff ff       	call   2890 <__assert_fail@plt>
    33be:	66 90                	xchg   %ax,%ax

000033c0 <handler_ide>:
    33c0:	56                   	push   %esi
    33c1:	53                   	push   %ebx
    33c2:	e8 f9 f8 ff ff       	call   2cc0 <__x86.get_pc_thunk.bx>
    33c7:	81 c3 39 7c 02 00    	add    $0x27c39,%ebx
    33cd:	83 ec 24             	sub    $0x24,%esp
    33d0:	81 bb 68 14 05 00 00 	cmpl   $0x200,0x51468(%ebx)
    33d7:	02 00 00 
    33da:	8b 44 24 30          	mov    0x30(%esp),%eax
    33de:	8b 54 24 38          	mov    0x38(%esp),%edx
    33e2:	0f 87 09 02 00 00    	ja     35f1 <handler_ide+0x231>
    33e8:	84 d2                	test   %dl,%dl
    33ea:	75 64                	jne    3450 <handler_ide+0x90>
    33ec:	66 3d f0 01          	cmp    $0x1f0,%ax
    33f0:	75 58                	jne    344a <handler_ide+0x8a>
    33f2:	83 7c 24 34 04       	cmpl   $0x4,0x34(%esp)
    33f7:	75 51                	jne    344a <handler_ide+0x8a>
    33f9:	80 bb 64 14 05 00 00 	cmpb   $0x0,0x51464(%ebx)
    3400:	0f 85 07 02 00 00    	jne    360d <handler_ide+0x24d>
    3406:	ff b3 60 14 05 00    	pushl  0x51460(%ebx)
    340c:	6a 01                	push   $0x1
    340e:	6a 04                	push   $0x4
    3410:	8d 44 24 28          	lea    0x28(%esp),%eax
    3414:	50                   	push   %eax
    3415:	e8 86 f1 ff ff       	call   25a0 <fread@plt>
    341a:	83 c4 0c             	add    $0xc,%esp
    341d:	ff 74 24 20          	pushl  0x20(%esp)
    3421:	6a 04                	push   $0x4
    3423:	68 f0 01 00 00       	push   $0x1f0
    3428:	e8 c3 fb ff ff       	call   2ff0 <write_io_port>
    342d:	8b 83 68 14 05 00    	mov    0x51468(%ebx),%eax
    3433:	89 44 24 1c          	mov    %eax,0x1c(%esp)
    3437:	83 c0 04             	add    $0x4,%eax
    343a:	83 c4 10             	add    $0x10,%esp
    343d:	3d 00 02 00 00       	cmp    $0x200,%eax
    3442:	89 83 68 14 05 00    	mov    %eax,0x51468(%ebx)
    3448:	74 64                	je     34ae <handler_ide+0xee>
    344a:	83 c4 24             	add    $0x24,%esp
    344d:	5b                   	pop    %ebx
    344e:	5e                   	pop    %esi
    344f:	c3                   	ret    
    3450:	66 3d f0 01          	cmp    $0x1f0,%ax
    3454:	75 72                	jne    34c8 <handler_ide+0x108>
    3456:	83 7c 24 34 04       	cmpl   $0x4,0x34(%esp)
    345b:	75 6b                	jne    34c8 <handler_ide+0x108>
    345d:	80 bb 64 14 05 00 00 	cmpb   $0x0,0x51464(%ebx)
    3464:	0f 84 bf 01 00 00    	je     3629 <handler_ide+0x269>
    346a:	83 ec 08             	sub    $0x8,%esp
    346d:	6a 04                	push   $0x4
    346f:	68 f0 01 00 00       	push   $0x1f0
    3474:	e8 b7 fb ff ff       	call   3030 <read_io_port>
    3479:	89 44 24 2c          	mov    %eax,0x2c(%esp)
    347d:	ff b3 60 14 05 00    	pushl  0x51460(%ebx)
    3483:	6a 01                	push   $0x1
    3485:	6a 04                	push   $0x4
    3487:	8d 44 24 38          	lea    0x38(%esp),%eax
    348b:	50                   	push   %eax
    348c:	e8 3f f1 ff ff       	call   25d0 <fwrite@plt>
    3491:	8b 83 68 14 05 00    	mov    0x51468(%ebx),%eax
    3497:	89 44 24 2c          	mov    %eax,0x2c(%esp)
    349b:	83 c0 04             	add    $0x4,%eax
    349e:	83 c4 20             	add    $0x20,%esp
    34a1:	3d 00 02 00 00       	cmp    $0x200,%eax
    34a6:	89 83 68 14 05 00    	mov    %eax,0x51468(%ebx)
    34ac:	75 9c                	jne    344a <handler_ide+0x8a>
    34ae:	83 ec 04             	sub    $0x4,%esp
    34b1:	6a 40                	push   $0x40
    34b3:	6a 01                	push   $0x1
    34b5:	68 f7 01 00 00       	push   $0x1f7
    34ba:	e8 31 fb ff ff       	call   2ff0 <write_io_port>
    34bf:	83 c4 10             	add    $0x10,%esp
    34c2:	eb 86                	jmp    344a <handler_ide+0x8a>
    34c4:	8d 74 26 00          	lea    0x0(%esi,%eiz,1),%esi
    34c8:	66 3d f7 01          	cmp    $0x1f7,%ax
    34cc:	0f 85 78 ff ff ff    	jne    344a <handler_ide+0x8a>
    34d2:	83 ec 08             	sub    $0x8,%esp
    34d5:	6a 01                	push   $0x1
    34d7:	68 f7 01 00 00       	push   $0x1f7
    34dc:	e8 4f fb ff ff       	call   3030 <read_io_port>
    34e1:	83 c4 10             	add    $0x10,%esp
    34e4:	83 f8 20             	cmp    $0x20,%eax
    34e7:	74 57                	je     3540 <handler_ide+0x180>
    34e9:	83 ec 08             	sub    $0x8,%esp
    34ec:	6a 01                	push   $0x1
    34ee:	68 f7 01 00 00       	push   $0x1f7
    34f3:	e8 38 fb ff ff       	call   3030 <read_io_port>
    34f8:	83 c4 10             	add    $0x10,%esp
    34fb:	83 f8 30             	cmp    $0x30,%eax
    34fe:	74 40                	je     3540 <handler_ide+0x180>
    3500:	83 ec 08             	sub    $0x8,%esp
    3503:	6a 01                	push   $0x1
    3505:	68 f7 01 00 00       	push   $0x1f7
    350a:	e8 21 fb ff ff       	call   3030 <read_io_port>
    350f:	83 c4 10             	add    $0x10,%esp
    3512:	3d c8 00 00 00       	cmp    $0xc8,%eax
    3517:	0f 84 2d ff ff ff    	je     344a <handler_ide+0x8a>
    351d:	8d 83 04 fb fe ff    	lea    -0x104fc(%ebx),%eax
    3523:	50                   	push   %eax
    3524:	8d 83 c4 fa fe ff    	lea    -0x1053c(%ebx),%eax
    352a:	6a 43                	push   $0x43
    352c:	50                   	push   %eax
    352d:	8d 83 74 1a ff ff    	lea    -0xe58c(%ebx),%eax
    3533:	50                   	push   %eax
    3534:	e8 57 f3 ff ff       	call   2890 <__assert_fail@plt>
    3539:	8d b4 26 00 00 00 00 	lea    0x0(%esi,%eiz,1),%esi
    3540:	83 ec 08             	sub    $0x8,%esp
    3543:	6a 01                	push   $0x1
    3545:	68 f6 01 00 00       	push   $0x1f6
    354a:	e8 e1 fa ff ff       	call   3030 <read_io_port>
    354f:	58                   	pop    %eax
    3550:	5a                   	pop    %edx
    3551:	6a 01                	push   $0x1
    3553:	68 f5 01 00 00       	push   $0x1f5
    3558:	e8 d3 fa ff ff       	call   3030 <read_io_port>
    355d:	59                   	pop    %ecx
    355e:	89 c6                	mov    %eax,%esi
    3560:	58                   	pop    %eax
    3561:	6a 01                	push   $0x1
    3563:	68 f4 01 00 00       	push   $0x1f4
    3568:	c1 e6 10             	shl    $0x10,%esi
    356b:	e8 c0 fa ff ff       	call   3030 <read_io_port>
    3570:	c1 e0 08             	shl    $0x8,%eax
    3573:	09 c6                	or     %eax,%esi
    3575:	58                   	pop    %eax
    3576:	5a                   	pop    %edx
    3577:	6a 01                	push   $0x1
    3579:	68 f3 01 00 00       	push   $0x1f3
    357e:	e8 ad fa ff ff       	call   3030 <read_io_port>
    3583:	09 f0                	or     %esi,%eax
    3585:	83 c4 0c             	add    $0xc,%esp
    3588:	c1 e0 09             	shl    $0x9,%eax
    358b:	6a 00                	push   $0x0
    358d:	50                   	push   %eax
    358e:	ff b3 60 14 05 00    	pushl  0x51460(%ebx)
    3594:	e8 27 f1 ff ff       	call   26c0 <fseek@plt>
    3599:	59                   	pop    %ecx
    359a:	5e                   	pop    %esi
    359b:	6a 01                	push   $0x1
    359d:	68 f7 01 00 00       	push   $0x1f7
    35a2:	c7 83 68 14 05 00 00 	movl   $0x0,0x51468(%ebx)
    35a9:	00 00 00 
    35ac:	e8 7f fa ff ff       	call   3030 <read_io_port>
    35b1:	83 c4 10             	add    $0x10,%esp
    35b4:	83 f8 20             	cmp    $0x20,%eax
    35b7:	74 0c                	je     35c5 <handler_ide+0x205>
    35b9:	c6 83 64 14 05 00 01 	movb   $0x1,0x51464(%ebx)
    35c0:	e9 85 fe ff ff       	jmp    344a <handler_ide+0x8a>
    35c5:	83 ec 04             	sub    $0x4,%esp
    35c8:	c6 83 64 14 05 00 00 	movb   $0x0,0x51464(%ebx)
    35cf:	6a 40                	push   $0x40
    35d1:	6a 01                	push   $0x1
    35d3:	68 f7 01 00 00       	push   $0x1f7
    35d8:	e8 13 fa ff ff       	call   2ff0 <write_io_port>
    35dd:	c7 04 24 0e 00 00 00 	movl   $0xe,(%esp)
    35e4:	e8 27 fd ff ff       	call   3310 <i8259_raise_intr>
    35e9:	83 c4 10             	add    $0x10,%esp
    35ec:	e9 59 fe ff ff       	jmp    344a <handler_ide+0x8a>
    35f1:	8d 83 04 fb fe ff    	lea    -0x104fc(%ebx),%eax
    35f7:	50                   	push   %eax
    35f8:	8d 83 c4 fa fe ff    	lea    -0x1053c(%ebx),%eax
    35fe:	6a 16                	push   $0x16
    3600:	50                   	push   %eax
    3601:	8d 83 e6 fa fe ff    	lea    -0x1051a(%ebx),%eax
    3607:	50                   	push   %eax
    3608:	e8 83 f2 ff ff       	call   2890 <__assert_fail@plt>
    360d:	8d 83 04 fb fe ff    	lea    -0x104fc(%ebx),%eax
    3613:	50                   	push   %eax
    3614:	8d 83 c4 fa fe ff    	lea    -0x1053c(%ebx),%eax
    361a:	6a 4a                	push   $0x4a
    361c:	50                   	push   %eax
    361d:	8d 83 f6 fa fe ff    	lea    -0x1050a(%ebx),%eax
    3623:	50                   	push   %eax
    3624:	e8 67 f2 ff ff       	call   2890 <__assert_fail@plt>
    3629:	8d 83 04 fb fe ff    	lea    -0x104fc(%ebx),%eax
    362f:	50                   	push   %eax
    3630:	8d 83 c4 fa fe ff    	lea    -0x1053c(%ebx),%eax
    3636:	6a 1a                	push   $0x1a
    3638:	50                   	push   %eax
    3639:	8d 83 f7 fa fe ff    	lea    -0x10509(%ebx),%eax
    363f:	50                   	push   %eax
    3640:	e8 4b f2 ff ff       	call   2890 <__assert_fail@plt>
    3645:	66 90                	xchg   %ax,%ax
    3647:	66 90                	xchg   %ax,%ax
    3649:	66 90                	xchg   %ax,%ax
    364b:	66 90                	xchg   %ax,%ax
    364d:	66 90                	xchg   %ax,%ax
    364f:	90                   	nop

00003650 <handler_serial>:
    3650:	56                   	push   %esi
    3651:	53                   	push   %ebx
    3652:	e8 69 f6 ff ff       	call   2cc0 <__x86.get_pc_thunk.bx>
    3657:	81 c3 a9 79 02 00    	add    $0x279a9,%ebx
    365d:	83 ec 04             	sub    $0x4,%esp
    3660:	80 7c 24 18 00       	cmpb   $0x0,0x18(%esp)
    3665:	8b 44 24 10          	mov    0x10(%esp),%eax
    3669:	74 0d                	je     3678 <handler_serial+0x28>
    366b:	83 7c 24 14 01       	cmpl   $0x1,0x14(%esp)
    3670:	75 41                	jne    36b3 <handler_serial+0x63>
    3672:	66 3d f8 03          	cmp    $0x3f8,%ax
    3676:	74 08                	je     3680 <handler_serial+0x30>
    3678:	83 c4 04             	add    $0x4,%esp
    367b:	5b                   	pop    %ebx
    367c:	5e                   	pop    %esi
    367d:	c3                   	ret    
    367e:	66 90                	xchg   %ax,%ax
    3680:	83 ec 08             	sub    $0x8,%esp
    3683:	6a 01                	push   $0x1
    3685:	68 f8 03 00 00       	push   $0x3f8
    368a:	e8 a1 f9 ff ff       	call   3030 <read_io_port>
    368f:	8b b3 d8 ff ff ff    	mov    -0x28(%ebx),%esi
    3695:	0f be c0             	movsbl %al,%eax
    3698:	5a                   	pop    %edx
    3699:	59                   	pop    %ecx
    369a:	ff 36                	pushl  (%esi)
    369c:	50                   	push   %eax
    369d:	e8 6e f1 ff ff       	call   2810 <_IO_putc@plt>
    36a2:	58                   	pop    %eax
    36a3:	ff 36                	pushl  (%esi)
    36a5:	e8 e6 ef ff ff       	call   2690 <fflush@plt>
    36aa:	83 c4 10             	add    $0x10,%esp
    36ad:	83 c4 04             	add    $0x4,%esp
    36b0:	5b                   	pop    %ebx
    36b1:	5e                   	pop    %esi
    36b2:	c3                   	ret    
    36b3:	8d 83 3c fb fe ff    	lea    -0x104c4(%ebx),%eax
    36b9:	50                   	push   %eax
    36ba:	8d 83 19 fb fe ff    	lea    -0x104e7(%ebx),%eax
    36c0:	6a 07                	push   $0x7
    36c2:	50                   	push   %eax
    36c3:	8d 83 31 fb fe ff    	lea    -0x104cf(%ebx),%eax
    36c9:	50                   	push   %eax
    36ca:	e8 c1 f1 ff ff       	call   2890 <__assert_fail@plt>
    36cf:	90                   	nop

000036d0 <init_serial>:
    36d0:	53                   	push   %ebx
    36d1:	e8 ea f5 ff ff       	call   2cc0 <__x86.get_pc_thunk.bx>
    36d6:	81 c3 2a 79 02 00    	add    $0x2792a,%ebx
    36dc:	83 ec 0c             	sub    $0xc,%esp
    36df:	6a 20                	push   $0x20
    36e1:	6a 01                	push   $0x1
    36e3:	68 fd 03 00 00       	push   $0x3fd
    36e8:	e8 03 f9 ff ff       	call   2ff0 <write_io_port>
    36ed:	83 c4 18             	add    $0x18,%esp
    36f0:	5b                   	pop    %ebx
    36f1:	c3                   	ret    
    36f2:	66 90                	xchg   %ax,%ax
    36f4:	66 90                	xchg   %ax,%ax
    36f6:	66 90                	xchg   %ax,%ax
    36f8:	66 90                	xchg   %ax,%ax
    36fa:	66 90                	xchg   %ax,%ax
    36fc:	66 90                	xchg   %ax,%ax
    36fe:	66 90                	xchg   %ax,%ax

00003700 <vga_vmem_io_handler>:
    3700:	53                   	push   %ebx
    3701:	e8 ba 03 00 00       	call   3ac0 <__x86.get_pc_thunk.cx>
    3706:	81 c1 fa 78 02 00    	add    $0x278fa,%ecx
    370c:	80 7c 24 10 00       	cmpb   $0x0,0x10(%esp)
    3711:	74 2f                	je     3742 <vga_vmem_io_handler+0x42>
    3713:	8b 44 24 08          	mov    0x8(%esp),%eax
    3717:	bb cd cc cc cc       	mov    $0xcccccccd,%ebx
    371c:	8d 90 00 00 f6 ff    	lea    -0xa0000(%eax),%edx
    3722:	89 d0                	mov    %edx,%eax
    3724:	f7 e3                	mul    %ebx
    3726:	c1 ea 08             	shr    $0x8,%edx
    3729:	81 fa c7 00 00 00    	cmp    $0xc7,%edx
    372f:	77 11                	ja     3742 <vga_vmem_io_handler+0x42>
    3731:	8d 81 40 1b 05 00    	lea    0x51b40(%ecx),%eax
    3737:	c6 81 6c 14 05 00 01 	movb   $0x1,0x5146c(%ecx)
    373e:	c6 04 10 01          	movb   $0x1,(%eax,%edx,1)
    3742:	5b                   	pop    %ebx
    3743:	c3                   	ret    
    3744:	8d b6 00 00 00 00    	lea    0x0(%esi),%esi
    374a:	8d bf 00 00 00 00    	lea    0x0(%edi),%edi

00003750 <do_update_screen_graphic_mode>:
    3750:	55                   	push   %ebp
    3751:	57                   	push   %edi
    3752:	b9 80 02 00 00       	mov    $0x280,%ecx
    3757:	56                   	push   %esi
    3758:	53                   	push   %ebx
    3759:	31 f6                	xor    %esi,%esi
    375b:	e8 8a fb ff ff       	call   32ea <__x86.get_pc_thunk.ax>
    3760:	05 a0 78 02 00       	add    $0x278a0,%eax
    3765:	83 ec 3c             	sub    $0x3c,%esp
    3768:	31 d2                	xor    %edx,%edx
    376a:	bb 02 00 00 00       	mov    $0x2,%ebx
    376f:	66 89 4c 24 2c       	mov    %cx,0x2c(%esp)
    3774:	8b 88 74 14 05 00    	mov    0x51474(%eax),%ecx
    377a:	8d b8 40 1b 05 00    	lea    0x51b40(%eax),%edi
    3780:	89 44 24 14          	mov    %eax,0x14(%esp)
    3784:	66 89 74 24 0e       	mov    %si,0xe(%esp)
    3789:	8d b0 10 1c 05 00    	lea    0x51c10(%eax),%esi
    378f:	89 4c 24 08          	mov    %ecx,0x8(%esp)
    3793:	8d 88 08 1c 05 00    	lea    0x51c08(%eax),%ecx
    3799:	8d 80 0c 1c 05 00    	lea    0x51c0c(%eax),%eax
    379f:	89 7c 24 04          	mov    %edi,0x4(%esp)
    37a3:	81 c7 c8 00 00 00    	add    $0xc8,%edi
    37a9:	89 7c 24 10          	mov    %edi,0x10(%esp)
    37ad:	66 89 54 24 28       	mov    %dx,0x28(%esp)
    37b2:	bf 80 02 00 00       	mov    $0x280,%edi
    37b7:	66 89 5c 24 2e       	mov    %bx,0x2e(%esp)
    37bc:	89 4c 24 18          	mov    %ecx,0x18(%esp)
    37c0:	89 44 24 1c          	mov    %eax,0x1c(%esp)
    37c4:	8d 74 26 00          	lea    0x0(%esi,%eiz,1),%esi
    37c8:	8b 44 24 04          	mov    0x4(%esp),%eax
    37cc:	80 38 00             	cmpb   $0x0,(%eax)
    37cf:	74 66                	je     3837 <do_update_screen_graphic_mode+0xe7>
    37d1:	8d 87 80 fd ff ff    	lea    -0x280(%edi),%eax
    37d7:	8b 4c 24 08          	mov    0x8(%esp),%ecx
    37db:	89 04 24             	mov    %eax,(%esp)
    37de:	31 c0                	xor    %eax,%eax
    37e0:	0f b6 11             	movzbl (%ecx),%edx
    37e3:	8b 1e                	mov    (%esi),%ebx
    37e5:	83 c1 01             	add    $0x1,%ecx
    37e8:	8b 2c 24             	mov    (%esp),%ebp
    37eb:	01 c3                	add    %eax,%ebx
    37ed:	88 14 2b             	mov    %dl,(%ebx,%ebp,1)
    37f0:	8b 1e                	mov    (%esi),%ebx
    37f2:	01 c3                	add    %eax,%ebx
    37f4:	83 c0 02             	add    $0x2,%eax
    37f7:	88 14 3b             	mov    %dl,(%ebx,%edi,1)
    37fa:	03 2e                	add    (%esi),%ebp
    37fc:	88 54 28 ff          	mov    %dl,-0x1(%eax,%ebp,1)
    3800:	8b 2e                	mov    (%esi),%ebp
    3802:	01 fd                	add    %edi,%ebp
    3804:	88 54 28 ff          	mov    %dl,-0x1(%eax,%ebp,1)
    3808:	3d 80 02 00 00       	cmp    $0x280,%eax
    380d:	75 d1                	jne    37e0 <do_update_screen_graphic_mode+0x90>
    380f:	0f b7 44 24 0e       	movzwl 0xe(%esp),%eax
    3814:	66 89 44 24 2a       	mov    %ax,0x2a(%esp)
    3819:	8d 44 24 28          	lea    0x28(%esp),%eax
    381d:	50                   	push   %eax
    381e:	8b 4c 24 1c          	mov    0x1c(%esp),%ecx
    3822:	ff 31                	pushl  (%ecx)
    3824:	50                   	push   %eax
    3825:	8b 44 24 28          	mov    0x28(%esp),%eax
    3829:	ff 30                	pushl  (%eax)
    382b:	8b 5c 24 24          	mov    0x24(%esp),%ebx
    382f:	e8 7c ee ff ff       	call   26b0 <SDL_UpperBlit@plt>
    3834:	83 c4 10             	add    $0x10,%esp
    3837:	83 44 24 04 01       	addl   $0x1,0x4(%esp)
    383c:	66 83 44 24 0e 02    	addw   $0x2,0xe(%esp)
    3842:	81 c7 00 05 00 00    	add    $0x500,%edi
    3848:	8b 44 24 04          	mov    0x4(%esp),%eax
    384c:	81 44 24 08 40 01 00 	addl   $0x140,0x8(%esp)
    3853:	00 
    3854:	3b 44 24 10          	cmp    0x10(%esp),%eax
    3858:	0f 85 6a ff ff ff    	jne    37c8 <do_update_screen_graphic_mode+0x78>
    385e:	83 ec 0c             	sub    $0xc,%esp
    3861:	8b 44 24 24          	mov    0x24(%esp),%eax
    3865:	ff 30                	pushl  (%eax)
    3867:	8b 5c 24 24          	mov    0x24(%esp),%ebx
    386b:	e8 50 ed ff ff       	call   25c0 <SDL_Flip@plt>
    3870:	83 c4 4c             	add    $0x4c,%esp
    3873:	5b                   	pop    %ebx
    3874:	5e                   	pop    %esi
    3875:	5f                   	pop    %edi
    3876:	5d                   	pop    %ebp
    3877:	c3                   	ret    
    3878:	90                   	nop
    3879:	8d b4 26 00 00 00 00 	lea    0x0(%esi,%eiz,1),%esi

00003880 <update_screen>:
    3880:	57                   	push   %edi
    3881:	53                   	push   %ebx
    3882:	e8 39 f4 ff ff       	call   2cc0 <__x86.get_pc_thunk.bx>
    3887:	81 c3 79 77 02 00    	add    $0x27779,%ebx
    388d:	83 ec 04             	sub    $0x4,%esp
    3890:	80 bb 6c 14 05 00 00 	cmpb   $0x0,0x5146c(%ebx)
    3897:	74 37                	je     38d0 <update_screen+0x50>
    3899:	e8 b2 fe ff ff       	call   3750 <do_update_screen_graphic_mode>
    389e:	8d 8b 40 1b 05 00    	lea    0x51b40(%ebx),%ecx
    38a4:	c6 83 6c 14 05 00 00 	movb   $0x0,0x5146c(%ebx)
    38ab:	31 c0                	xor    %eax,%eax
    38ad:	8d 79 04             	lea    0x4(%ecx),%edi
    38b0:	c7 01 00 00 00 00    	movl   $0x0,(%ecx)
    38b6:	c7 81 c4 00 00 00 00 	movl   $0x0,0xc4(%ecx)
    38bd:	00 00 00 
    38c0:	83 e7 fc             	and    $0xfffffffc,%edi
    38c3:	29 f9                	sub    %edi,%ecx
    38c5:	81 c1 c8 00 00 00    	add    $0xc8,%ecx
    38cb:	c1 e9 02             	shr    $0x2,%ecx
    38ce:	f3 ab                	rep stos %eax,%es:(%edi)
    38d0:	83 c4 04             	add    $0x4,%esp
    38d3:	5b                   	pop    %ebx
    38d4:	5f                   	pop    %edi
    38d5:	c3                   	ret    
    38d6:	8d 76 00             	lea    0x0(%esi),%esi
    38d9:	8d bc 27 00 00 00 00 	lea    0x0(%edi,%eiz,1),%edi

000038e0 <vga_dac_io_handler>:
    38e0:	57                   	push   %edi
    38e1:	56                   	push   %esi
    38e2:	53                   	push   %ebx
    38e3:	8b 44 24 10          	mov    0x10(%esp),%eax
    38e7:	e8 d4 f3 ff ff       	call   2cc0 <__x86.get_pc_thunk.bx>
    38ec:	81 c3 14 77 02 00    	add    $0x27714,%ebx
    38f2:	80 7c 24 18 00       	cmpb   $0x0,0x18(%esp)
    38f7:	0f 95 c2             	setne  %dl
    38fa:	66 3d c8 03          	cmp    $0x3c8,%ax
    38fe:	75 04                	jne    3904 <vga_dac_io_handler+0x24>
    3900:	84 d2                	test   %dl,%dl
    3902:	75 5c                	jne    3960 <vga_dac_io_handler+0x80>
    3904:	66 3d c9 03          	cmp    $0x3c9,%ax
    3908:	75 49                	jne    3953 <vga_dac_io_handler+0x73>
    390a:	84 d2                	test   %dl,%dl
    390c:	74 45                	je     3953 <vga_dac_io_handler+0x73>
    390e:	8b b3 70 14 05 00    	mov    0x51470(%ebx),%esi
    3914:	83 ec 08             	sub    $0x8,%esp
    3917:	6a 01                	push   $0x1
    3919:	68 c9 03 00 00       	push   $0x3c9
    391e:	8d 46 01             	lea    0x1(%esi),%eax
    3921:	89 83 70 14 05 00    	mov    %eax,0x51470(%ebx)
    3927:	e8 04 f7 ff ff       	call   3030 <read_io_port>
    392c:	c1 e0 02             	shl    $0x2,%eax
    392f:	8b 93 70 14 05 00    	mov    0x51470(%ebx),%edx
    3935:	83 c4 10             	add    $0x10,%esp
    3938:	88 06                	mov    %al,(%esi)
    393a:	8d b3 0c 1c 05 00    	lea    0x51c0c(%ebx),%esi
    3940:	89 d1                	mov    %edx,%ecx
    3942:	8b 06                	mov    (%esi),%eax
    3944:	8b 40 04             	mov    0x4(%eax),%eax
    3947:	2b 08                	sub    (%eax),%ecx
    3949:	89 c8                	mov    %ecx,%eax
    394b:	83 e0 03             	and    $0x3,%eax
    394e:	83 f8 03             	cmp    $0x3,%eax
    3951:	74 35                	je     3988 <vga_dac_io_handler+0xa8>
    3953:	5b                   	pop    %ebx
    3954:	5e                   	pop    %esi
    3955:	5f                   	pop    %edi
    3956:	c3                   	ret    
    3957:	89 f6                	mov    %esi,%esi
    3959:	8d bc 27 00 00 00 00 	lea    0x0(%edi,%eiz,1),%edi
    3960:	83 ec 08             	sub    $0x8,%esp
    3963:	6a 01                	push   $0x1
    3965:	68 c8 03 00 00       	push   $0x3c8
    396a:	e8 c1 f6 ff ff       	call   3030 <read_io_port>
    396f:	8d 93 00 01 00 00    	lea    0x100(%ebx),%edx
    3975:	83 c4 10             	add    $0x10,%esp
    3978:	8d 04 82             	lea    (%edx,%eax,4),%eax
    397b:	89 83 70 14 05 00    	mov    %eax,0x51470(%ebx)
    3981:	5b                   	pop    %ebx
    3982:	5e                   	pop    %esi
    3983:	5f                   	pop    %edi
    3984:	c3                   	ret    
    3985:	8d 76 00             	lea    0x0(%esi),%esi
    3988:	8d bb 00 01 00 00    	lea    0x100(%ebx),%edi
    398e:	83 c2 01             	add    $0x1,%edx
    3991:	89 93 70 14 05 00    	mov    %edx,0x51470(%ebx)
    3997:	8d 87 00 04 00 00    	lea    0x400(%edi),%eax
    399d:	39 c2                	cmp    %eax,%edx
    399f:	75 b2                	jne    3953 <vga_dac_io_handler+0x73>
    39a1:	8d 83 08 1c 05 00    	lea    0x51c08(%ebx),%eax
    39a7:	83 ec 0c             	sub    $0xc,%esp
    39aa:	68 00 01 00 00       	push   $0x100
    39af:	6a 00                	push   $0x0
    39b1:	57                   	push   %edi
    39b2:	6a 03                	push   $0x3
    39b4:	ff 30                	pushl  (%eax)
    39b6:	e8 55 ed ff ff       	call   2710 <SDL_SetPalette@plt>
    39bb:	83 c4 14             	add    $0x14,%esp
    39be:	68 00 01 00 00       	push   $0x100
    39c3:	6a 00                	push   $0x0
    39c5:	57                   	push   %edi
    39c6:	6a 01                	push   $0x1
    39c8:	ff 36                	pushl  (%esi)
    39ca:	e8 41 ed ff ff       	call   2710 <SDL_SetPalette@plt>
    39cf:	83 c4 20             	add    $0x20,%esp
    39d2:	e9 7c ff ff ff       	jmp    3953 <vga_dac_io_handler+0x73>
    39d7:	89 f6                	mov    %esi,%esi
    39d9:	8d bc 27 00 00 00 00 	lea    0x0(%edi,%eiz,1),%edi

000039e0 <vga_crtc_io_handler>:
    39e0:	56                   	push   %esi
    39e1:	53                   	push   %ebx
    39e2:	e8 d9 f2 ff ff       	call   2cc0 <__x86.get_pc_thunk.bx>
    39e7:	81 c3 19 76 02 00    	add    $0x27619,%ebx
    39ed:	83 ec 04             	sub    $0x4,%esp
    39f0:	80 7c 24 18 00       	cmpb   $0x0,0x18(%esp)
    39f5:	8b 44 24 10          	mov    0x10(%esp),%eax
    39f9:	0f 95 c2             	setne  %dl
    39fc:	66 3d d4 03          	cmp    $0x3d4,%ax
    3a00:	75 04                	jne    3a06 <vga_crtc_io_handler+0x26>
    3a02:	84 d2                	test   %dl,%dl
    3a04:	75 3a                	jne    3a40 <vga_crtc_io_handler+0x60>
    3a06:	66 3d d5 03          	cmp    $0x3d5,%ax
    3a0a:	75 2d                	jne    3a39 <vga_crtc_io_handler+0x59>
    3a0c:	84 d2                	test   %dl,%dl
    3a0e:	74 29                	je     3a39 <vga_crtc_io_handler+0x59>
    3a10:	83 ec 08             	sub    $0x8,%esp
    3a13:	6a 01                	push   $0x1
    3a15:	68 d4 03 00 00       	push   $0x3d4
    3a1a:	e8 11 f6 ff ff       	call   3030 <read_io_port>
    3a1f:	89 c6                	mov    %eax,%esi
    3a21:	58                   	pop    %eax
    3a22:	5a                   	pop    %edx
    3a23:	6a 01                	push   $0x1
    3a25:	68 d5 03 00 00       	push   $0x3d5
    3a2a:	e8 01 f6 ff ff       	call   3030 <read_io_port>
    3a2f:	83 c4 10             	add    $0x10,%esp
    3a32:	88 84 33 78 14 05 00 	mov    %al,0x51478(%ebx,%esi,1)
    3a39:	83 c4 04             	add    $0x4,%esp
    3a3c:	5b                   	pop    %ebx
    3a3d:	5e                   	pop    %esi
    3a3e:	c3                   	ret    
    3a3f:	90                   	nop
    3a40:	83 ec 08             	sub    $0x8,%esp
    3a43:	6a 01                	push   $0x1
    3a45:	68 d4 03 00 00       	push   $0x3d4
    3a4a:	e8 e1 f5 ff ff       	call   3030 <read_io_port>
    3a4f:	0f b6 84 03 78 14 05 	movzbl 0x51478(%ebx,%eax,1),%eax
    3a56:	00 
    3a57:	83 c4 0c             	add    $0xc,%esp
    3a5a:	50                   	push   %eax
    3a5b:	6a 01                	push   $0x1
    3a5d:	68 d5 03 00 00       	push   $0x3d5
    3a62:	e8 89 f5 ff ff       	call   2ff0 <write_io_port>
    3a67:	83 c4 10             	add    $0x10,%esp
    3a6a:	83 c4 04             	add    $0x4,%esp
    3a6d:	5b                   	pop    %ebx
    3a6e:	5e                   	pop    %esi
    3a6f:	c3                   	ret    

00003a70 <init_vga>:
    3a70:	53                   	push   %ebx
    3a71:	e8 4a f2 ff ff       	call   2cc0 <__x86.get_pc_thunk.bx>
    3a76:	81 c3 8a 75 02 00    	add    $0x2758a,%ebx
    3a7c:	83 ec 0c             	sub    $0xc,%esp
    3a7f:	8d 83 00 87 fd ff    	lea    -0x27900(%ebx),%eax
    3a85:	50                   	push   %eax
    3a86:	68 00 00 02 00       	push   $0x20000
    3a8b:	68 00 00 0a 00       	push   $0xa0000
    3a90:	e8 db f5 ff ff       	call   3070 <add_mmio_map>
    3a95:	89 83 74 14 05 00    	mov    %eax,0x51474(%ebx)
    3a9b:	83 c4 18             	add    $0x18,%esp
    3a9e:	5b                   	pop    %ebx
    3a9f:	c3                   	ret    

00003aa0 <close_vga>:
    3aa0:	53                   	push   %ebx
    3aa1:	e8 1a f2 ff ff       	call   2cc0 <__x86.get_pc_thunk.bx>
    3aa6:	81 c3 5a 75 02 00    	add    $0x2755a,%ebx
    3aac:	83 ec 08             	sub    $0x8,%esp
    3aaf:	c6 83 6c 14 05 00 00 	movb   $0x0,0x5146c(%ebx)
    3ab6:	e8 75 f6 ff ff       	call   3130 <clear_mmio_map>
    3abb:	83 c4 08             	add    $0x8,%esp
    3abe:	5b                   	pop    %ebx
    3abf:	c3                   	ret    

00003ac0 <__x86.get_pc_thunk.cx>:
    3ac0:	8b 0c 24             	mov    (%esp),%ecx
    3ac3:	c3                   	ret    
    3ac4:	66 90                	xchg   %ax,%ax
    3ac6:	66 90                	xchg   %ax,%ax
    3ac8:	66 90                	xchg   %ax,%ax
    3aca:	66 90                	xchg   %ax,%ax
    3acc:	66 90                	xchg   %ax,%ax
    3ace:	66 90                	xchg   %ax,%ax

00003ad0 <keyboard_down>:
    3ad0:	53                   	push   %ebx
    3ad1:	e8 ea f1 ff ff       	call   2cc0 <__x86.get_pc_thunk.bx>
    3ad6:	81 c3 2a 75 02 00    	add    $0x2752a,%ebx
    3adc:	83 ec 14             	sub    $0x14,%esp
    3adf:	8b 54 24 1c          	mov    0x1c(%esp),%edx
    3ae3:	6a 01                	push   $0x1
    3ae5:	89 d0                	mov    %edx,%eax
    3ae7:	0f b6 d2             	movzbl %dl,%edx
    3aea:	c1 e8 08             	shr    $0x8,%eax
    3aed:	c1 e0 07             	shl    $0x7,%eax
    3af0:	01 d0                	add    %edx,%eax
    3af2:	0f b6 84 03 c0 fb fe 	movzbl -0x10440(%ebx,%eax,1),%eax
    3af9:	ff 
    3afa:	88 83 8b 14 05 00    	mov    %al,0x5148b(%ebx)
    3b00:	e8 0b f8 ff ff       	call   3310 <i8259_raise_intr>
    3b05:	83 c4 18             	add    $0x18,%esp
    3b08:	5b                   	pop    %ebx
    3b09:	c3                   	ret    
    3b0a:	8d b6 00 00 00 00    	lea    0x0(%esi),%esi

00003b10 <keyboard_up>:
    3b10:	53                   	push   %ebx
    3b11:	e8 aa f1 ff ff       	call   2cc0 <__x86.get_pc_thunk.bx>
    3b16:	81 c3 ea 74 02 00    	add    $0x274ea,%ebx
    3b1c:	83 ec 14             	sub    $0x14,%esp
    3b1f:	8b 54 24 1c          	mov    0x1c(%esp),%edx
    3b23:	6a 01                	push   $0x1
    3b25:	89 d0                	mov    %edx,%eax
    3b27:	0f b6 d2             	movzbl %dl,%edx
    3b2a:	c1 e8 08             	shr    $0x8,%eax
    3b2d:	c1 e0 07             	shl    $0x7,%eax
    3b30:	01 d0                	add    %edx,%eax
    3b32:	0f b6 84 03 c0 fb fe 	movzbl -0x10440(%ebx,%eax,1),%eax
    3b39:	ff 
    3b3a:	83 c8 80             	or     $0xffffff80,%eax
    3b3d:	88 83 8b 14 05 00    	mov    %al,0x5148b(%ebx)
    3b43:	e8 c8 f7 ff ff       	call   3310 <i8259_raise_intr>
    3b48:	83 c4 18             	add    $0x18,%esp
    3b4b:	5b                   	pop    %ebx
    3b4c:	c3                   	ret    
    3b4d:	8d 76 00             	lea    0x0(%esi),%esi

00003b50 <handler_keyboard_data>:
    3b50:	53                   	push   %ebx
    3b51:	e8 6a f1 ff ff       	call   2cc0 <__x86.get_pc_thunk.bx>
    3b56:	81 c3 aa 74 02 00    	add    $0x274aa,%ebx
    3b5c:	83 ec 08             	sub    $0x8,%esp
    3b5f:	80 7c 24 18 00       	cmpb   $0x0,0x18(%esp)
    3b64:	8b 44 24 10          	mov    0x10(%esp),%eax
    3b68:	75 1b                	jne    3b85 <handler_keyboard_data+0x35>
    3b6a:	0f b6 93 8b 14 05 00 	movzbl 0x5148b(%ebx),%edx
    3b71:	83 ec 04             	sub    $0x4,%esp
    3b74:	0f b7 c0             	movzwl %ax,%eax
    3b77:	52                   	push   %edx
    3b78:	ff 74 24 1c          	pushl  0x1c(%esp)
    3b7c:	50                   	push   %eax
    3b7d:	e8 6e f4 ff ff       	call   2ff0 <write_io_port>
    3b82:	83 c4 10             	add    $0x10,%esp
    3b85:	83 c4 08             	add    $0x8,%esp
    3b88:	5b                   	pop    %ebx
    3b89:	c3                   	ret    
    3b8a:	66 90                	xchg   %ax,%ax
    3b8c:	66 90                	xchg   %ax,%ax
    3b8e:	66 90                	xchg   %ax,%ax

00003b90 <timer_intr>:
    3b90:	53                   	push   %ebx
    3b91:	e8 2a f1 ff ff       	call   2cc0 <__x86.get_pc_thunk.bx>
    3b96:	81 c3 6a 74 02 00    	add    $0x2746a,%ebx
    3b9c:	83 ec 08             	sub    $0x8,%esp
    3b9f:	8d 83 48 1e 05 00    	lea    0x51e48(%ebx),%eax
    3ba5:	83 38 01             	cmpl   $0x1,(%eax)
    3ba8:	74 06                	je     3bb0 <timer_intr+0x20>
    3baa:	83 c4 08             	add    $0x8,%esp
    3bad:	5b                   	pop    %ebx
    3bae:	c3                   	ret    
    3baf:	90                   	nop
    3bb0:	83 ec 0c             	sub    $0xc,%esp
    3bb3:	6a 00                	push   $0x0
    3bb5:	e8 56 f7 ff ff       	call   3310 <i8259_raise_intr>
    3bba:	83 c4 10             	add    $0x10,%esp
    3bbd:	83 c4 08             	add    $0x8,%esp
    3bc0:	5b                   	pop    %ebx
    3bc1:	c3                   	ret    
    3bc2:	8d b4 26 00 00 00 00 	lea    0x0(%esi,%eiz,1),%esi
    3bc9:	8d bc 27 00 00 00 00 	lea    0x0(%edi,%eiz,1),%edi

00003bd0 <handler_timer>:
    3bd0:	f3 c3                	repz ret 
    3bd2:	66 90                	xchg   %ax,%ax
    3bd4:	66 90                	xchg   %ax,%ax
    3bd6:	66 90                	xchg   %ax,%ax
    3bd8:	66 90                	xchg   %ax,%ax
    3bda:	66 90                	xchg   %ax,%ax
    3bdc:	66 90                	xchg   %ax,%ax
    3bde:	66 90                	xchg   %ax,%ax

00003be0 <NEMU_SDL_Thread>:
    3be0:	55                   	push   %ebp
    3be1:	57                   	push   %edi
    3be2:	56                   	push   %esi
    3be3:	53                   	push   %ebx
    3be4:	e8 d7 f0 ff ff       	call   2cc0 <__x86.get_pc_thunk.bx>
    3be9:	81 c3 17 74 02 00    	add    $0x27417,%ebx
    3bef:	83 ec 48             	sub    $0x48,%esp
    3bf2:	68 20 00 10 00       	push   $0x100020
    3bf7:	e8 d4 ea ff ff       	call   26d0 <SDL_Init@plt>
    3bfc:	83 c4 10             	add    $0x10,%esp
    3bff:	85 c0                	test   %eax,%eax
    3c01:	0f 85 7b 01 00 00    	jne    3d82 <NEMU_SDL_Thread+0x1a2>
    3c07:	68 05 01 00 20       	push   $0x20000105
    3c0c:	6a 08                	push   $0x8
    3c0e:	68 90 01 00 00       	push   $0x190
    3c13:	68 80 02 00 00       	push   $0x280
    3c18:	e8 e3 ea ff ff       	call   2700 <SDL_SetVideoMode@plt>
    3c1d:	8d bb 08 1c 05 00    	lea    0x51c08(%ebx),%edi
    3c23:	89 07                	mov    %eax,(%edi)
    3c25:	8b 40 04             	mov    0x4(%eax),%eax
    3c28:	ff 70 1c             	pushl  0x1c(%eax)
    3c2b:	ff 70 18             	pushl  0x18(%eax)
    3c2e:	ff 70 14             	pushl  0x14(%eax)
    3c31:	ff 70 10             	pushl  0x10(%eax)
    3c34:	6a 08                	push   $0x8
    3c36:	68 90 01 00 00       	push   $0x190
    3c3b:	68 80 02 00 00       	push   $0x280
    3c40:	6a 00                	push   $0x0
    3c42:	e8 69 eb ff ff       	call   27b0 <SDL_CreateRGBSurface@plt>
    3c47:	8d ab 0c 1c 05 00    	lea    0x51c0c(%ebx),%ebp
    3c4d:	8b 50 14             	mov    0x14(%eax),%edx
    3c50:	83 c4 24             	add    $0x24,%esp
    3c53:	8d b3 00 01 00 00    	lea    0x100(%ebx),%esi
    3c59:	89 45 00             	mov    %eax,0x0(%ebp)
    3c5c:	8d 83 10 1c 05 00    	lea    0x51c10(%ebx),%eax
    3c62:	89 10                	mov    %edx,(%eax)
    3c64:	68 00 01 00 00       	push   $0x100
    3c69:	6a 00                	push   $0x0
    3c6b:	56                   	push   %esi
    3c6c:	6a 03                	push   $0x3
    3c6e:	ff 37                	pushl  (%edi)
    3c70:	31 ff                	xor    %edi,%edi
    3c72:	e8 99 ea ff ff       	call   2710 <SDL_SetPalette@plt>
    3c77:	83 c4 14             	add    $0x14,%esp
    3c7a:	68 00 01 00 00       	push   $0x100
    3c7f:	6a 00                	push   $0x0
    3c81:	56                   	push   %esi
    3c82:	6a 01                	push   $0x1
    3c84:	ff 75 00             	pushl  0x0(%ebp)
    3c87:	31 ed                	xor    %ebp,%ebp
    3c89:	e8 82 ea ff ff       	call   2710 <SDL_SetPalette@plt>
    3c8e:	8d 83 da fc fe ff    	lea    -0x10326(%ebx),%eax
    3c94:	83 c4 18             	add    $0x18,%esp
    3c97:	6a 00                	push   $0x0
    3c99:	50                   	push   %eax
    3c9a:	e8 81 ea ff ff       	call   2720 <SDL_WM_SetCaption@plt>
    3c9f:	58                   	pop    %eax
    3ca0:	5a                   	pop    %edx
    3ca1:	6a 1e                	push   $0x1e
    3ca3:	68 f4 01 00 00       	push   $0x1f4
    3ca8:	e8 53 e9 ff ff       	call   2600 <SDL_EnableKeyRepeat@plt>
    3cad:	8d 83 48 1e 05 00    	lea    0x51e48(%ebx),%eax
    3cb3:	83 c4 10             	add    $0x10,%esp
    3cb6:	c6 83 8c 14 05 00 01 	movb   $0x1,0x5148c(%ebx)
    3cbd:	8d 74 24 1c          	lea    0x1c(%esp),%esi
    3cc1:	89 44 24 0c          	mov    %eax,0xc(%esp)
    3cc5:	8d 76 00             	lea    0x0(%esi),%esi
    3cc8:	e8 c3 fe ff ff       	call   3b90 <timer_intr>
    3ccd:	89 f8                	mov    %edi,%eax
    3ccf:	83 e0 03             	and    $0x3,%eax
    3cd2:	85 c0                	test   %eax,%eax
    3cd4:	0f 84 9e 00 00 00    	je     3d78 <NEMU_SDL_Thread+0x198>
    3cda:	8d b6 00 00 00 00    	lea    0x0(%esi),%esi
    3ce0:	83 ec 0c             	sub    $0xc,%esp
    3ce3:	56                   	push   %esi
    3ce4:	e8 37 e9 ff ff       	call   2620 <SDL_PollEvent@plt>
    3ce9:	83 c4 10             	add    $0x10,%esp
    3cec:	85 c0                	test   %eax,%eax
    3cee:	74 30                	je     3d20 <NEMU_SDL_Thread+0x140>
    3cf0:	0f b6 44 24 1c       	movzbl 0x1c(%esp),%eax
    3cf5:	3c 0c                	cmp    $0xc,%al
    3cf7:	74 57                	je     3d50 <NEMU_SDL_Thread+0x170>
    3cf9:	3c 02                	cmp    $0x2,%al
    3cfb:	74 63                	je     3d60 <NEMU_SDL_Thread+0x180>
    3cfd:	3c 03                	cmp    $0x3,%al
    3cff:	75 df                	jne    3ce0 <NEMU_SDL_Thread+0x100>
    3d01:	83 ec 0c             	sub    $0xc,%esp
    3d04:	ff 74 24 30          	pushl  0x30(%esp)
    3d08:	e8 03 fe ff ff       	call   3b10 <keyboard_up>
    3d0d:	83 c4 10             	add    $0x10,%esp
    3d10:	83 ec 0c             	sub    $0xc,%esp
    3d13:	56                   	push   %esi
    3d14:	e8 07 e9 ff ff       	call   2620 <SDL_PollEvent@plt>
    3d19:	83 c4 10             	add    $0x10,%esp
    3d1c:	85 c0                	test   %eax,%eax
    3d1e:	75 d0                	jne    3cf0 <NEMU_SDL_Thread+0x110>
    3d20:	83 c7 01             	add    $0x1,%edi
    3d23:	83 d5 00             	adc    $0x0,%ebp
    3d26:	83 ec 0c             	sub    $0xc,%esp
    3d29:	6a 0a                	push   $0xa
    3d2b:	e8 10 e9 ff ff       	call   2640 <SDL_Delay@plt>
    3d30:	83 c4 10             	add    $0x10,%esp
    3d33:	80 bb 8c 14 05 00 00 	cmpb   $0x0,0x5148c(%ebx)
    3d3a:	75 8c                	jne    3cc8 <NEMU_SDL_Thread+0xe8>
    3d3c:	e8 5f fd ff ff       	call   3aa0 <close_vga>
    3d41:	e8 6a e8 ff ff       	call   25b0 <SDL_Quit@plt>
    3d46:	83 c4 3c             	add    $0x3c,%esp
    3d49:	31 c0                	xor    %eax,%eax
    3d4b:	5b                   	pop    %ebx
    3d4c:	5e                   	pop    %esi
    3d4d:	5f                   	pop    %edi
    3d4e:	5d                   	pop    %ebp
    3d4f:	c3                   	ret    
    3d50:	8b 44 24 0c          	mov    0xc(%esp),%eax
    3d54:	c7 00 00 00 00 00    	movl   $0x0,(%eax)
    3d5a:	eb 84                	jmp    3ce0 <NEMU_SDL_Thread+0x100>
    3d5c:	8d 74 26 00          	lea    0x0(%esi,%eiz,1),%esi
    3d60:	83 ec 0c             	sub    $0xc,%esp
    3d63:	ff 74 24 30          	pushl  0x30(%esp)
    3d67:	e8 64 fd ff ff       	call   3ad0 <keyboard_down>
    3d6c:	83 c4 10             	add    $0x10,%esp
    3d6f:	e9 6c ff ff ff       	jmp    3ce0 <NEMU_SDL_Thread+0x100>
    3d74:	8d 74 26 00          	lea    0x0(%esi,%eiz,1),%esi
    3d78:	e8 03 fb ff ff       	call   3880 <update_screen>
    3d7d:	e9 5e ff ff ff       	jmp    3ce0 <NEMU_SDL_Thread+0x100>
    3d82:	8d 83 00 fd fe ff    	lea    -0x10300(%ebx),%eax
    3d88:	50                   	push   %eax
    3d89:	8d 83 c0 fc fe ff    	lea    -0x10340(%ebx),%eax
    3d8f:	6a 1d                	push   $0x1d
    3d91:	50                   	push   %eax
    3d92:	8d 83 d1 fc fe ff    	lea    -0x1032f(%ebx),%eax
    3d98:	50                   	push   %eax
    3d99:	e8 f2 ea ff ff       	call   2890 <__assert_fail@plt>
    3d9e:	66 90                	xchg   %ax,%ax

00003da0 <close_sdl>:
    3da0:	e8 45 f5 ff ff       	call   32ea <__x86.get_pc_thunk.ax>
    3da5:	05 5b 72 02 00       	add    $0x2725b,%eax
    3daa:	80 b8 8c 14 05 00 00 	cmpb   $0x0,0x5148c(%eax)
    3db1:	74 07                	je     3dba <close_sdl+0x1a>
    3db3:	c6 80 8c 14 05 00 00 	movb   $0x0,0x5148c(%eax)
    3dba:	f3 c3                	repz ret 
    3dbc:	8d 74 26 00          	lea    0x0(%esi,%eiz,1),%esi

00003dc0 <init_sdl>:
    3dc0:	53                   	push   %ebx
    3dc1:	e8 fa ee ff ff       	call   2cc0 <__x86.get_pc_thunk.bx>
    3dc6:	81 c3 3a 72 02 00    	add    $0x2723a,%ebx
    3dcc:	83 ec 08             	sub    $0x8,%esp
    3dcf:	80 bb 8c 14 05 00 00 	cmpb   $0x0,0x5148c(%ebx)
    3dd6:	74 08                	je     3de0 <init_sdl+0x20>
    3dd8:	83 c4 08             	add    $0x8,%esp
    3ddb:	5b                   	pop    %ebx
    3ddc:	c3                   	ret    
    3ddd:	8d 76 00             	lea    0x0(%esi),%esi
    3de0:	e8 8b fc ff ff       	call   3a70 <init_vga>
    3de5:	8d 83 e0 8b fd ff    	lea    -0x27420(%ebx),%eax
    3deb:	83 ec 08             	sub    $0x8,%esp
    3dee:	6a 00                	push   $0x0
    3df0:	50                   	push   %eax
    3df1:	e8 8a e8 ff ff       	call   2680 <SDL_CreateThread@plt>
    3df6:	83 c4 10             	add    $0x10,%esp
    3df9:	85 c0                	test   %eax,%eax
    3dfb:	75 db                	jne    3dd8 <init_sdl+0x18>
    3dfd:	e8 5e e8 ff ff       	call   2660 <SDL_GetError@plt>
    3e02:	52                   	push   %edx
    3e03:	52                   	push   %edx
    3e04:	50                   	push   %eax
    3e05:	8d 83 e0 fc fe ff    	lea    -0x10320(%ebx),%eax
    3e0b:	50                   	push   %eax
    3e0c:	e8 af e9 ff ff       	call   27c0 <printf@plt>
    3e11:	8d 83 10 fd fe ff    	lea    -0x102f0(%ebx),%eax
    3e17:	50                   	push   %eax
    3e18:	8d 83 c0 fc fe ff    	lea    -0x10340(%ebx),%eax
    3e1e:	6a 70                	push   $0x70
    3e20:	50                   	push   %eax
    3e21:	8d 83 74 1a ff ff    	lea    -0xe58c(%ebx),%eax
    3e27:	50                   	push   %eax
    3e28:	e8 63 ea ff ff       	call   2890 <__assert_fail@plt>
    3e2d:	66 90                	xchg   %ax,%ax
    3e2f:	90                   	nop

00003e30 <print_asm_0>:
    3e30:	55                   	push   %ebp
    3e31:	57                   	push   %edi
    3e32:	56                   	push   %esi
    3e33:	53                   	push   %ebx
    3e34:	e8 87 ee ff ff       	call   2cc0 <__x86.get_pc_thunk.bx>
    3e39:	81 c3 c7 71 02 00    	add    $0x271c7,%ebx
    3e3f:	83 ec 1c             	sub    $0x1c,%esp
    3e42:	8d 83 8d 14 05 00    	lea    0x5148d(%ebx),%eax
    3e48:	8b 74 24 38          	mov    0x38(%esp),%esi
    3e4c:	80 38 00             	cmpb   $0x0,(%eax)
    3e4f:	0f 84 a8 00 00 00    	je     3efd <print_asm_0+0xcd>
    3e55:	8d 83 60 1d 05 00    	lea    0x51d60(%ebx),%eax
    3e5b:	83 ec 08             	sub    $0x8,%esp
    3e5e:	8d ab 22 fd fe ff    	lea    -0x102de(%ebx),%ebp
    3e64:	89 44 24 14          	mov    %eax,0x14(%esp)
    3e68:	ff 70 20             	pushl  0x20(%eax)
    3e6b:	8d 83 19 fd fe ff    	lea    -0x102e7(%ebx),%eax
    3e71:	50                   	push   %eax
    3e72:	e8 49 e9 ff ff       	call   27c0 <printf@plt>
    3e77:	89 f0                	mov    %esi,%eax
    3e79:	83 c4 10             	add    $0x10,%esp
    3e7c:	3c 0d                	cmp    $0xd,%al
    3e7e:	b8 0d 00 00 00       	mov    $0xd,%eax
    3e83:	0f 46 c6             	cmovbe %esi,%eax
    3e86:	31 ff                	xor    %edi,%edi
    3e88:	0f b6 f0             	movzbl %al,%esi
    3e8b:	85 f6                	test   %esi,%esi
    3e8d:	74 76                	je     3f05 <print_asm_0+0xd5>
    3e8f:	90                   	nop
    3e90:	83 ec 08             	sub    $0x8,%esp
    3e93:	6a 01                	push   $0x1
    3e95:	8b 54 24 18          	mov    0x18(%esp),%edx
    3e99:	8b 42 20             	mov    0x20(%edx),%eax
    3e9c:	01 f8                	add    %edi,%eax
    3e9e:	83 c7 01             	add    $0x1,%edi
    3ea1:	50                   	push   %eax
    3ea2:	e8 39 64 01 00       	call   1a2e0 <instr_fetch>
    3ea7:	5a                   	pop    %edx
    3ea8:	59                   	pop    %ecx
    3ea9:	50                   	push   %eax
    3eaa:	55                   	push   %ebp
    3eab:	e8 10 e9 ff ff       	call   27c0 <printf@plt>
    3eb0:	83 c4 10             	add    $0x10,%esp
    3eb3:	39 f7                	cmp    %esi,%edi
    3eb5:	75 d9                	jne    3e90 <print_asm_0+0x60>
    3eb7:	be 0d 00 00 00       	mov    $0xd,%esi
    3ebc:	29 fe                	sub    %edi,%esi
    3ebe:	8d bb 1e fd fe ff    	lea    -0x102e2(%ebx),%edi
    3ec4:	31 ed                	xor    %ebp,%ebp
    3ec6:	8d 76 00             	lea    0x0(%esi),%esi
    3ec9:	8d bc 27 00 00 00 00 	lea    0x0(%edi,%eiz,1),%edi
    3ed0:	83 ec 0c             	sub    $0xc,%esp
    3ed3:	83 c5 01             	add    $0x1,%ebp
    3ed6:	57                   	push   %edi
    3ed7:	e8 e4 e8 ff ff       	call   27c0 <printf@plt>
    3edc:	83 c4 10             	add    $0x10,%esp
    3edf:	39 f5                	cmp    %esi,%ebp
    3ee1:	7e ed                	jle    3ed0 <print_asm_0+0xa0>
    3ee3:	8d 83 28 fd fe ff    	lea    -0x102d8(%ebx),%eax
    3ee9:	83 ec 04             	sub    $0x4,%esp
    3eec:	ff 74 24 38          	pushl  0x38(%esp)
    3ef0:	ff 74 24 38          	pushl  0x38(%esp)
    3ef4:	50                   	push   %eax
    3ef5:	e8 c6 e8 ff ff       	call   27c0 <printf@plt>
    3efa:	83 c4 10             	add    $0x10,%esp
    3efd:	83 c4 1c             	add    $0x1c,%esp
    3f00:	5b                   	pop    %ebx
    3f01:	5e                   	pop    %esi
    3f02:	5f                   	pop    %edi
    3f03:	5d                   	pop    %ebp
    3f04:	c3                   	ret    
    3f05:	be 0d 00 00 00       	mov    $0xd,%esi
    3f0a:	eb b2                	jmp    3ebe <print_asm_0+0x8e>
    3f0c:	8d 74 26 00          	lea    0x0(%esi,%eiz,1),%esi

00003f10 <print_asm_1>:
    3f10:	55                   	push   %ebp
    3f11:	57                   	push   %edi
    3f12:	56                   	push   %esi
    3f13:	53                   	push   %ebx
    3f14:	e8 a7 ed ff ff       	call   2cc0 <__x86.get_pc_thunk.bx>
    3f19:	81 c3 e7 70 02 00    	add    $0x270e7,%ebx
    3f1f:	83 ec 1c             	sub    $0x1c,%esp
    3f22:	8d 83 8d 14 05 00    	lea    0x5148d(%ebx),%eax
    3f28:	8b 74 24 38          	mov    0x38(%esp),%esi
    3f2c:	80 38 00             	cmpb   $0x0,(%eax)
    3f2f:	0f 84 b9 00 00 00    	je     3fee <print_asm_1+0xde>
    3f35:	8d 83 a0 1c 05 00    	lea    0x51ca0(%ebx),%eax
    3f3b:	83 ec 08             	sub    $0x8,%esp
    3f3e:	89 44 24 14          	mov    %eax,0x14(%esp)
    3f42:	50                   	push   %eax
    3f43:	ff 74 24 48          	pushl  0x48(%esp)
    3f47:	e8 74 0a 00 00       	call   49c0 <parse_operand_address>
    3f4c:	5f                   	pop    %edi
    3f4d:	5d                   	pop    %ebp
    3f4e:	8d 83 60 1d 05 00    	lea    0x51d60(%ebx),%eax
    3f54:	8d ab 22 fd fe ff    	lea    -0x102de(%ebx),%ebp
    3f5a:	89 44 24 10          	mov    %eax,0x10(%esp)
    3f5e:	ff 70 20             	pushl  0x20(%eax)
    3f61:	8d 83 19 fd fe ff    	lea    -0x102e7(%ebx),%eax
    3f67:	50                   	push   %eax
    3f68:	e8 53 e8 ff ff       	call   27c0 <printf@plt>
    3f6d:	89 f0                	mov    %esi,%eax
    3f6f:	83 c4 10             	add    $0x10,%esp
    3f72:	3c 0d                	cmp    $0xd,%al
    3f74:	b8 0d 00 00 00       	mov    $0xd,%eax
    3f79:	0f 46 c6             	cmovbe %esi,%eax
    3f7c:	31 ff                	xor    %edi,%edi
    3f7e:	0f b6 f0             	movzbl %al,%esi
    3f81:	85 f6                	test   %esi,%esi
    3f83:	74 71                	je     3ff6 <print_asm_1+0xe6>
    3f85:	8d 76 00             	lea    0x0(%esi),%esi
    3f88:	83 ec 08             	sub    $0x8,%esp
    3f8b:	6a 01                	push   $0x1
    3f8d:	8b 54 24 14          	mov    0x14(%esp),%edx
    3f91:	8b 42 20             	mov    0x20(%edx),%eax
    3f94:	01 f8                	add    %edi,%eax
    3f96:	83 c7 01             	add    $0x1,%edi
    3f99:	50                   	push   %eax
    3f9a:	e8 41 63 01 00       	call   1a2e0 <instr_fetch>
    3f9f:	5a                   	pop    %edx
    3fa0:	59                   	pop    %ecx
    3fa1:	50                   	push   %eax
    3fa2:	55                   	push   %ebp
    3fa3:	e8 18 e8 ff ff       	call   27c0 <printf@plt>
    3fa8:	83 c4 10             	add    $0x10,%esp
    3fab:	39 f7                	cmp    %esi,%edi
    3fad:	75 d9                	jne    3f88 <print_asm_1+0x78>
    3faf:	be 0d 00 00 00       	mov    $0xd,%esi
    3fb4:	29 fe                	sub    %edi,%esi
    3fb6:	8d bb 1e fd fe ff    	lea    -0x102e2(%ebx),%edi
    3fbc:	31 ed                	xor    %ebp,%ebp
    3fbe:	66 90                	xchg   %ax,%ax
    3fc0:	83 ec 0c             	sub    $0xc,%esp
    3fc3:	83 c5 01             	add    $0x1,%ebp
    3fc6:	57                   	push   %edi
    3fc7:	e8 f4 e7 ff ff       	call   27c0 <printf@plt>
    3fcc:	83 c4 10             	add    $0x10,%esp
    3fcf:	39 f5                	cmp    %esi,%ebp
    3fd1:	7e ed                	jle    3fc0 <print_asm_1+0xb0>
    3fd3:	8d 83 2e fd fe ff    	lea    -0x102d2(%ebx),%eax
    3fd9:	ff 74 24 0c          	pushl  0xc(%esp)
    3fdd:	ff 74 24 38          	pushl  0x38(%esp)
    3fe1:	ff 74 24 38          	pushl  0x38(%esp)
    3fe5:	50                   	push   %eax
    3fe6:	e8 d5 e7 ff ff       	call   27c0 <printf@plt>
    3feb:	83 c4 10             	add    $0x10,%esp
    3fee:	83 c4 1c             	add    $0x1c,%esp
    3ff1:	5b                   	pop    %ebx
    3ff2:	5e                   	pop    %esi
    3ff3:	5f                   	pop    %edi
    3ff4:	5d                   	pop    %ebp
    3ff5:	c3                   	ret    
    3ff6:	be 0d 00 00 00       	mov    $0xd,%esi
    3ffb:	eb b9                	jmp    3fb6 <print_asm_1+0xa6>
    3ffd:	8d 76 00             	lea    0x0(%esi),%esi

00004000 <print_asm_2>:
    4000:	55                   	push   %ebp
    4001:	57                   	push   %edi
    4002:	56                   	push   %esi
    4003:	53                   	push   %ebx
    4004:	e8 b7 ec ff ff       	call   2cc0 <__x86.get_pc_thunk.bx>
    4009:	81 c3 f7 6f 02 00    	add    $0x26ff7,%ebx
    400f:	83 ec 1c             	sub    $0x1c,%esp
    4012:	8d 83 8d 14 05 00    	lea    0x5148d(%ebx),%eax
    4018:	8b 74 24 38          	mov    0x38(%esp),%esi
    401c:	80 38 00             	cmpb   $0x0,(%eax)
    401f:	0f 84 e0 00 00 00    	je     4105 <print_asm_2+0x105>
    4025:	8d 83 a0 1c 05 00    	lea    0x51ca0(%ebx),%eax
    402b:	83 ec 08             	sub    $0x8,%esp
    402e:	89 44 24 10          	mov    %eax,0x10(%esp)
    4032:	50                   	push   %eax
    4033:	ff 74 24 48          	pushl  0x48(%esp)
    4037:	e8 84 09 00 00       	call   49c0 <parse_operand_address>
    403c:	5f                   	pop    %edi
    403d:	5d                   	pop    %ebp
    403e:	8d 83 60 1c 05 00    	lea    0x51c60(%ebx),%eax
    4044:	8d ab 22 fd fe ff    	lea    -0x102de(%ebx),%ebp
    404a:	89 44 24 14          	mov    %eax,0x14(%esp)
    404e:	50                   	push   %eax
    404f:	ff 74 24 4c          	pushl  0x4c(%esp)
    4053:	e8 68 09 00 00       	call   49c0 <parse_operand_address>
    4058:	58                   	pop    %eax
    4059:	5a                   	pop    %edx
    405a:	8d 83 60 1d 05 00    	lea    0x51d60(%ebx),%eax
    4060:	89 44 24 0c          	mov    %eax,0xc(%esp)
    4064:	ff 70 20             	pushl  0x20(%eax)
    4067:	8d 83 19 fd fe ff    	lea    -0x102e7(%ebx),%eax
    406d:	50                   	push   %eax
    406e:	e8 4d e7 ff ff       	call   27c0 <printf@plt>
    4073:	89 f0                	mov    %esi,%eax
    4075:	83 c4 10             	add    $0x10,%esp
    4078:	3c 0d                	cmp    $0xd,%al
    407a:	b8 0d 00 00 00       	mov    $0xd,%eax
    407f:	0f 46 c6             	cmovbe %esi,%eax
    4082:	31 ff                	xor    %edi,%edi
    4084:	0f b6 f0             	movzbl %al,%esi
    4087:	85 f6                	test   %esi,%esi
    4089:	0f 84 7e 00 00 00    	je     410d <print_asm_2+0x10d>
    408f:	90                   	nop
    4090:	83 ec 08             	sub    $0x8,%esp
    4093:	6a 01                	push   $0x1
    4095:	8b 54 24 10          	mov    0x10(%esp),%edx
    4099:	8b 42 20             	mov    0x20(%edx),%eax
    409c:	01 f8                	add    %edi,%eax
    409e:	83 c7 01             	add    $0x1,%edi
    40a1:	50                   	push   %eax
    40a2:	e8 39 62 01 00       	call   1a2e0 <instr_fetch>
    40a7:	5a                   	pop    %edx
    40a8:	59                   	pop    %ecx
    40a9:	50                   	push   %eax
    40aa:	55                   	push   %ebp
    40ab:	e8 10 e7 ff ff       	call   27c0 <printf@plt>
    40b0:	83 c4 10             	add    $0x10,%esp
    40b3:	39 f7                	cmp    %esi,%edi
    40b5:	75 d9                	jne    4090 <print_asm_2+0x90>
    40b7:	be 0d 00 00 00       	mov    $0xd,%esi
    40bc:	29 fe                	sub    %edi,%esi
    40be:	8d bb 1e fd fe ff    	lea    -0x102e2(%ebx),%edi
    40c4:	31 ed                	xor    %ebp,%ebp
    40c6:	8d 76 00             	lea    0x0(%esi),%esi
    40c9:	8d bc 27 00 00 00 00 	lea    0x0(%edi,%eiz,1),%edi
    40d0:	83 ec 0c             	sub    $0xc,%esp
    40d3:	83 c5 01             	add    $0x1,%ebp
    40d6:	57                   	push   %edi
    40d7:	e8 e4 e6 ff ff       	call   27c0 <printf@plt>
    40dc:	83 c4 10             	add    $0x10,%esp
    40df:	39 f5                	cmp    %esi,%ebp
    40e1:	7e ed                	jle    40d0 <print_asm_2+0xd0>
    40e3:	8d 83 37 fd fe ff    	lea    -0x102c9(%ebx),%eax
    40e9:	83 ec 0c             	sub    $0xc,%esp
    40ec:	ff 74 24 18          	pushl  0x18(%esp)
    40f0:	ff 74 24 18          	pushl  0x18(%esp)
    40f4:	ff 74 24 48          	pushl  0x48(%esp)
    40f8:	ff 74 24 48          	pushl  0x48(%esp)
    40fc:	50                   	push   %eax
    40fd:	e8 be e6 ff ff       	call   27c0 <printf@plt>
    4102:	83 c4 20             	add    $0x20,%esp
    4105:	83 c4 1c             	add    $0x1c,%esp
    4108:	5b                   	pop    %ebx
    4109:	5e                   	pop    %esi
    410a:	5f                   	pop    %edi
    410b:	5d                   	pop    %ebp
    410c:	c3                   	ret    
    410d:	be 0d 00 00 00       	mov    $0xd,%esi
    4112:	eb aa                	jmp    40be <print_asm_2+0xbe>
    4114:	8d b6 00 00 00 00    	lea    0x0(%esi),%esi
    411a:	8d bf 00 00 00 00    	lea    0x0(%edi),%edi

00004120 <print_asm_3>:
    4120:	55                   	push   %ebp
    4121:	57                   	push   %edi
    4122:	56                   	push   %esi
    4123:	53                   	push   %ebx
    4124:	e8 97 eb ff ff       	call   2cc0 <__x86.get_pc_thunk.bx>
    4129:	81 c3 d7 6e 02 00    	add    $0x26ed7,%ebx
    412f:	83 ec 1c             	sub    $0x1c,%esp
    4132:	8d 83 8d 14 05 00    	lea    0x5148d(%ebx),%eax
    4138:	8b 74 24 38          	mov    0x38(%esp),%esi
    413c:	80 38 00             	cmpb   $0x0,(%eax)
    413f:	0f 84 f4 00 00 00    	je     4239 <print_asm_3+0x119>
    4145:	8d 83 a0 1c 05 00    	lea    0x51ca0(%ebx),%eax
    414b:	83 ec 08             	sub    $0x8,%esp
    414e:	89 44 24 0c          	mov    %eax,0xc(%esp)
    4152:	50                   	push   %eax
    4153:	ff 74 24 48          	pushl  0x48(%esp)
    4157:	e8 64 08 00 00       	call   49c0 <parse_operand_address>
    415c:	5f                   	pop    %edi
    415d:	5d                   	pop    %ebp
    415e:	8d 83 60 1c 05 00    	lea    0x51c60(%ebx),%eax
    4164:	8d ab 22 fd fe ff    	lea    -0x102de(%ebx),%ebp
    416a:	89 44 24 10          	mov    %eax,0x10(%esp)
    416e:	50                   	push   %eax
    416f:	ff 74 24 4c          	pushl  0x4c(%esp)
    4173:	e8 48 08 00 00       	call   49c0 <parse_operand_address>
    4178:	58                   	pop    %eax
    4179:	5a                   	pop    %edx
    417a:	8d 83 20 1c 05 00    	lea    0x51c20(%ebx),%eax
    4180:	89 44 24 14          	mov    %eax,0x14(%esp)
    4184:	50                   	push   %eax
    4185:	ff 74 24 50          	pushl  0x50(%esp)
    4189:	e8 32 08 00 00       	call   49c0 <parse_operand_address>
    418e:	59                   	pop    %ecx
    418f:	5f                   	pop    %edi
    4190:	8d 83 60 1d 05 00    	lea    0x51d60(%ebx),%eax
    4196:	89 44 24 08          	mov    %eax,0x8(%esp)
    419a:	ff 70 20             	pushl  0x20(%eax)
    419d:	8d 83 19 fd fe ff    	lea    -0x102e7(%ebx),%eax
    41a3:	50                   	push   %eax
    41a4:	e8 17 e6 ff ff       	call   27c0 <printf@plt>
    41a9:	89 f0                	mov    %esi,%eax
    41ab:	83 c4 10             	add    $0x10,%esp
    41ae:	3c 0d                	cmp    $0xd,%al
    41b0:	b8 0d 00 00 00       	mov    $0xd,%eax
    41b5:	0f 46 c6             	cmovbe %esi,%eax
    41b8:	31 ff                	xor    %edi,%edi
    41ba:	0f b6 f0             	movzbl %al,%esi
    41bd:	85 f6                	test   %esi,%esi
    41bf:	0f 84 7c 00 00 00    	je     4241 <print_asm_3+0x121>
    41c5:	8d 76 00             	lea    0x0(%esi),%esi
    41c8:	83 ec 08             	sub    $0x8,%esp
    41cb:	6a 01                	push   $0x1
    41cd:	8b 54 24 0c          	mov    0xc(%esp),%edx
    41d1:	8b 42 20             	mov    0x20(%edx),%eax
    41d4:	01 f8                	add    %edi,%eax
    41d6:	83 c7 01             	add    $0x1,%edi
    41d9:	50                   	push   %eax
    41da:	e8 01 61 01 00       	call   1a2e0 <instr_fetch>
    41df:	5a                   	pop    %edx
    41e0:	59                   	pop    %ecx
    41e1:	50                   	push   %eax
    41e2:	55                   	push   %ebp
    41e3:	e8 d8 e5 ff ff       	call   27c0 <printf@plt>
    41e8:	83 c4 10             	add    $0x10,%esp
    41eb:	39 f7                	cmp    %esi,%edi
    41ed:	75 d9                	jne    41c8 <print_asm_3+0xa8>
    41ef:	be 0d 00 00 00       	mov    $0xd,%esi
    41f4:	29 fe                	sub    %edi,%esi
    41f6:	8d bb 1e fd fe ff    	lea    -0x102e2(%ebx),%edi
    41fc:	31 ed                	xor    %ebp,%ebp
    41fe:	66 90                	xchg   %ax,%ax
    4200:	83 ec 0c             	sub    $0xc,%esp
    4203:	83 c5 01             	add    $0x1,%ebp
    4206:	57                   	push   %edi
    4207:	e8 b4 e5 ff ff       	call   27c0 <printf@plt>
    420c:	83 c4 10             	add    $0x10,%esp
    420f:	39 f5                	cmp    %esi,%ebp
    4211:	7e ed                	jle    4200 <print_asm_3+0xe0>
    4213:	8d 83 44 fd fe ff    	lea    -0x102bc(%ebx),%eax
    4219:	83 ec 08             	sub    $0x8,%esp
    421c:	ff 74 24 14          	pushl  0x14(%esp)
    4220:	ff 74 24 14          	pushl  0x14(%esp)
    4224:	ff 74 24 14          	pushl  0x14(%esp)
    4228:	ff 74 24 48          	pushl  0x48(%esp)
    422c:	ff 74 24 48          	pushl  0x48(%esp)
    4230:	50                   	push   %eax
    4231:	e8 8a e5 ff ff       	call   27c0 <printf@plt>
    4236:	83 c4 20             	add    $0x20,%esp
    4239:	83 c4 1c             	add    $0x1c,%esp
    423c:	5b                   	pop    %ebx
    423d:	5e                   	pop    %esi
    423e:	5f                   	pop    %edi
    423f:	5d                   	pop    %ebp
    4240:	c3                   	ret    
    4241:	be 0d 00 00 00       	mov    $0xd,%esi
    4246:	eb ae                	jmp    41f6 <print_asm_3+0xd6>
    4248:	66 90                	xchg   %ax,%ax
    424a:	66 90                	xchg   %ax,%ax
    424c:	66 90                	xchg   %ax,%ax
    424e:	66 90                	xchg   %ax,%ax

00004250 <case_mod_00>:
    4250:	56                   	push   %esi
    4251:	53                   	push   %ebx
    4252:	e8 69 ea ff ff       	call   2cc0 <__x86.get_pc_thunk.bx>
    4257:	81 c3 a9 6d 02 00    	add    $0x26da9,%ebx
    425d:	83 ec 04             	sub    $0x4,%esp
    4260:	0f b6 44 24 14       	movzbl 0x14(%esp),%eax
    4265:	8b 74 24 18          	mov    0x18(%esp),%esi
    4269:	83 e0 07             	and    $0x7,%eax
    426c:	3c 04                	cmp    $0x4,%al
    426e:	74 60                	je     42d0 <case_mod_00+0x80>
    4270:	3c 05                	cmp    $0x5,%al
    4272:	74 2c                	je     42a0 <case_mod_00+0x50>
    4274:	8d 93 60 1d 05 00    	lea    0x51d60(%ebx),%edx
    427a:	0f b6 c0             	movzbl %al,%eax
    427d:	c7 06 02 00 00 00    	movl   $0x2,(%esi)
    4283:	c6 46 08 03          	movb   $0x3,0x8(%esi)
    4287:	8b 14 82             	mov    (%edx,%eax,4),%edx
    428a:	89 46 18             	mov    %eax,0x18(%esi)
    428d:	31 c0                	xor    %eax,%eax
    428f:	89 56 04             	mov    %edx,0x4(%esi)
    4292:	83 c4 04             	add    $0x4,%esp
    4295:	5b                   	pop    %ebx
    4296:	5e                   	pop    %esi
    4297:	c3                   	ret    
    4298:	90                   	nop
    4299:	8d b4 26 00 00 00 00 	lea    0x0(%esi,%eiz,1),%esi
    42a0:	83 ec 08             	sub    $0x8,%esp
    42a3:	c7 06 02 00 00 00    	movl   $0x2,(%esi)
    42a9:	c6 46 08 03          	movb   $0x3,0x8(%esi)
    42ad:	6a 04                	push   $0x4
    42af:	8b 44 24 1c          	mov    0x1c(%esp),%eax
    42b3:	83 c0 01             	add    $0x1,%eax
    42b6:	50                   	push   %eax
    42b7:	e8 24 60 01 00       	call   1a2e0 <instr_fetch>
    42bc:	83 c4 10             	add    $0x10,%esp
    42bf:	89 46 04             	mov    %eax,0x4(%esi)
    42c2:	89 46 14             	mov    %eax,0x14(%esi)
    42c5:	83 c4 04             	add    $0x4,%esp
    42c8:	b8 04 00 00 00       	mov    $0x4,%eax
    42cd:	5b                   	pop    %ebx
    42ce:	5e                   	pop    %esi
    42cf:	c3                   	ret    
    42d0:	83 ec 04             	sub    $0x4,%esp
    42d3:	c7 06 02 00 00 00    	movl   $0x2,(%esi)
    42d9:	56                   	push   %esi
    42da:	8b 44 24 1c          	mov    0x1c(%esp),%eax
    42de:	c1 e8 06             	shr    $0x6,%eax
    42e1:	83 e0 03             	and    $0x3,%eax
    42e4:	50                   	push   %eax
    42e5:	8b 44 24 1c          	mov    0x1c(%esp),%eax
    42e9:	83 c0 01             	add    $0x1,%eax
    42ec:	50                   	push   %eax
    42ed:	e8 ae 09 00 00       	call   4ca0 <parse_sib>
    42f2:	83 c4 10             	add    $0x10,%esp
    42f5:	83 c4 04             	add    $0x4,%esp
    42f8:	5b                   	pop    %ebx
    42f9:	5e                   	pop    %esi
    42fa:	c3                   	ret    
    42fb:	90                   	nop
    42fc:	8d 74 26 00          	lea    0x0(%esi,%eiz,1),%esi

00004300 <case_mod_01>:
    4300:	55                   	push   %ebp
    4301:	57                   	push   %edi
    4302:	56                   	push   %esi
    4303:	53                   	push   %ebx
    4304:	e8 b7 e9 ff ff       	call   2cc0 <__x86.get_pc_thunk.bx>
    4309:	81 c3 f7 6c 02 00    	add    $0x26cf7,%ebx
    430f:	83 ec 0c             	sub    $0xc,%esp
    4312:	8b 44 24 24          	mov    0x24(%esp),%eax
    4316:	8b 74 24 28          	mov    0x28(%esp),%esi
    431a:	8b 6c 24 20          	mov    0x20(%esp),%ebp
    431e:	89 c7                	mov    %eax,%edi
    4320:	c7 06 02 00 00 00    	movl   $0x2,(%esi)
    4326:	83 e7 07             	and    $0x7,%edi
    4329:	89 f9                	mov    %edi,%ecx
    432b:	80 f9 04             	cmp    $0x4,%cl
    432e:	74 48                	je     4378 <case_mod_01+0x78>
    4330:	8d 93 60 1d 05 00    	lea    0x51d60(%ebx),%edx
    4336:	0f b6 c1             	movzbl %cl,%eax
    4339:	83 ec 08             	sub    $0x8,%esp
    433c:	83 c5 01             	add    $0x1,%ebp
    433f:	8b 14 82             	mov    (%edx,%eax,4),%edx
    4342:	89 46 18             	mov    %eax,0x18(%esi)
    4345:	89 56 04             	mov    %edx,0x4(%esi)
    4348:	6a 01                	push   $0x1
    434a:	55                   	push   %ebp
    434b:	e8 90 5f 01 00       	call   1a2e0 <instr_fetch>
    4350:	0f be d0             	movsbl %al,%edx
    4353:	89 f8                	mov    %edi,%eax
    4355:	83 c4 10             	add    $0x10,%esp
    4358:	3c 05                	cmp    $0x5,%al
    435a:	74 5c                	je     43b8 <case_mod_01+0xb8>
    435c:	c6 46 08 03          	movb   $0x3,0x8(%esi)
    4360:	01 56 04             	add    %edx,0x4(%esi)
    4363:	b8 01 00 00 00       	mov    $0x1,%eax
    4368:	89 56 14             	mov    %edx,0x14(%esi)
    436b:	83 c4 0c             	add    $0xc,%esp
    436e:	5b                   	pop    %ebx
    436f:	5e                   	pop    %esi
    4370:	5f                   	pop    %edi
    4371:	5d                   	pop    %ebp
    4372:	c3                   	ret    
    4373:	90                   	nop
    4374:	8d 74 26 00          	lea    0x0(%esi,%eiz,1),%esi
    4378:	c1 e8 06             	shr    $0x6,%eax
    437b:	83 ec 04             	sub    $0x4,%esp
    437e:	83 e0 03             	and    $0x3,%eax
    4381:	56                   	push   %esi
    4382:	50                   	push   %eax
    4383:	8d 45 01             	lea    0x1(%ebp),%eax
    4386:	83 c5 02             	add    $0x2,%ebp
    4389:	50                   	push   %eax
    438a:	e8 11 09 00 00       	call   4ca0 <parse_sib>
    438f:	89 c7                	mov    %eax,%edi
    4391:	58                   	pop    %eax
    4392:	5a                   	pop    %edx
    4393:	6a 01                	push   $0x1
    4395:	55                   	push   %ebp
    4396:	e8 45 5f 01 00       	call   1a2e0 <instr_fetch>
    439b:	83 c4 10             	add    $0x10,%esp
    439e:	0f be d0             	movsbl %al,%edx
    43a1:	01 56 04             	add    %edx,0x4(%esi)
    43a4:	89 56 14             	mov    %edx,0x14(%esi)
    43a7:	83 c4 0c             	add    $0xc,%esp
    43aa:	8d 47 01             	lea    0x1(%edi),%eax
    43ad:	5b                   	pop    %ebx
    43ae:	5e                   	pop    %esi
    43af:	5f                   	pop    %edi
    43b0:	5d                   	pop    %ebp
    43b1:	c3                   	ret    
    43b2:	8d b6 00 00 00 00    	lea    0x0(%esi),%esi
    43b8:	c6 46 08 02          	movb   $0x2,0x8(%esi)
    43bc:	01 56 04             	add    %edx,0x4(%esi)
    43bf:	b8 01 00 00 00       	mov    $0x1,%eax
    43c4:	89 56 14             	mov    %edx,0x14(%esi)
    43c7:	83 c4 0c             	add    $0xc,%esp
    43ca:	5b                   	pop    %ebx
    43cb:	5e                   	pop    %esi
    43cc:	5f                   	pop    %edi
    43cd:	5d                   	pop    %ebp
    43ce:	c3                   	ret    
    43cf:	90                   	nop

000043d0 <case_mod_10>:
    43d0:	55                   	push   %ebp
    43d1:	57                   	push   %edi
    43d2:	56                   	push   %esi
    43d3:	53                   	push   %ebx
    43d4:	e8 e7 e8 ff ff       	call   2cc0 <__x86.get_pc_thunk.bx>
    43d9:	81 c3 27 6c 02 00    	add    $0x26c27,%ebx
    43df:	83 ec 0c             	sub    $0xc,%esp
    43e2:	8b 44 24 24          	mov    0x24(%esp),%eax
    43e6:	8b 74 24 28          	mov    0x28(%esp),%esi
    43ea:	8b 7c 24 20          	mov    0x20(%esp),%edi
    43ee:	89 c5                	mov    %eax,%ebp
    43f0:	c7 06 02 00 00 00    	movl   $0x2,(%esi)
    43f6:	83 e5 07             	and    $0x7,%ebp
    43f9:	89 e9                	mov    %ebp,%ecx
    43fb:	80 f9 04             	cmp    $0x4,%cl
    43fe:	74 48                	je     4448 <case_mod_10+0x78>
    4400:	8d 93 60 1d 05 00    	lea    0x51d60(%ebx),%edx
    4406:	0f b6 c1             	movzbl %cl,%eax
    4409:	83 ec 08             	sub    $0x8,%esp
    440c:	83 c7 01             	add    $0x1,%edi
    440f:	8b 14 82             	mov    (%edx,%eax,4),%edx
    4412:	89 46 18             	mov    %eax,0x18(%esi)
    4415:	89 56 04             	mov    %edx,0x4(%esi)
    4418:	6a 04                	push   $0x4
    441a:	57                   	push   %edi
    441b:	e8 c0 5e 01 00       	call   1a2e0 <instr_fetch>
    4420:	89 c2                	mov    %eax,%edx
    4422:	89 e8                	mov    %ebp,%eax
    4424:	83 c4 10             	add    $0x10,%esp
    4427:	3c 05                	cmp    $0x5,%al
    4429:	74 5d                	je     4488 <case_mod_10+0xb8>
    442b:	c6 46 08 03          	movb   $0x3,0x8(%esi)
    442f:	01 56 04             	add    %edx,0x4(%esi)
    4432:	b8 04 00 00 00       	mov    $0x4,%eax
    4437:	89 56 14             	mov    %edx,0x14(%esi)
    443a:	83 c4 0c             	add    $0xc,%esp
    443d:	5b                   	pop    %ebx
    443e:	5e                   	pop    %esi
    443f:	5f                   	pop    %edi
    4440:	5d                   	pop    %ebp
    4441:	c3                   	ret    
    4442:	8d b6 00 00 00 00    	lea    0x0(%esi),%esi
    4448:	c1 e8 06             	shr    $0x6,%eax
    444b:	83 ec 04             	sub    $0x4,%esp
    444e:	83 e0 03             	and    $0x3,%eax
    4451:	56                   	push   %esi
    4452:	50                   	push   %eax
    4453:	8d 47 01             	lea    0x1(%edi),%eax
    4456:	83 c7 02             	add    $0x2,%edi
    4459:	50                   	push   %eax
    445a:	e8 41 08 00 00       	call   4ca0 <parse_sib>
    445f:	89 c5                	mov    %eax,%ebp
    4461:	58                   	pop    %eax
    4462:	5a                   	pop    %edx
    4463:	6a 04                	push   $0x4
    4465:	57                   	push   %edi
    4466:	e8 75 5e 01 00       	call   1a2e0 <instr_fetch>
    446b:	83 c4 10             	add    $0x10,%esp
    446e:	89 c2                	mov    %eax,%edx
    4470:	01 56 04             	add    %edx,0x4(%esi)
    4473:	89 56 14             	mov    %edx,0x14(%esi)
    4476:	83 c4 0c             	add    $0xc,%esp
    4479:	8d 45 04             	lea    0x4(%ebp),%eax
    447c:	5b                   	pop    %ebx
    447d:	5e                   	pop    %esi
    447e:	5f                   	pop    %edi
    447f:	5d                   	pop    %ebp
    4480:	c3                   	ret    
    4481:	8d b4 26 00 00 00 00 	lea    0x0(%esi,%eiz,1),%esi
    4488:	c6 46 08 02          	movb   $0x2,0x8(%esi)
    448c:	01 56 04             	add    %edx,0x4(%esi)
    448f:	b8 04 00 00 00       	mov    $0x4,%eax
    4494:	89 56 14             	mov    %edx,0x14(%esi)
    4497:	83 c4 0c             	add    $0xc,%esp
    449a:	5b                   	pop    %ebx
    449b:	5e                   	pop    %esi
    449c:	5f                   	pop    %edi
    449d:	5d                   	pop    %ebp
    449e:	c3                   	ret    
    449f:	90                   	nop

000044a0 <case_mod_11>:
    44a0:	8b 44 24 08          	mov    0x8(%esp),%eax
    44a4:	8b 54 24 0c          	mov    0xc(%esp),%edx
    44a8:	83 e0 07             	and    $0x7,%eax
    44ab:	c7 02 01 00 00 00    	movl   $0x1,(%edx)
    44b1:	89 42 04             	mov    %eax,0x4(%edx)
    44b4:	31 c0                	xor    %eax,%eax
    44b6:	c3                   	ret    
    44b7:	89 f6                	mov    %esi,%esi
    44b9:	8d bc 27 00 00 00 00 	lea    0x0(%edi,%eiz,1),%edi

000044c0 <parse_rm_32>:
    44c0:	57                   	push   %edi
    44c1:	56                   	push   %esi
    44c2:	53                   	push   %ebx
    44c3:	e8 f8 e7 ff ff       	call   2cc0 <__x86.get_pc_thunk.bx>
    44c8:	81 c3 38 6b 02 00    	add    $0x26b38,%ebx
    44ce:	83 ec 10             	sub    $0x10,%esp
    44d1:	8b 7c 24 24          	mov    0x24(%esp),%edi
    44d5:	8d 93 8d 14 05 00    	lea    0x5148d(%ebx),%edx
    44db:	8b 74 24 28          	mov    0x28(%esp),%esi
    44df:	89 f8                	mov    %edi,%eax
    44e1:	c1 e8 06             	shr    $0x6,%eax
    44e4:	83 e0 03             	and    $0x3,%eax
    44e7:	80 3a 00             	cmpb   $0x0,(%edx)
    44ea:	75 4c                	jne    4538 <parse_rm_32+0x78>
    44ec:	3c 02                	cmp    $0x2,%al
    44ee:	74 61                	je     4551 <parse_rm_32+0x91>
    44f0:	77 7e                	ja     4570 <parse_rm_32+0xb0>
    44f2:	3c 01                	cmp    $0x1,%al
    44f4:	74 22                	je     4518 <parse_rm_32+0x58>
    44f6:	83 ec 04             	sub    $0x4,%esp
    44f9:	56                   	push   %esi
    44fa:	57                   	push   %edi
    44fb:	ff 74 24 2c          	pushl  0x2c(%esp)
    44ff:	e8 4c fd ff ff       	call   4250 <case_mod_00>
    4504:	83 c4 10             	add    $0x10,%esp
    4507:	83 c0 01             	add    $0x1,%eax
    450a:	83 c4 10             	add    $0x10,%esp
    450d:	5b                   	pop    %ebx
    450e:	5e                   	pop    %esi
    450f:	5f                   	pop    %edi
    4510:	c3                   	ret    
    4511:	8d b4 26 00 00 00 00 	lea    0x0(%esi,%eiz,1),%esi
    4518:	83 ec 04             	sub    $0x4,%esp
    451b:	56                   	push   %esi
    451c:	57                   	push   %edi
    451d:	ff 74 24 2c          	pushl  0x2c(%esp)
    4521:	e8 da fd ff ff       	call   4300 <case_mod_01>
    4526:	83 c4 10             	add    $0x10,%esp
    4529:	83 c0 01             	add    $0x1,%eax
    452c:	83 c4 10             	add    $0x10,%esp
    452f:	5b                   	pop    %ebx
    4530:	5e                   	pop    %esi
    4531:	5f                   	pop    %edi
    4532:	c3                   	ret    
    4533:	90                   	nop
    4534:	8d 74 26 00          	lea    0x0(%esi,%eiz,1),%esi
    4538:	88 44 24 0f          	mov    %al,0xf(%esp)
    453c:	83 ec 0c             	sub    $0xc,%esp
    453f:	56                   	push   %esi
    4540:	e8 2b 07 00 00       	call   4c70 <clear_operand_mem_addr>
    4545:	83 c4 10             	add    $0x10,%esp
    4548:	0f b6 44 24 0f       	movzbl 0xf(%esp),%eax
    454d:	3c 02                	cmp    $0x2,%al
    454f:	75 9f                	jne    44f0 <parse_rm_32+0x30>
    4551:	83 ec 04             	sub    $0x4,%esp
    4554:	56                   	push   %esi
    4555:	57                   	push   %edi
    4556:	ff 74 24 2c          	pushl  0x2c(%esp)
    455a:	e8 71 fe ff ff       	call   43d0 <case_mod_10>
    455f:	83 c4 10             	add    $0x10,%esp
    4562:	83 c0 01             	add    $0x1,%eax
    4565:	83 c4 10             	add    $0x10,%esp
    4568:	5b                   	pop    %ebx
    4569:	5e                   	pop    %esi
    456a:	5f                   	pop    %edi
    456b:	c3                   	ret    
    456c:	8d 74 26 00          	lea    0x0(%esi,%eiz,1),%esi
    4570:	83 e7 07             	and    $0x7,%edi
    4573:	c7 06 01 00 00 00    	movl   $0x1,(%esi)
    4579:	b8 01 00 00 00       	mov    $0x1,%eax
    457e:	89 7e 04             	mov    %edi,0x4(%esi)
    4581:	83 c4 10             	add    $0x10,%esp
    4584:	5b                   	pop    %ebx
    4585:	5e                   	pop    %esi
    4586:	5f                   	pop    %edi
    4587:	c3                   	ret    
    4588:	90                   	nop
    4589:	8d b4 26 00 00 00 00 	lea    0x0(%esi,%eiz,1),%esi

00004590 <modrm_r_rm>:
    4590:	57                   	push   %edi
    4591:	56                   	push   %esi
    4592:	53                   	push   %ebx
    4593:	8b 74 24 10          	mov    0x10(%esp),%esi
    4597:	8b 7c 24 14          	mov    0x14(%esp),%edi
    459b:	83 ec 08             	sub    $0x8,%esp
    459e:	6a 01                	push   $0x1
    45a0:	56                   	push   %esi
    45a1:	e8 1a e7 ff ff       	call   2cc0 <__x86.get_pc_thunk.bx>
    45a6:	81 c3 5a 6a 02 00    	add    $0x26a5a,%ebx
    45ac:	e8 2f 5d 01 00       	call   1a2e0 <instr_fetch>
    45b1:	31 d2                	xor    %edx,%edx
    45b3:	83 c4 0c             	add    $0xc,%esp
    45b6:	c7 07 01 00 00 00    	movl   $0x1,(%edi)
    45bc:	88 c2                	mov    %al,%dl
    45be:	89 d0                	mov    %edx,%eax
    45c0:	c1 e8 03             	shr    $0x3,%eax
    45c3:	83 e0 07             	and    $0x7,%eax
    45c6:	89 47 04             	mov    %eax,0x4(%edi)
    45c9:	ff 74 24 1c          	pushl  0x1c(%esp)
    45cd:	52                   	push   %edx
    45ce:	56                   	push   %esi
    45cf:	e8 ec fe ff ff       	call   44c0 <parse_rm_32>
    45d4:	83 c4 10             	add    $0x10,%esp
    45d7:	5b                   	pop    %ebx
    45d8:	5e                   	pop    %esi
    45d9:	5f                   	pop    %edi
    45da:	c3                   	ret    
    45db:	90                   	nop
    45dc:	8d 74 26 00          	lea    0x0(%esi,%eiz,1),%esi

000045e0 <modrm_opcode_rm>:
    45e0:	56                   	push   %esi
    45e1:	53                   	push   %ebx
    45e2:	e8 d9 e6 ff ff       	call   2cc0 <__x86.get_pc_thunk.bx>
    45e7:	81 c3 19 6a 02 00    	add    $0x26a19,%ebx
    45ed:	83 ec 0c             	sub    $0xc,%esp
    45f0:	8b 74 24 18          	mov    0x18(%esp),%esi
    45f4:	6a 01                	push   $0x1
    45f6:	56                   	push   %esi
    45f7:	e8 e4 5c 01 00       	call   1a2e0 <instr_fetch>
    45fc:	31 d2                	xor    %edx,%edx
    45fe:	8b 4c 24 24          	mov    0x24(%esp),%ecx
    4602:	83 c4 0c             	add    $0xc,%esp
    4605:	88 c2                	mov    %al,%dl
    4607:	89 d0                	mov    %edx,%eax
    4609:	c1 e8 03             	shr    $0x3,%eax
    460c:	83 e0 07             	and    $0x7,%eax
    460f:	88 01                	mov    %al,(%ecx)
    4611:	ff 74 24 1c          	pushl  0x1c(%esp)
    4615:	52                   	push   %edx
    4616:	56                   	push   %esi
    4617:	e8 a4 fe ff ff       	call   44c0 <parse_rm_32>
    461c:	83 c4 14             	add    $0x14,%esp
    461f:	5b                   	pop    %ebx
    4620:	5e                   	pop    %esi
    4621:	c3                   	ret    
    4622:	8d b4 26 00 00 00 00 	lea    0x0(%esi,%eiz,1),%esi
    4629:	8d bc 27 00 00 00 00 	lea    0x0(%edi,%eiz,1),%edi

00004630 <modrm_opcode>:
    4630:	53                   	push   %ebx
    4631:	e8 8a e6 ff ff       	call   2cc0 <__x86.get_pc_thunk.bx>
    4636:	81 c3 ca 69 02 00    	add    $0x269ca,%ebx
    463c:	83 ec 10             	sub    $0x10,%esp
    463f:	6a 01                	push   $0x1
    4641:	ff 74 24 1c          	pushl  0x1c(%esp)
    4645:	e8 96 5c 01 00       	call   1a2e0 <instr_fetch>
    464a:	8b 54 24 24          	mov    0x24(%esp),%edx
    464e:	c1 e8 03             	shr    $0x3,%eax
    4651:	83 e0 07             	and    $0x7,%eax
    4654:	88 02                	mov    %al,(%edx)
    4656:	83 c4 18             	add    $0x18,%esp
    4659:	b8 01 00 00 00       	mov    $0x1,%eax
    465e:	5b                   	pop    %ebx
    465f:	c3                   	ret    

00004660 <modrm_rm>:
    4660:	56                   	push   %esi
    4661:	53                   	push   %ebx
    4662:	e8 59 e6 ff ff       	call   2cc0 <__x86.get_pc_thunk.bx>
    4667:	81 c3 99 69 02 00    	add    $0x26999,%ebx
    466d:	83 ec 0c             	sub    $0xc,%esp
    4670:	8b 74 24 18          	mov    0x18(%esp),%esi
    4674:	6a 01                	push   $0x1
    4676:	56                   	push   %esi
    4677:	e8 64 5c 01 00       	call   1a2e0 <instr_fetch>
    467c:	31 d2                	xor    %edx,%edx
    467e:	83 c4 0c             	add    $0xc,%esp
    4681:	88 c2                	mov    %al,%dl
    4683:	ff 74 24 18          	pushl  0x18(%esp)
    4687:	52                   	push   %edx
    4688:	56                   	push   %esi
    4689:	e8 32 fe ff ff       	call   44c0 <parse_rm_32>
    468e:	83 c4 14             	add    $0x14,%esp
    4691:	5b                   	pop    %ebx
    4692:	5e                   	pop    %esi
    4693:	c3                   	ret    
    4694:	66 90                	xchg   %ax,%ax
    4696:	66 90                	xchg   %ax,%ax
    4698:	66 90                	xchg   %ax,%ax
    469a:	66 90                	xchg   %ax,%ax
    469c:	66 90                	xchg   %ax,%ax
    469e:	66 90                	xchg   %ax,%ax

000046a0 <operand_read>:
    46a0:	56                   	push   %esi
    46a1:	53                   	push   %ebx
    46a2:	e8 19 e6 ff ff       	call   2cc0 <__x86.get_pc_thunk.bx>
    46a7:	81 c3 59 69 02 00    	add    $0x26959,%ebx
    46ad:	83 ec 04             	sub    $0x4,%esp
    46b0:	8b 74 24 10          	mov    0x10(%esp),%esi
    46b4:	83 3e 04             	cmpl   $0x4,(%esi)
    46b7:	77 2d                	ja     46e6 <.L8+0x16>
    46b9:	8b 06                	mov    (%esi),%eax
    46bb:	8b 8c 83 90 fe fe ff 	mov    -0x10170(%ebx,%eax,4),%ecx
    46c2:	01 d9                	add    %ebx,%ecx
    46c4:	ff e1                	jmp    *%ecx
    46c6:	8d 76 00             	lea    0x0(%esi),%esi
    46c9:	8d bc 27 00 00 00 00 	lea    0x0(%edi,%eiz,1),%edi

000046d0 <.L8>:
    46d0:	8b 46 04             	mov    0x4(%esi),%eax
    46d3:	83 c0 03             	add    $0x3,%eax
    46d6:	c1 e0 04             	shl    $0x4,%eax
    46d9:	03 83 dc ff ff ff    	add    -0x24(%ebx),%eax
    46df:	0f b7 40 08          	movzwl 0x8(%eax),%eax
    46e3:	89 46 0c             	mov    %eax,0xc(%esi)
    46e6:	8b 46 10             	mov    0x10(%esi),%eax
    46e9:	83 f8 10             	cmp    $0x10,%eax
    46ec:	74 5a                	je     4748 <.L8+0x78>
    46ee:	83 f8 20             	cmp    $0x20,%eax
    46f1:	74 48                	je     473b <.L8+0x6b>
    46f3:	83 f8 08             	cmp    $0x8,%eax
    46f6:	74 38                	je     4730 <.L8+0x60>
    46f8:	83 ec 08             	sub    $0x8,%esp
    46fb:	0f b6 c0             	movzbl %al,%eax
    46fe:	50                   	push   %eax
    46ff:	8d 83 88 fd fe ff    	lea    -0x10278(%ebx),%eax
    4705:	50                   	push   %eax
    4706:	e8 b5 e0 ff ff       	call   27c0 <printf@plt>
    470b:	8d 83 f4 fe fe ff    	lea    -0x1010c(%ebx),%eax
    4711:	50                   	push   %eax
    4712:	6a 32                	push   $0x32
    4714:	8d 83 f9 fd fe ff    	lea    -0x10207(%ebx),%eax
    471a:	50                   	push   %eax
    471b:	8d 83 74 1a ff ff    	lea    -0xe58c(%ebx),%eax
    4721:	50                   	push   %eax
    4722:	e8 69 e1 ff ff       	call   2890 <__assert_fail@plt>
    4727:	89 f6                	mov    %esi,%esi
    4729:	8d bc 27 00 00 00 00 	lea    0x0(%edi,%eiz,1),%edi
    4730:	8b 46 0c             	mov    0xc(%esi),%eax
    4733:	25 ff 00 00 00       	and    $0xff,%eax
    4738:	89 46 0c             	mov    %eax,0xc(%esi)
    473b:	83 c4 04             	add    $0x4,%esp
    473e:	5b                   	pop    %ebx
    473f:	5e                   	pop    %esi
    4740:	c3                   	ret    
    4741:	8d b4 26 00 00 00 00 	lea    0x0(%esi,%eiz,1),%esi
    4748:	81 66 0c ff ff 00 00 	andl   $0xffff,0xc(%esi)
    474f:	83 c4 04             	add    $0x4,%esp
    4752:	5b                   	pop    %ebx
    4753:	5e                   	pop    %esi
    4754:	c3                   	ret    
    4755:	8d 76 00             	lea    0x0(%esi),%esi

00004758 <.L7>:
    4758:	8b 46 04             	mov    0x4(%esi),%eax
    475b:	85 c0                	test   %eax,%eax
    475d:	0f 84 8d 00 00 00    	je     47f0 <.L6+0x30>
    4763:	83 f8 03             	cmp    $0x3,%eax
    4766:	75 68                	jne    47d0 <.L6+0x10>
    4768:	8d 83 60 1d 05 00    	lea    0x51d60(%ebx),%eax
    476e:	8b 40 34             	mov    0x34(%eax),%eax
    4771:	89 46 0c             	mov    %eax,0xc(%esi)
    4774:	8b 46 10             	mov    0x10(%esi),%eax
    4777:	e9 6d ff ff ff       	jmp    46e9 <.L8+0x19>
    477c:	8d 74 26 00          	lea    0x0(%esi,%eiz,1),%esi

00004780 <.L3>:
    4780:	83 ec 04             	sub    $0x4,%esp
    4783:	6a 04                	push   $0x4
    4785:	6a 01                	push   $0x1
    4787:	ff 76 04             	pushl  0x4(%esi)
    478a:	e8 21 5a 01 00       	call   1a1b0 <vaddr_read>
    478f:	83 c4 10             	add    $0x10,%esp
    4792:	89 46 0c             	mov    %eax,0xc(%esi)
    4795:	8b 46 10             	mov    0x10(%esi),%eax
    4798:	e9 4c ff ff ff       	jmp    46e9 <.L8+0x19>
    479d:	8d 76 00             	lea    0x0(%esi),%esi

000047a0 <.L5>:
    47a0:	8b 46 10             	mov    0x10(%esi),%eax
    47a3:	83 f8 08             	cmp    $0x8,%eax
    47a6:	74 60                	je     4808 <.L6+0x48>
    47a8:	8b 4e 04             	mov    0x4(%esi),%ecx
    47ab:	8d 93 60 1d 05 00    	lea    0x51d60(%ebx),%edx
    47b1:	8b 14 8a             	mov    (%edx,%ecx,4),%edx
    47b4:	89 56 0c             	mov    %edx,0xc(%esi)
    47b7:	e9 2d ff ff ff       	jmp    46e9 <.L8+0x19>
    47bc:	8d 74 26 00          	lea    0x0(%esi,%eiz,1),%esi

000047c0 <.L6>:
    47c0:	83 ec 04             	sub    $0x4,%esp
    47c3:	6a 04                	push   $0x4
    47c5:	0f b6 46 08          	movzbl 0x8(%esi),%eax
    47c9:	50                   	push   %eax
    47ca:	eb bb                	jmp    4787 <.L3+0x7>
    47cc:	8d 74 26 00          	lea    0x0(%esi,%eiz,1),%esi
    47d0:	83 ec 08             	sub    $0x8,%esp
    47d3:	50                   	push   %eax
    47d4:	8d 83 58 fd fe ff    	lea    -0x102a8(%ebx),%eax
    47da:	50                   	push   %eax
    47db:	e8 e0 df ff ff       	call   27c0 <printf@plt>
    47e0:	8d 83 f4 fe fe ff    	lea    -0x1010c(%ebx),%eax
    47e6:	50                   	push   %eax
    47e7:	6a 20                	push   $0x20
    47e9:	e9 26 ff ff ff       	jmp    4714 <.L8+0x44>
    47ee:	66 90                	xchg   %ax,%ax
    47f0:	8d 83 60 1d 05 00    	lea    0x51d60(%ebx),%eax
    47f6:	8b 40 30             	mov    0x30(%eax),%eax
    47f9:	89 46 0c             	mov    %eax,0xc(%esi)
    47fc:	8b 46 10             	mov    0x10(%esi),%eax
    47ff:	e9 e5 fe ff ff       	jmp    46e9 <.L8+0x19>
    4804:	8d 74 26 00          	lea    0x0(%esi,%eiz,1),%esi
    4808:	8b 56 04             	mov    0x4(%esi),%edx
    480b:	8d 8b 60 1d 05 00    	lea    0x51d60(%ebx),%ecx
    4811:	89 d0                	mov    %edx,%eax
    4813:	c1 ea 02             	shr    $0x2,%edx
    4816:	83 e0 03             	and    $0x3,%eax
    4819:	8d 04 81             	lea    (%ecx,%eax,4),%eax
    481c:	0f b6 04 10          	movzbl (%eax,%edx,1),%eax
    4820:	e9 0e ff ff ff       	jmp    4733 <.L8+0x63>
    4825:	8d 74 26 00          	lea    0x0(%esi,%eiz,1),%esi
    4829:	8d bc 27 00 00 00 00 	lea    0x0(%edi,%eiz,1),%edi

00004830 <operand_write>:
    4830:	53                   	push   %ebx
    4831:	e8 8a e4 ff ff       	call   2cc0 <__x86.get_pc_thunk.bx>
    4836:	81 c3 ca 67 02 00    	add    $0x267ca,%ebx
    483c:	83 ec 08             	sub    $0x8,%esp
    483f:	8b 44 24 10          	mov    0x10(%esp),%eax
    4843:	83 38 04             	cmpl   $0x4,(%eax)
    4846:	77 3b                	ja     4883 <.L39+0x2b>
    4848:	8b 10                	mov    (%eax),%edx
    484a:	8b 8c 93 a4 fe fe ff 	mov    -0x1015c(%ebx,%edx,4),%ecx
    4851:	01 d9                	add    %ebx,%ecx
    4853:	ff e1                	jmp    *%ecx
    4855:	8d 76 00             	lea    0x0(%esi),%esi

00004858 <.L39>:
    4858:	8b 50 04             	mov    0x4(%eax),%edx
    485b:	85 d2                	test   %edx,%edx
    485d:	0f 84 ed 00 00 00    	je     4950 <.L38+0x40>
    4863:	83 fa 03             	cmp    $0x3,%edx
    4866:	0f 85 c4 00 00 00    	jne    4930 <.L38+0x20>
    486c:	8b 48 0c             	mov    0xc(%eax),%ecx
    486f:	8d 83 60 1d 05 00    	lea    0x51d60(%ebx),%eax
    4875:	89 48 34             	mov    %ecx,0x34(%eax)
    4878:	83 c2 03             	add    $0x3,%edx
    487b:	c1 e2 04             	shl    $0x4,%edx
    487e:	66 89 4c 10 08       	mov    %cx,0x8(%eax,%edx,1)
    4883:	83 c4 08             	add    $0x8,%esp
    4886:	5b                   	pop    %ebx
    4887:	c3                   	ret    
    4888:	90                   	nop
    4889:	8d b4 26 00 00 00 00 	lea    0x0(%esi,%eiz,1),%esi

00004890 <.L40>:
    4890:	8b 48 0c             	mov    0xc(%eax),%ecx
    4893:	8b 50 04             	mov    0x4(%eax),%edx
    4896:	8d 83 60 1d 05 00    	lea    0x51d60(%ebx),%eax
    489c:	eb da                	jmp    4878 <.L39+0x20>
    489e:	66 90                	xchg   %ax,%ax

000048a0 <.L35>:
    48a0:	8d 83 a8 fd fe ff    	lea    -0x10258(%ebx),%eax
    48a6:	83 ec 0c             	sub    $0xc,%esp
    48a9:	50                   	push   %eax
    48aa:	e8 51 df ff ff       	call   2800 <puts@plt>
    48af:	8d 83 e4 fe fe ff    	lea    -0x1011c(%ebx),%eax
    48b5:	50                   	push   %eax
    48b6:	6a 54                	push   $0x54
    48b8:	8d 83 f9 fd fe ff    	lea    -0x10207(%ebx),%eax
    48be:	50                   	push   %eax
    48bf:	8d 83 74 1a ff ff    	lea    -0xe58c(%ebx),%eax
    48c5:	50                   	push   %eax
    48c6:	e8 c5 df ff ff       	call   2890 <__assert_fail@plt>
    48cb:	90                   	nop
    48cc:	8d 74 26 00          	lea    0x0(%esi,%eiz,1),%esi

000048d0 <.L37>:
    48d0:	8b 50 10             	mov    0x10(%eax),%edx
    48d3:	83 fa 10             	cmp    $0x10,%edx
    48d6:	0f 84 8c 00 00 00    	je     4968 <.L38+0x58>
    48dc:	83 fa 20             	cmp    $0x20,%edx
    48df:	0f 84 bb 00 00 00    	je     49a0 <.L38+0x90>
    48e5:	83 fa 08             	cmp    $0x8,%edx
    48e8:	0f 84 92 00 00 00    	je     4980 <.L38+0x70>
    48ee:	8d 83 12 fe fe ff    	lea    -0x101ee(%ebx),%eax
    48f4:	83 ec 08             	sub    $0x8,%esp
    48f7:	0f b6 d2             	movzbl %dl,%edx
    48fa:	52                   	push   %edx
    48fb:	50                   	push   %eax
    48fc:	e8 bf de ff ff       	call   27c0 <printf@plt>
    4901:	8d 83 e4 fe fe ff    	lea    -0x1011c(%ebx),%eax
    4907:	50                   	push   %eax
    4908:	6a 4e                	push   $0x4e
    490a:	eb ac                	jmp    48b8 <.L35+0x18>
    490c:	8d 74 26 00          	lea    0x0(%esi,%eiz,1),%esi

00004910 <.L38>:
    4910:	ff 70 0c             	pushl  0xc(%eax)
    4913:	8b 50 10             	mov    0x10(%eax),%edx
    4916:	c1 ea 03             	shr    $0x3,%edx
    4919:	52                   	push   %edx
    491a:	0f b6 50 08          	movzbl 0x8(%eax),%edx
    491e:	52                   	push   %edx
    491f:	ff 70 04             	pushl  0x4(%eax)
    4922:	e8 09 59 01 00       	call   1a230 <vaddr_write>
    4927:	83 c4 10             	add    $0x10,%esp
    492a:	83 c4 08             	add    $0x8,%esp
    492d:	5b                   	pop    %ebx
    492e:	c3                   	ret    
    492f:	90                   	nop
    4930:	8d 83 cc fd fe ff    	lea    -0x10234(%ebx),%eax
    4936:	83 ec 08             	sub    $0x8,%esp
    4939:	52                   	push   %edx
    493a:	50                   	push   %eax
    493b:	e8 80 de ff ff       	call   27c0 <printf@plt>
    4940:	8d 83 e4 fe fe ff    	lea    -0x1011c(%ebx),%eax
    4946:	50                   	push   %eax
    4947:	6a 60                	push   $0x60
    4949:	e9 6a ff ff ff       	jmp    48b8 <.L35+0x18>
    494e:	66 90                	xchg   %ax,%ax
    4950:	8b 48 0c             	mov    0xc(%eax),%ecx
    4953:	8d 83 60 1d 05 00    	lea    0x51d60(%ebx),%eax
    4959:	89 48 30             	mov    %ecx,0x30(%eax)
    495c:	e9 17 ff ff ff       	jmp    4878 <.L39+0x20>
    4961:	8d b4 26 00 00 00 00 	lea    0x0(%esi,%eiz,1),%esi
    4968:	8b 50 04             	mov    0x4(%eax),%edx
    496b:	8b 48 0c             	mov    0xc(%eax),%ecx
    496e:	8d 83 60 1d 05 00    	lea    0x51d60(%ebx),%eax
    4974:	66 89 0c 90          	mov    %cx,(%eax,%edx,4)
    4978:	e9 06 ff ff ff       	jmp    4883 <.L39+0x2b>
    497d:	8d 76 00             	lea    0x0(%esi),%esi
    4980:	8b 48 04             	mov    0x4(%eax),%ecx
    4983:	8b 40 0c             	mov    0xc(%eax),%eax
    4986:	89 ca                	mov    %ecx,%edx
    4988:	c1 e9 02             	shr    $0x2,%ecx
    498b:	83 e2 03             	and    $0x3,%edx
    498e:	c1 e2 02             	shl    $0x2,%edx
    4991:	03 93 dc ff ff ff    	add    -0x24(%ebx),%edx
    4997:	88 04 0a             	mov    %al,(%edx,%ecx,1)
    499a:	e9 e4 fe ff ff       	jmp    4883 <.L39+0x2b>
    499f:	90                   	nop
    49a0:	8b 50 04             	mov    0x4(%eax),%edx
    49a3:	8b 48 0c             	mov    0xc(%eax),%ecx
    49a6:	8d 83 60 1d 05 00    	lea    0x51d60(%ebx),%eax
    49ac:	89 0c 90             	mov    %ecx,(%eax,%edx,4)
    49af:	e9 cf fe ff ff       	jmp    4883 <.L39+0x2b>
    49b4:	8d b6 00 00 00 00    	lea    0x0(%esi),%esi
    49ba:	8d bf 00 00 00 00    	lea    0x0(%edi),%edi

000049c0 <parse_operand_address>:
    49c0:	55                   	push   %ebp
    49c1:	57                   	push   %edi
    49c2:	31 c0                	xor    %eax,%eax
    49c4:	56                   	push   %esi
    49c5:	53                   	push   %ebx
    49c6:	b9 09 00 00 00       	mov    $0x9,%ecx
    49cb:	e8 f0 e2 ff ff       	call   2cc0 <__x86.get_pc_thunk.bx>
    49d0:	81 c3 30 66 02 00    	add    $0x26630,%ebx
    49d6:	83 ec 4c             	sub    $0x4c,%esp
    49d9:	8b 74 24 60          	mov    0x60(%esp),%esi
    49dd:	8d 7c 24 1c          	lea    0x1c(%esp),%edi
    49e1:	c7 44 24 04 00 00 00 	movl   $0x0,0x4(%esp)
    49e8:	00 
    49e9:	c7 44 24 08 00 00 00 	movl   $0x0,0x8(%esp)
    49f0:	00 
    49f1:	c7 44 24 0c 00 00 00 	movl   $0x0,0xc(%esp)
    49f8:	00 
    49f9:	f3 ab                	rep stos %eax,%es:(%edi)
    49fb:	8b 06                	mov    (%esi),%eax
    49fd:	c7 44 24 10 00 00 00 	movl   $0x0,0x10(%esp)
    4a04:	00 
    4a05:	c7 44 24 14 00 00 00 	movl   $0x0,0x14(%esp)
    4a0c:	00 
    4a0d:	c7 44 24 18 00 00 00 	movl   $0x0,0x18(%esp)
    4a14:	00 
    4a15:	83 f8 04             	cmp    $0x4,%eax
    4a18:	0f 87 72 01 00 00    	ja     4b90 <.L61+0x90>
    4a1e:	8b 94 83 b8 fe fe ff 	mov    -0x10148(%ebx,%eax,4),%edx
    4a25:	01 da                	add    %ebx,%edx
    4a27:	ff e2                	jmp    *%edx
    4a29:	8d b4 26 00 00 00 00 	lea    0x0(%esi,%eiz,1),%esi

00004a30 <.L62>:
    4a30:	8d 83 4a fe fe ff    	lea    -0x101b6(%ebx),%eax
    4a36:	83 ec 04             	sub    $0x4,%esp
    4a39:	ff 76 04             	pushl  0x4(%esi)
    4a3c:	50                   	push   %eax
    4a3d:	ff 74 24 70          	pushl  0x70(%esp)
    4a41:	e8 ea db ff ff       	call   2630 <sprintf@plt>
    4a46:	83 c4 10             	add    $0x10,%esp
    4a49:	83 c4 4c             	add    $0x4c,%esp
    4a4c:	5b                   	pop    %ebx
    4a4d:	5e                   	pop    %esi
    4a4e:	5f                   	pop    %edi
    4a4f:	5d                   	pop    %ebp
    4a50:	c3                   	ret    
    4a51:	8d b4 26 00 00 00 00 	lea    0x0(%esi,%eiz,1),%esi

00004a58 <.L63>:
    4a58:	8b 56 04             	mov    0x4(%esi),%edx
    4a5b:	8d 83 a0 0f 00 00    	lea    0xfa0(%ebx),%eax
    4a61:	83 ec 08             	sub    $0x8,%esp
    4a64:	ff 34 90             	pushl  (%eax,%edx,4)
    4a67:	ff 74 24 70          	pushl  0x70(%esp)
    4a6b:	e8 10 de ff ff       	call   2880 <strcpy@plt>
    4a70:	83 c4 10             	add    $0x10,%esp
    4a73:	83 c4 4c             	add    $0x4c,%esp
    4a76:	5b                   	pop    %ebx
    4a77:	5e                   	pop    %esi
    4a78:	5f                   	pop    %edi
    4a79:	5d                   	pop    %ebp
    4a7a:	c3                   	ret    
    4a7b:	90                   	nop
    4a7c:	8d 74 26 00          	lea    0x0(%esi,%eiz,1),%esi

00004a80 <.L58>:
    4a80:	83 ec 0c             	sub    $0xc,%esp
    4a83:	56                   	push   %esi
    4a84:	e8 17 fc ff ff       	call   46a0 <operand_read>
    4a89:	8d 83 44 fe fe ff    	lea    -0x101bc(%ebx),%eax
    4a8f:	83 c4 0c             	add    $0xc,%esp
    4a92:	ff 76 0c             	pushl  0xc(%esi)
    4a95:	50                   	push   %eax
    4a96:	ff 74 24 70          	pushl  0x70(%esp)
    4a9a:	e8 91 db ff ff       	call   2630 <sprintf@plt>
    4a9f:	83 c4 10             	add    $0x10,%esp
    4aa2:	83 c4 4c             	add    $0x4c,%esp
    4aa5:	5b                   	pop    %ebx
    4aa6:	5e                   	pop    %esi
    4aa7:	5f                   	pop    %edi
    4aa8:	5d                   	pop    %ebp
    4aa9:	c3                   	ret    
    4aaa:	8d b6 00 00 00 00    	lea    0x0(%esi),%esi

00004ab0 <.L60>:
    4ab0:	8b 46 10             	mov    0x10(%esi),%eax
    4ab3:	83 f8 10             	cmp    $0x10,%eax
    4ab6:	0f 84 54 01 00 00    	je     4c10 <.L61+0x110>
    4abc:	83 f8 20             	cmp    $0x20,%eax
    4abf:	0f 84 8b 01 00 00    	je     4c50 <.L61+0x150>
    4ac5:	83 f8 08             	cmp    $0x8,%eax
    4ac8:	0f 84 62 01 00 00    	je     4c30 <.L61+0x130>
    4ace:	83 ec 08             	sub    $0x8,%esp
    4ad1:	50                   	push   %eax
    4ad2:	8d 83 2b fe fe ff    	lea    -0x101d5(%ebx),%eax
    4ad8:	50                   	push   %eax
    4ad9:	e8 e2 dc ff ff       	call   27c0 <printf@plt>
    4ade:	8d 83 cc fe fe ff    	lea    -0x10134(%ebx),%eax
    4ae4:	50                   	push   %eax
    4ae5:	8d 83 f9 fd fe ff    	lea    -0x10207(%ebx),%eax
    4aeb:	6a 76                	push   $0x76
    4aed:	50                   	push   %eax
    4aee:	8d 83 74 1a ff ff    	lea    -0xe58c(%ebx),%eax
    4af4:	50                   	push   %eax
    4af5:	e8 96 dd ff ff       	call   2890 <__assert_fail@plt>
    4afa:	8d b6 00 00 00 00    	lea    0x0(%esi),%esi

00004b00 <.L61>:
    4b00:	8b 46 14             	mov    0x14(%esi),%eax
    4b03:	8d 7c 24 04          	lea    0x4(%esp),%edi
    4b07:	83 f8 ff             	cmp    $0xffffffff,%eax
    4b0a:	74 2a                	je     4b36 <.L61+0x36>
    4b0c:	99                   	cltd   
    4b0d:	89 d1                	mov    %edx,%ecx
    4b0f:	31 c1                	xor    %eax,%ecx
    4b11:	29 d1                	sub    %edx,%ecx
    4b13:	85 c0                	test   %eax,%eax
    4b15:	8d 93 29 fe fe ff    	lea    -0x101d7(%ebx),%edx
    4b1b:	8d 83 24 17 ff ff    	lea    -0xe8dc(%ebx),%eax
    4b21:	51                   	push   %ecx
    4b22:	0f 48 c2             	cmovs  %edx,%eax
    4b25:	50                   	push   %eax
    4b26:	8d 83 51 fe fe ff    	lea    -0x101af(%ebx),%eax
    4b2c:	50                   	push   %eax
    4b2d:	57                   	push   %edi
    4b2e:	e8 fd da ff ff       	call   2630 <sprintf@plt>
    4b33:	83 c4 10             	add    $0x10,%esp
    4b36:	8b 46 18             	mov    0x18(%esi),%eax
    4b39:	83 f8 ff             	cmp    $0xffffffff,%eax
    4b3c:	0f 84 9e 00 00 00    	je     4be0 <.L61+0xe0>
    4b42:	8b 56 1c             	mov    0x1c(%esi),%edx
    4b45:	83 fa ff             	cmp    $0xffffffff,%edx
    4b48:	74 07                	je     4b51 <.L61+0x51>
    4b4a:	8b 4e 20             	mov    0x20(%esi),%ecx
    4b4d:	85 c9                	test   %ecx,%ecx
    4b4f:	75 5f                	jne    4bb0 <.L61+0xb0>
    4b51:	8d 93 00 10 00 00    	lea    0x1000(%ebx),%edx
    4b57:	83 ec 04             	sub    $0x4,%esp
    4b5a:	ff 34 82             	pushl  (%edx,%eax,4)
    4b5d:	8d 83 58 fe fe ff    	lea    -0x101a8(%ebx),%eax
    4b63:	50                   	push   %eax
    4b64:	8d 6c 24 24          	lea    0x24(%esp),%ebp
    4b68:	55                   	push   %ebp
    4b69:	e8 c2 da ff ff       	call   2630 <sprintf@plt>
    4b6e:	83 c4 10             	add    $0x10,%esp
    4b71:	8d 83 71 fe fe ff    	lea    -0x1018f(%ebx),%eax
    4b77:	55                   	push   %ebp
    4b78:	57                   	push   %edi
    4b79:	50                   	push   %eax
    4b7a:	ff 74 24 70          	pushl  0x70(%esp)
    4b7e:	e8 ad da ff ff       	call   2630 <sprintf@plt>
    4b83:	83 c4 10             	add    $0x10,%esp
    4b86:	83 c4 4c             	add    $0x4c,%esp
    4b89:	5b                   	pop    %ebx
    4b8a:	5e                   	pop    %esi
    4b8b:	5f                   	pop    %edi
    4b8c:	5d                   	pop    %ebp
    4b8d:	c3                   	ret    
    4b8e:	66 90                	xchg   %ax,%ax
    4b90:	83 ec 08             	sub    $0x8,%esp
    4b93:	50                   	push   %eax
    4b94:	8d 83 76 fe fe ff    	lea    -0x1018a(%ebx),%eax
    4b9a:	50                   	push   %eax
    4b9b:	e8 20 dc ff ff       	call   27c0 <printf@plt>
    4ba0:	83 c4 10             	add    $0x10,%esp
    4ba3:	83 c4 4c             	add    $0x4c,%esp
    4ba6:	5b                   	pop    %ebx
    4ba7:	5e                   	pop    %esi
    4ba8:	5f                   	pop    %edi
    4ba9:	5d                   	pop    %ebp
    4baa:	c3                   	ret    
    4bab:	90                   	nop
    4bac:	8d 74 26 00          	lea    0x0(%esi,%eiz,1),%esi
    4bb0:	83 ec 0c             	sub    $0xc,%esp
    4bb3:	51                   	push   %ecx
    4bb4:	8d 8b 00 10 00 00    	lea    0x1000(%ebx),%ecx
    4bba:	ff 34 91             	pushl  (%ecx,%edx,4)
    4bbd:	ff 34 81             	pushl  (%ecx,%eax,4)
    4bc0:	8d 83 66 fe fe ff    	lea    -0x1019a(%ebx),%eax
    4bc6:	50                   	push   %eax
    4bc7:	8d 6c 24 34          	lea    0x34(%esp),%ebp
    4bcb:	55                   	push   %ebp
    4bcc:	e8 5f da ff ff       	call   2630 <sprintf@plt>
    4bd1:	83 c4 20             	add    $0x20,%esp
    4bd4:	eb 9b                	jmp    4b71 <.L61+0x71>
    4bd6:	8d 76 00             	lea    0x0(%esi),%esi
    4bd9:	8d bc 27 00 00 00 00 	lea    0x0(%edi,%eiz,1),%edi
    4be0:	8b 46 1c             	mov    0x1c(%esi),%eax
    4be3:	8d 6c 24 18          	lea    0x18(%esp),%ebp
    4be7:	83 f8 ff             	cmp    $0xffffffff,%eax
    4bea:	74 85                	je     4b71 <.L61+0x71>
    4bec:	8d 93 00 10 00 00    	lea    0x1000(%ebx),%edx
    4bf2:	ff 76 20             	pushl  0x20(%esi)
    4bf5:	ff 34 82             	pushl  (%edx,%eax,4)
    4bf8:	8d 83 5d fe fe ff    	lea    -0x101a3(%ebx),%eax
    4bfe:	50                   	push   %eax
    4bff:	55                   	push   %ebp
    4c00:	e8 2b da ff ff       	call   2630 <sprintf@plt>
    4c05:	83 c4 10             	add    $0x10,%esp
    4c08:	e9 64 ff ff ff       	jmp    4b71 <.L61+0x71>
    4c0d:	8d 76 00             	lea    0x0(%esi),%esi
    4c10:	8b 56 04             	mov    0x4(%esi),%edx
    4c13:	8d 83 e0 0f 00 00    	lea    0xfe0(%ebx),%eax
    4c19:	83 ec 08             	sub    $0x8,%esp
    4c1c:	ff 34 90             	pushl  (%eax,%edx,4)
    4c1f:	ff 74 24 70          	pushl  0x70(%esp)
    4c23:	e8 58 dc ff ff       	call   2880 <strcpy@plt>
    4c28:	83 c4 10             	add    $0x10,%esp
    4c2b:	e9 19 fe ff ff       	jmp    4a49 <.L62+0x19>
    4c30:	8b 56 04             	mov    0x4(%esi),%edx
    4c33:	8d 83 c0 0f 00 00    	lea    0xfc0(%ebx),%eax
    4c39:	83 ec 08             	sub    $0x8,%esp
    4c3c:	ff 34 90             	pushl  (%eax,%edx,4)
    4c3f:	ff 74 24 70          	pushl  0x70(%esp)
    4c43:	e8 38 dc ff ff       	call   2880 <strcpy@plt>
    4c48:	83 c4 10             	add    $0x10,%esp
    4c4b:	e9 f9 fd ff ff       	jmp    4a49 <.L62+0x19>
    4c50:	8b 56 04             	mov    0x4(%esi),%edx
    4c53:	8d 83 00 10 00 00    	lea    0x1000(%ebx),%eax
    4c59:	83 ec 08             	sub    $0x8,%esp
    4c5c:	ff 34 90             	pushl  (%eax,%edx,4)
    4c5f:	ff 74 24 70          	pushl  0x70(%esp)
    4c63:	e8 18 dc ff ff       	call   2880 <strcpy@plt>
    4c68:	83 c4 10             	add    $0x10,%esp
    4c6b:	e9 d9 fd ff ff       	jmp    4a49 <.L62+0x19>

00004c70 <clear_operand_mem_addr>:
    4c70:	8b 44 24 04          	mov    0x4(%esp),%eax
    4c74:	c7 40 14 ff ff ff ff 	movl   $0xffffffff,0x14(%eax)
    4c7b:	c7 40 18 ff ff ff ff 	movl   $0xffffffff,0x18(%eax)
    4c82:	c7 40 1c ff ff ff ff 	movl   $0xffffffff,0x1c(%eax)
    4c89:	c7 40 20 ff ff ff ff 	movl   $0xffffffff,0x20(%eax)
    4c90:	c3                   	ret    
    4c91:	66 90                	xchg   %ax,%ax
    4c93:	66 90                	xchg   %ax,%ax
    4c95:	66 90                	xchg   %ax,%ax
    4c97:	66 90                	xchg   %ax,%ax
    4c99:	66 90                	xchg   %ax,%ax
    4c9b:	66 90                	xchg   %ax,%ax
    4c9d:	66 90                	xchg   %ax,%ax
    4c9f:	90                   	nop

00004ca0 <parse_sib>:
    4ca0:	55                   	push   %ebp
    4ca1:	57                   	push   %edi
    4ca2:	56                   	push   %esi
    4ca3:	53                   	push   %ebx
    4ca4:	e8 17 e0 ff ff       	call   2cc0 <__x86.get_pc_thunk.bx>
    4ca9:	81 c3 57 63 02 00    	add    $0x26357,%ebx
    4caf:	83 ec 24             	sub    $0x24,%esp
    4cb2:	8b 7c 24 40          	mov    0x40(%esp),%edi
    4cb6:	8b 74 24 3c          	mov    0x3c(%esp),%esi
    4cba:	6a 01                	push   $0x1
    4cbc:	ff 74 24 3c          	pushl  0x3c(%esp)
    4cc0:	e8 1b 56 01 00       	call   1a2e0 <instr_fetch>
    4cc5:	89 c1                	mov    %eax,%ecx
    4cc7:	31 d2                	xor    %edx,%edx
    4cc9:	83 e1 07             	and    $0x7,%ecx
    4ccc:	88 c2                	mov    %al,%dl
    4cce:	8d 69 fc             	lea    -0x4(%ecx),%ebp
    4cd1:	88 4c 24 1f          	mov    %cl,0x1f(%esp)
    4cd5:	83 c4 10             	add    $0x10,%esp
    4cd8:	89 e9                	mov    %ebp,%ecx
    4cda:	80 f9 02             	cmp    $0x2,%cl
    4cdd:	0f 93 c1             	setae  %cl
    4ce0:	83 e0 38             	and    $0x38,%eax
    4ce3:	89 cd                	mov    %ecx,%ebp
    4ce5:	83 c5 02             	add    $0x2,%ebp
    4ce8:	89 e9                	mov    %ebp,%ecx
    4cea:	31 ed                	xor    %ebp,%ebp
    4cec:	3c 20                	cmp    $0x20,%al
    4cee:	88 4f 08             	mov    %cl,0x8(%edi)
    4cf1:	74 3d                	je     4d30 <parse_sib+0x90>
    4cf3:	89 d0                	mov    %edx,%eax
    4cf5:	8d ab 60 1d 05 00    	lea    0x51d60(%ebx),%ebp
    4cfb:	c1 e8 03             	shr    $0x3,%eax
    4cfe:	83 e0 07             	and    $0x7,%eax
    4d01:	8b 6c 85 00          	mov    0x0(%ebp,%eax,4),%ebp
    4d05:	89 47 1c             	mov    %eax,0x1c(%edi)
    4d08:	89 d0                	mov    %edx,%eax
    4d0a:	c1 e8 06             	shr    $0x6,%eax
    4d0d:	3c 02                	cmp    $0x2,%al
    4d0f:	0f 84 cb 00 00 00    	je     4de0 <parse_sib+0x140>
    4d15:	0f 87 b5 00 00 00    	ja     4dd0 <parse_sib+0x130>
    4d1b:	3c 01                	cmp    $0x1,%al
    4d1d:	0f 85 9d 00 00 00    	jne    4dc0 <parse_sib+0x120>
    4d23:	01 ed                	add    %ebp,%ebp
    4d25:	c7 47 20 02 00 00 00 	movl   $0x2,0x20(%edi)
    4d2c:	8d 74 26 00          	lea    0x0(%esi,%eiz,1),%esi
    4d30:	85 f6                	test   %esi,%esi
    4d32:	74 5c                	je     4d90 <parse_sib+0xf0>
    4d34:	83 fe 02             	cmp    $0x2,%esi
    4d37:	77 27                	ja     4d60 <parse_sib+0xc0>
    4d39:	8d 83 60 1d 05 00    	lea    0x51d60(%ebx),%eax
    4d3f:	83 e2 07             	and    $0x7,%edx
    4d42:	03 2c 90             	add    (%eax,%edx,4),%ebp
    4d45:	89 57 18             	mov    %edx,0x18(%edi)
    4d48:	b8 01 00 00 00       	mov    $0x1,%eax
    4d4d:	89 6f 04             	mov    %ebp,0x4(%edi)
    4d50:	83 c4 1c             	add    $0x1c,%esp
    4d53:	5b                   	pop    %ebx
    4d54:	5e                   	pop    %esi
    4d55:	5f                   	pop    %edi
    4d56:	5d                   	pop    %ebp
    4d57:	c3                   	ret    
    4d58:	90                   	nop
    4d59:	8d b4 26 00 00 00 00 	lea    0x0(%esi,%eiz,1),%esi
    4d60:	8d 83 01 ff fe ff    	lea    -0x100ff(%ebx),%eax
    4d66:	83 ec 0c             	sub    $0xc,%esp
    4d69:	50                   	push   %eax
    4d6a:	e8 91 da ff ff       	call   2800 <puts@plt>
    4d6f:	8d 83 2c ff fe ff    	lea    -0x100d4(%ebx),%eax
    4d75:	50                   	push   %eax
    4d76:	8d 83 17 ff fe ff    	lea    -0x100e9(%ebx),%eax
    4d7c:	6a 5a                	push   $0x5a
    4d7e:	50                   	push   %eax
    4d7f:	8d 83 74 1a ff ff    	lea    -0xe58c(%ebx),%eax
    4d85:	50                   	push   %eax
    4d86:	e8 05 db ff ff       	call   2890 <__assert_fail@plt>
    4d8b:	90                   	nop
    4d8c:	8d 74 26 00          	lea    0x0(%esi,%eiz,1),%esi
    4d90:	80 7c 24 0f 05       	cmpb   $0x5,0xf(%esp)
    4d95:	75 a2                	jne    4d39 <parse_sib+0x99>
    4d97:	83 ec 08             	sub    $0x8,%esp
    4d9a:	6a 04                	push   $0x4
    4d9c:	8b 44 24 3c          	mov    0x3c(%esp),%eax
    4da0:	83 c0 01             	add    $0x1,%eax
    4da3:	50                   	push   %eax
    4da4:	e8 37 55 01 00       	call   1a2e0 <instr_fetch>
    4da9:	01 c5                	add    %eax,%ebp
    4dab:	89 47 14             	mov    %eax,0x14(%edi)
    4dae:	83 c4 10             	add    $0x10,%esp
    4db1:	89 6f 04             	mov    %ebp,0x4(%edi)
    4db4:	b8 05 00 00 00       	mov    $0x5,%eax
    4db9:	eb 95                	jmp    4d50 <parse_sib+0xb0>
    4dbb:	90                   	nop
    4dbc:	8d 74 26 00          	lea    0x0(%esi,%eiz,1),%esi
    4dc0:	c7 47 20 01 00 00 00 	movl   $0x1,0x20(%edi)
    4dc7:	e9 64 ff ff ff       	jmp    4d30 <parse_sib+0x90>
    4dcc:	8d 74 26 00          	lea    0x0(%esi,%eiz,1),%esi
    4dd0:	c1 e5 03             	shl    $0x3,%ebp
    4dd3:	c7 47 20 08 00 00 00 	movl   $0x8,0x20(%edi)
    4dda:	e9 51 ff ff ff       	jmp    4d30 <parse_sib+0x90>
    4ddf:	90                   	nop
    4de0:	c1 e5 02             	shl    $0x2,%ebp
    4de3:	c7 47 20 04 00 00 00 	movl   $0x4,0x20(%edi)
    4dea:	e9 41 ff ff ff       	jmp    4d30 <parse_sib+0x90>
    4def:	90                   	nop

00004df0 <print_reg>:
    4df0:	56                   	push   %esi
    4df1:	53                   	push   %ebx
    4df2:	e8 c9 de ff ff       	call   2cc0 <__x86.get_pc_thunk.bx>
    4df7:	81 c3 09 62 02 00    	add    $0x26209,%ebx
    4dfd:	83 ec 0c             	sub    $0xc,%esp
    4e00:	8d b3 60 1d 05 00    	lea    0x51d60(%ebx),%esi
    4e06:	8d 83 36 ff fe ff    	lea    -0x100ca(%ebx),%eax
    4e0c:	ff 36                	pushl  (%esi)
    4e0e:	50                   	push   %eax
    4e0f:	e8 ac d9 ff ff       	call   27c0 <printf@plt>
    4e14:	58                   	pop    %eax
    4e15:	8d 83 42 ff fe ff    	lea    -0x100be(%ebx),%eax
    4e1b:	5a                   	pop    %edx
    4e1c:	ff 76 04             	pushl  0x4(%esi)
    4e1f:	50                   	push   %eax
    4e20:	e8 9b d9 ff ff       	call   27c0 <printf@plt>
    4e25:	59                   	pop    %ecx
    4e26:	58                   	pop    %eax
    4e27:	8d 83 4e ff fe ff    	lea    -0x100b2(%ebx),%eax
    4e2d:	ff 76 08             	pushl  0x8(%esi)
    4e30:	50                   	push   %eax
    4e31:	e8 8a d9 ff ff       	call   27c0 <printf@plt>
    4e36:	58                   	pop    %eax
    4e37:	8d 83 5a ff fe ff    	lea    -0x100a6(%ebx),%eax
    4e3d:	5a                   	pop    %edx
    4e3e:	ff 76 0c             	pushl  0xc(%esi)
    4e41:	50                   	push   %eax
    4e42:	e8 79 d9 ff ff       	call   27c0 <printf@plt>
    4e47:	59                   	pop    %ecx
    4e48:	58                   	pop    %eax
    4e49:	8d 83 66 ff fe ff    	lea    -0x1009a(%ebx),%eax
    4e4f:	ff 76 10             	pushl  0x10(%esi)
    4e52:	50                   	push   %eax
    4e53:	e8 68 d9 ff ff       	call   27c0 <printf@plt>
    4e58:	58                   	pop    %eax
    4e59:	8d 83 72 ff fe ff    	lea    -0x1008e(%ebx),%eax
    4e5f:	5a                   	pop    %edx
    4e60:	ff 76 14             	pushl  0x14(%esi)
    4e63:	50                   	push   %eax
    4e64:	e8 57 d9 ff ff       	call   27c0 <printf@plt>
    4e69:	59                   	pop    %ecx
    4e6a:	58                   	pop    %eax
    4e6b:	8d 83 7e ff fe ff    	lea    -0x10082(%ebx),%eax
    4e71:	ff 76 18             	pushl  0x18(%esi)
    4e74:	50                   	push   %eax
    4e75:	e8 46 d9 ff ff       	call   27c0 <printf@plt>
    4e7a:	58                   	pop    %eax
    4e7b:	8d 83 8a ff fe ff    	lea    -0x10076(%ebx),%eax
    4e81:	5a                   	pop    %edx
    4e82:	ff 76 1c             	pushl  0x1c(%esi)
    4e85:	50                   	push   %eax
    4e86:	e8 35 d9 ff ff       	call   27c0 <printf@plt>
    4e8b:	59                   	pop    %ecx
    4e8c:	58                   	pop    %eax
    4e8d:	8d 83 96 ff fe ff    	lea    -0x1006a(%ebx),%eax
    4e93:	ff 76 20             	pushl  0x20(%esi)
    4e96:	50                   	push   %eax
    4e97:	e8 24 d9 ff ff       	call   27c0 <printf@plt>
    4e9c:	83 c4 14             	add    $0x14,%esp
    4e9f:	5b                   	pop    %ebx
    4ea0:	5e                   	pop    %esi
    4ea1:	c3                   	ret    
    4ea2:	8d b4 26 00 00 00 00 	lea    0x0(%esi,%eiz,1),%esi
    4ea9:	8d bc 27 00 00 00 00 	lea    0x0(%edi,%eiz,1),%edi

00004eb0 <get_reg_val>:
    4eb0:	55                   	push   %ebp
    4eb1:	57                   	push   %edi
    4eb2:	31 ff                	xor    %edi,%edi
    4eb4:	56                   	push   %esi
    4eb5:	53                   	push   %ebx
    4eb6:	e8 05 de ff ff       	call   2cc0 <__x86.get_pc_thunk.bx>
    4ebb:	81 c3 45 61 02 00    	add    $0x26145,%ebx
    4ec1:	83 ec 1c             	sub    $0x1c,%esp
    4ec4:	8b 6c 24 34          	mov    0x34(%esp),%ebp
    4ec8:	8b 74 24 30          	mov    0x30(%esp),%esi
    4ecc:	c6 45 00 01          	movb   $0x1,0x0(%ebp)
    4ed0:	83 ec 08             	sub    $0x8,%esp
    4ed3:	8b 84 bb 00 10 00 00 	mov    0x1000(%ebx,%edi,4),%eax
    4eda:	56                   	push   %esi
    4edb:	89 44 24 18          	mov    %eax,0x18(%esp)
    4edf:	83 c0 01             	add    $0x1,%eax
    4ee2:	50                   	push   %eax
    4ee3:	e8 68 d7 ff ff       	call   2650 <strcmp@plt>
    4ee8:	83 c4 10             	add    $0x10,%esp
    4eeb:	85 c0                	test   %eax,%eax
    4eed:	0f 84 b5 00 00 00    	je     4fa8 <get_reg_val+0xf8>
    4ef3:	83 c7 01             	add    $0x1,%edi
    4ef6:	83 ff 08             	cmp    $0x8,%edi
    4ef9:	75 d5                	jne    4ed0 <get_reg_val+0x20>
    4efb:	31 ff                	xor    %edi,%edi
    4efd:	8d 76 00             	lea    0x0(%esi),%esi
    4f00:	83 ec 08             	sub    $0x8,%esp
    4f03:	8b 84 bb e0 0f 00 00 	mov    0xfe0(%ebx,%edi,4),%eax
    4f0a:	56                   	push   %esi
    4f0b:	89 44 24 18          	mov    %eax,0x18(%esp)
    4f0f:	83 c0 01             	add    $0x1,%eax
    4f12:	50                   	push   %eax
    4f13:	e8 38 d7 ff ff       	call   2650 <strcmp@plt>
    4f18:	83 c4 10             	add    $0x10,%esp
    4f1b:	85 c0                	test   %eax,%eax
    4f1d:	0f 84 ad 00 00 00    	je     4fd0 <get_reg_val+0x120>
    4f23:	83 c7 01             	add    $0x1,%edi
    4f26:	83 ff 08             	cmp    $0x8,%edi
    4f29:	75 d5                	jne    4f00 <get_reg_val+0x50>
    4f2b:	31 ff                	xor    %edi,%edi
    4f2d:	8d 76 00             	lea    0x0(%esi),%esi
    4f30:	83 ec 08             	sub    $0x8,%esp
    4f33:	8b 84 bb c0 0f 00 00 	mov    0xfc0(%ebx,%edi,4),%eax
    4f3a:	56                   	push   %esi
    4f3b:	89 44 24 18          	mov    %eax,0x18(%esp)
    4f3f:	83 c0 01             	add    $0x1,%eax
    4f42:	50                   	push   %eax
    4f43:	e8 08 d7 ff ff       	call   2650 <strcmp@plt>
    4f48:	83 c4 10             	add    $0x10,%esp
    4f4b:	85 c0                	test   %eax,%eax
    4f4d:	0f 84 95 00 00 00    	je     4fe8 <get_reg_val+0x138>
    4f53:	83 c7 01             	add    $0x1,%edi
    4f56:	83 ff 08             	cmp    $0x8,%edi
    4f59:	75 d5                	jne    4f30 <get_reg_val+0x80>
    4f5b:	80 3e 65             	cmpb   $0x65,(%esi)
    4f5e:	75 28                	jne    4f88 <get_reg_val+0xd8>
    4f60:	80 7e 01 69          	cmpb   $0x69,0x1(%esi)
    4f64:	75 22                	jne    4f88 <get_reg_val+0xd8>
    4f66:	80 7e 02 70          	cmpb   $0x70,0x2(%esi)
    4f6a:	75 1c                	jne    4f88 <get_reg_val+0xd8>
    4f6c:	80 7e 03 00          	cmpb   $0x0,0x3(%esi)
    4f70:	75 16                	jne    4f88 <get_reg_val+0xd8>
    4f72:	8d 83 60 1d 05 00    	lea    0x51d60(%ebx),%eax
    4f78:	8b 40 20             	mov    0x20(%eax),%eax
    4f7b:	83 c4 1c             	add    $0x1c,%esp
    4f7e:	5b                   	pop    %ebx
    4f7f:	5e                   	pop    %esi
    4f80:	5f                   	pop    %edi
    4f81:	5d                   	pop    %ebp
    4f82:	c3                   	ret    
    4f83:	90                   	nop
    4f84:	8d 74 26 00          	lea    0x0(%esi,%eiz,1),%esi
    4f88:	8d bb a2 ff fe ff    	lea    -0x1005e(%ebx),%edi
    4f8e:	b9 07 00 00 00       	mov    $0x7,%ecx
    4f93:	f3 a6                	repz cmpsb %es:(%edi),%ds:(%esi)
    4f95:	74 29                	je     4fc0 <get_reg_val+0x110>
    4f97:	c6 45 00 00          	movb   $0x0,0x0(%ebp)
    4f9b:	83 c4 1c             	add    $0x1c,%esp
    4f9e:	31 c0                	xor    %eax,%eax
    4fa0:	5b                   	pop    %ebx
    4fa1:	5e                   	pop    %esi
    4fa2:	5f                   	pop    %edi
    4fa3:	5d                   	pop    %ebp
    4fa4:	c3                   	ret    
    4fa5:	8d 76 00             	lea    0x0(%esi),%esi
    4fa8:	8d 83 60 1d 05 00    	lea    0x51d60(%ebx),%eax
    4fae:	8b 04 b8             	mov    (%eax,%edi,4),%eax
    4fb1:	83 c4 1c             	add    $0x1c,%esp
    4fb4:	5b                   	pop    %ebx
    4fb5:	5e                   	pop    %esi
    4fb6:	5f                   	pop    %edi
    4fb7:	5d                   	pop    %ebp
    4fb8:	c3                   	ret    
    4fb9:	8d b4 26 00 00 00 00 	lea    0x0(%esi,%eiz,1),%esi
    4fc0:	8d 83 60 1d 05 00    	lea    0x51d60(%ebx),%eax
    4fc6:	8b 40 24             	mov    0x24(%eax),%eax
    4fc9:	eb e6                	jmp    4fb1 <get_reg_val+0x101>
    4fcb:	90                   	nop
    4fcc:	8d 74 26 00          	lea    0x0(%esi,%eiz,1),%esi
    4fd0:	8d 83 60 1d 05 00    	lea    0x51d60(%ebx),%eax
    4fd6:	0f b7 04 b8          	movzwl (%eax,%edi,4),%eax
    4fda:	83 c4 1c             	add    $0x1c,%esp
    4fdd:	5b                   	pop    %ebx
    4fde:	5e                   	pop    %esi
    4fdf:	5f                   	pop    %edi
    4fe0:	5d                   	pop    %ebp
    4fe1:	c3                   	ret    
    4fe2:	8d b6 00 00 00 00    	lea    0x0(%esi),%esi
    4fe8:	8d 93 60 1d 05 00    	lea    0x51d60(%ebx),%edx
    4fee:	89 f8                	mov    %edi,%eax
    4ff0:	c1 ff 02             	sar    $0x2,%edi
    4ff3:	83 e0 03             	and    $0x3,%eax
    4ff6:	8d 04 82             	lea    (%edx,%eax,4),%eax
    4ff9:	0f b6 04 38          	movzbl (%eax,%edi,1),%eax
    4ffd:	83 c4 1c             	add    $0x1c,%esp
    5000:	5b                   	pop    %ebx
    5001:	5e                   	pop    %esi
    5002:	5f                   	pop    %edi
    5003:	5d                   	pop    %ebp
    5004:	c3                   	ret    
    5005:	8d 74 26 00          	lea    0x0(%esi,%eiz,1),%esi
    5009:	8d bc 27 00 00 00 00 	lea    0x0(%edi,%eiz,1),%edi

00005010 <reg_test>:
    5010:	55                   	push   %ebp
    5011:	57                   	push   %edi
    5012:	31 ff                	xor    %edi,%edi
    5014:	56                   	push   %esi
    5015:	53                   	push   %ebx
    5016:	e8 a5 dc ff ff       	call   2cc0 <__x86.get_pc_thunk.bx>
    501b:	81 c3 e5 5f 02 00    	add    $0x25fe5,%ebx
    5021:	83 ec 78             	sub    $0x78,%esp
    5024:	8d 83 a9 ff fe ff    	lea    -0x10057(%ebx),%eax
    502a:	50                   	push   %eax
    502b:	e8 d0 d7 ff ff       	call   2800 <puts@plt>
    5030:	c7 04 24 00 00 00 00 	movl   $0x0,(%esp)
    5037:	e8 34 d6 ff ff       	call   2670 <time@plt>
    503c:	89 04 24             	mov    %eax,(%esp)
    503f:	e8 ac d6 ff ff       	call   26f0 <srand@plt>
    5044:	e8 07 d7 ff ff       	call   2750 <rand@plt>
    5049:	8d 8b 60 1d 05 00    	lea    0x51d60(%ebx),%ecx
    504f:	89 44 24 18          	mov    %eax,0x18(%esp)
    5053:	c7 44 24 4c 01 00 00 	movl   $0x1,0x4c(%esp)
    505a:	00 
    505b:	89 4c 24 10          	mov    %ecx,0x10(%esp)
    505f:	83 c4 10             	add    $0x10,%esp
    5062:	89 41 20             	mov    %eax,0x20(%ecx)
    5065:	8d 44 24 1c          	lea    0x1c(%esp),%eax
    5069:	8d 74 24 3c          	lea    0x3c(%esp),%esi
    506d:	89 44 24 04          	mov    %eax,0x4(%esp)
    5071:	8d b4 26 00 00 00 00 	lea    0x0(%esi,%eiz,1),%esi
    5078:	e8 d3 d6 ff ff       	call   2750 <rand@plt>
    507d:	89 c5                	mov    %eax,%ebp
    507f:	8b 44 24 04          	mov    0x4(%esp),%eax
    5083:	c7 44 24 4c 20 00 00 	movl   $0x20,0x4c(%esp)
    508a:	00 
    508b:	89 6c 24 48          	mov    %ebp,0x48(%esp)
    508f:	89 7c 24 40          	mov    %edi,0x40(%esp)
    5093:	83 ec 0c             	sub    $0xc,%esp
    5096:	89 2c b8             	mov    %ebp,(%eax,%edi,4)
    5099:	56                   	push   %esi
    509a:	0f b7 ed             	movzwl %bp,%ebp
    509d:	e8 8e f7 ff ff       	call   4830 <operand_write>
    50a2:	c7 44 24 5c 10 00 00 	movl   $0x10,0x5c(%esp)
    50a9:	00 
    50aa:	89 34 24             	mov    %esi,(%esp)
    50ad:	e8 ee f5 ff ff       	call   46a0 <operand_read>
    50b2:	83 c4 10             	add    $0x10,%esp
    50b5:	39 6c 24 48          	cmp    %ebp,0x48(%esp)
    50b9:	0f 85 d2 01 00 00    	jne    5291 <reg_test+0x281>
    50bf:	83 c7 01             	add    $0x1,%edi
    50c2:	83 ff 08             	cmp    $0x8,%edi
    50c5:	75 b1                	jne    5078 <reg_test+0x68>
    50c7:	c7 44 24 4c 08 00 00 	movl   $0x8,0x4c(%esp)
    50ce:	00 
    50cf:	c7 44 24 40 00 00 00 	movl   $0x0,0x40(%esp)
    50d6:	00 
    50d7:	83 ec 0c             	sub    $0xc,%esp
    50da:	56                   	push   %esi
    50db:	e8 c0 f5 ff ff       	call   46a0 <operand_read>
    50e0:	8b 6c 24 2c          	mov    0x2c(%esp),%ebp
    50e4:	83 c4 10             	add    $0x10,%esp
    50e7:	89 e8                	mov    %ebp,%eax
    50e9:	0f b6 c0             	movzbl %al,%eax
    50ec:	39 44 24 48          	cmp    %eax,0x48(%esp)
    50f0:	0f 85 77 03 00 00    	jne    546d <reg_test+0x45d>
    50f6:	c7 44 24 40 04 00 00 	movl   $0x4,0x40(%esp)
    50fd:	00 
    50fe:	83 ec 0c             	sub    $0xc,%esp
    5101:	56                   	push   %esi
    5102:	e8 99 f5 ff ff       	call   46a0 <operand_read>
    5107:	89 e8                	mov    %ebp,%eax
    5109:	83 c4 10             	add    $0x10,%esp
    510c:	0f b6 c4             	movzbl %ah,%eax
    510f:	39 44 24 48          	cmp    %eax,0x48(%esp)
    5113:	0f 85 38 03 00 00    	jne    5451 <reg_test+0x441>
    5119:	c7 44 24 40 03 00 00 	movl   $0x3,0x40(%esp)
    5120:	00 
    5121:	83 ec 0c             	sub    $0xc,%esp
    5124:	56                   	push   %esi
    5125:	e8 76 f5 ff ff       	call   46a0 <operand_read>
    512a:	8b 44 24 38          	mov    0x38(%esp),%eax
    512e:	83 c4 10             	add    $0x10,%esp
    5131:	89 c7                	mov    %eax,%edi
    5133:	0f b6 c0             	movzbl %al,%eax
    5136:	39 44 24 48          	cmp    %eax,0x48(%esp)
    513a:	0f 85 f5 02 00 00    	jne    5435 <reg_test+0x425>
    5140:	c7 44 24 40 07 00 00 	movl   $0x7,0x40(%esp)
    5147:	00 
    5148:	83 ec 0c             	sub    $0xc,%esp
    514b:	56                   	push   %esi
    514c:	e8 4f f5 ff ff       	call   46a0 <operand_read>
    5151:	89 f8                	mov    %edi,%eax
    5153:	83 c4 10             	add    $0x10,%esp
    5156:	0f b6 c4             	movzbl %ah,%eax
    5159:	39 44 24 48          	cmp    %eax,0x48(%esp)
    515d:	0f 85 b6 02 00 00    	jne    5419 <reg_test+0x409>
    5163:	c7 44 24 40 01 00 00 	movl   $0x1,0x40(%esp)
    516a:	00 
    516b:	83 ec 0c             	sub    $0xc,%esp
    516e:	56                   	push   %esi
    516f:	e8 2c f5 ff ff       	call   46a0 <operand_read>
    5174:	8b 44 24 30          	mov    0x30(%esp),%eax
    5178:	89 44 24 14          	mov    %eax,0x14(%esp)
    517c:	83 c4 10             	add    $0x10,%esp
    517f:	0f b6 c0             	movzbl %al,%eax
    5182:	39 44 24 48          	cmp    %eax,0x48(%esp)
    5186:	0f 85 71 02 00 00    	jne    53fd <reg_test+0x3ed>
    518c:	c7 44 24 40 05 00 00 	movl   $0x5,0x40(%esp)
    5193:	00 
    5194:	83 ec 0c             	sub    $0xc,%esp
    5197:	56                   	push   %esi
    5198:	e8 03 f5 ff ff       	call   46a0 <operand_read>
    519d:	8b 44 24 14          	mov    0x14(%esp),%eax
    51a1:	83 c4 10             	add    $0x10,%esp
    51a4:	0f b6 c4             	movzbl %ah,%eax
    51a7:	39 44 24 48          	cmp    %eax,0x48(%esp)
    51ab:	0f 85 30 02 00 00    	jne    53e1 <reg_test+0x3d1>
    51b1:	c7 44 24 40 02 00 00 	movl   $0x2,0x40(%esp)
    51b8:	00 
    51b9:	83 ec 0c             	sub    $0xc,%esp
    51bc:	56                   	push   %esi
    51bd:	e8 de f4 ff ff       	call   46a0 <operand_read>
    51c2:	8b 44 24 34          	mov    0x34(%esp),%eax
    51c6:	83 c4 10             	add    $0x10,%esp
    51c9:	0f b6 d0             	movzbl %al,%edx
    51cc:	39 54 24 48          	cmp    %edx,0x48(%esp)
    51d0:	0f 85 ef 01 00 00    	jne    53c5 <reg_test+0x3b5>
    51d6:	89 44 24 0c          	mov    %eax,0xc(%esp)
    51da:	c7 44 24 40 06 00 00 	movl   $0x6,0x40(%esp)
    51e1:	00 
    51e2:	83 ec 0c             	sub    $0xc,%esp
    51e5:	56                   	push   %esi
    51e6:	e8 b5 f4 ff ff       	call   46a0 <operand_read>
    51eb:	8b 44 24 1c          	mov    0x1c(%esp),%eax
    51ef:	83 c4 10             	add    $0x10,%esp
    51f2:	0f b6 d4             	movzbl %ah,%edx
    51f5:	39 54 24 48          	cmp    %edx,0x48(%esp)
    51f9:	0f 85 aa 01 00 00    	jne    53a9 <reg_test+0x399>
    51ff:	8b 14 24             	mov    (%esp),%edx
    5202:	3b 2a                	cmp    (%edx),%ebp
    5204:	0f 85 83 01 00 00    	jne    538d <reg_test+0x37d>
    520a:	8b 0c 24             	mov    (%esp),%ecx
    520d:	8b 54 24 04          	mov    0x4(%esp),%edx
    5211:	3b 51 04             	cmp    0x4(%ecx),%edx
    5214:	0f 85 57 01 00 00    	jne    5371 <reg_test+0x361>
    521a:	8b 0c 24             	mov    (%esp),%ecx
    521d:	3b 41 08             	cmp    0x8(%ecx),%eax
    5220:	0f 85 2f 01 00 00    	jne    5355 <reg_test+0x345>
    5226:	8b 04 24             	mov    (%esp),%eax
    5229:	3b 78 0c             	cmp    0xc(%eax),%edi
    522c:	0f 85 07 01 00 00    	jne    5339 <reg_test+0x329>
    5232:	8b 04 24             	mov    (%esp),%eax
    5235:	8b 40 10             	mov    0x10(%eax),%eax
    5238:	39 44 24 2c          	cmp    %eax,0x2c(%esp)
    523c:	0f 85 db 00 00 00    	jne    531d <reg_test+0x30d>
    5242:	8b 04 24             	mov    (%esp),%eax
    5245:	8b 40 14             	mov    0x14(%eax),%eax
    5248:	39 44 24 30          	cmp    %eax,0x30(%esp)
    524c:	0f 85 af 00 00 00    	jne    5301 <reg_test+0x2f1>
    5252:	8b 04 24             	mov    (%esp),%eax
    5255:	8b 40 18             	mov    0x18(%eax),%eax
    5258:	39 44 24 34          	cmp    %eax,0x34(%esp)
    525c:	0f 85 83 00 00 00    	jne    52e5 <reg_test+0x2d5>
    5262:	8b 04 24             	mov    (%esp),%eax
    5265:	8b 40 1c             	mov    0x1c(%eax),%eax
    5268:	39 44 24 38          	cmp    %eax,0x38(%esp)
    526c:	75 5b                	jne    52c9 <reg_test+0x2b9>
    526e:	8b 04 24             	mov    (%esp),%eax
    5271:	8b 4c 24 08          	mov    0x8(%esp),%ecx
    5275:	3b 48 20             	cmp    0x20(%eax),%ecx
    5278:	75 33                	jne    52ad <reg_test+0x29d>
    527a:	8d 83 a0 02 ff ff    	lea    -0xfd60(%ebx),%eax
    5280:	83 ec 0c             	sub    $0xc,%esp
    5283:	50                   	push   %eax
    5284:	e8 77 d5 ff ff       	call   2800 <puts@plt>
    5289:	83 c4 7c             	add    $0x7c,%esp
    528c:	5b                   	pop    %ebx
    528d:	5e                   	pop    %esi
    528e:	5f                   	pop    %edi
    528f:	5d                   	pop    %ebp
    5290:	c3                   	ret    
    5291:	8d 83 c0 02 ff ff    	lea    -0xfd40(%ebx),%eax
    5297:	50                   	push   %eax
    5298:	8d 83 c5 ff fe ff    	lea    -0x1003b(%ebx),%eax
    529e:	6a 4c                	push   $0x4c
    52a0:	50                   	push   %eax
    52a1:	8d 83 d3 ff fe ff    	lea    -0x1002d(%ebx),%eax
    52a7:	50                   	push   %eax
    52a8:	e8 e3 d5 ff ff       	call   2890 <__assert_fail@plt>
    52ad:	8d 83 c0 02 ff ff    	lea    -0xfd40(%ebx),%eax
    52b3:	50                   	push   %eax
    52b4:	8d 83 c5 ff fe ff    	lea    -0x1003b(%ebx),%eax
    52ba:	6a 71                	push   $0x71
    52bc:	50                   	push   %eax
    52bd:	8d 83 c9 00 ff ff    	lea    -0xff37(%ebx),%eax
    52c3:	50                   	push   %eax
    52c4:	e8 c7 d5 ff ff       	call   2890 <__assert_fail@plt>
    52c9:	8d 83 c0 02 ff ff    	lea    -0xfd40(%ebx),%eax
    52cf:	50                   	push   %eax
    52d0:	8d 83 c5 ff fe ff    	lea    -0x1003b(%ebx),%eax
    52d6:	6a 6f                	push   $0x6f
    52d8:	50                   	push   %eax
    52d9:	8d 83 ae 00 ff ff    	lea    -0xff52(%ebx),%eax
    52df:	50                   	push   %eax
    52e0:	e8 ab d5 ff ff       	call   2890 <__assert_fail@plt>
    52e5:	8d 83 c0 02 ff ff    	lea    -0xfd40(%ebx),%eax
    52eb:	50                   	push   %eax
    52ec:	8d 83 c5 ff fe ff    	lea    -0x1003b(%ebx),%eax
    52f2:	6a 6e                	push   $0x6e
    52f4:	50                   	push   %eax
    52f5:	8d 83 93 00 ff ff    	lea    -0xff6d(%ebx),%eax
    52fb:	50                   	push   %eax
    52fc:	e8 8f d5 ff ff       	call   2890 <__assert_fail@plt>
    5301:	8d 83 c0 02 ff ff    	lea    -0xfd40(%ebx),%eax
    5307:	50                   	push   %eax
    5308:	8d 83 c5 ff fe ff    	lea    -0x1003b(%ebx),%eax
    530e:	6a 6d                	push   $0x6d
    5310:	50                   	push   %eax
    5311:	8d 83 78 00 ff ff    	lea    -0xff88(%ebx),%eax
    5317:	50                   	push   %eax
    5318:	e8 73 d5 ff ff       	call   2890 <__assert_fail@plt>
    531d:	8d 83 c0 02 ff ff    	lea    -0xfd40(%ebx),%eax
    5323:	50                   	push   %eax
    5324:	8d 83 c5 ff fe ff    	lea    -0x1003b(%ebx),%eax
    532a:	6a 6c                	push   $0x6c
    532c:	50                   	push   %eax
    532d:	8d 83 5d 00 ff ff    	lea    -0xffa3(%ebx),%eax
    5333:	50                   	push   %eax
    5334:	e8 57 d5 ff ff       	call   2890 <__assert_fail@plt>
    5339:	8d 83 c0 02 ff ff    	lea    -0xfd40(%ebx),%eax
    533f:	50                   	push   %eax
    5340:	8d 83 c5 ff fe ff    	lea    -0x1003b(%ebx),%eax
    5346:	6a 6b                	push   $0x6b
    5348:	50                   	push   %eax
    5349:	8d 83 42 00 ff ff    	lea    -0xffbe(%ebx),%eax
    534f:	50                   	push   %eax
    5350:	e8 3b d5 ff ff       	call   2890 <__assert_fail@plt>
    5355:	8d 83 c0 02 ff ff    	lea    -0xfd40(%ebx),%eax
    535b:	50                   	push   %eax
    535c:	8d 83 c5 ff fe ff    	lea    -0x1003b(%ebx),%eax
    5362:	6a 6a                	push   $0x6a
    5364:	50                   	push   %eax
    5365:	8d 83 27 00 ff ff    	lea    -0xffd9(%ebx),%eax
    536b:	50                   	push   %eax
    536c:	e8 1f d5 ff ff       	call   2890 <__assert_fail@plt>
    5371:	8d 83 c0 02 ff ff    	lea    -0xfd40(%ebx),%eax
    5377:	50                   	push   %eax
    5378:	8d 83 c5 ff fe ff    	lea    -0x1003b(%ebx),%eax
    537e:	6a 69                	push   $0x69
    5380:	50                   	push   %eax
    5381:	8d 83 0c 00 ff ff    	lea    -0xfff4(%ebx),%eax
    5387:	50                   	push   %eax
    5388:	e8 03 d5 ff ff       	call   2890 <__assert_fail@plt>
    538d:	8d 83 c0 02 ff ff    	lea    -0xfd40(%ebx),%eax
    5393:	50                   	push   %eax
    5394:	8d 83 c5 ff fe ff    	lea    -0x1003b(%ebx),%eax
    539a:	6a 68                	push   $0x68
    539c:	50                   	push   %eax
    539d:	8d 83 f1 ff fe ff    	lea    -0x1000f(%ebx),%eax
    53a3:	50                   	push   %eax
    53a4:	e8 e7 d4 ff ff       	call   2890 <__assert_fail@plt>
    53a9:	8d 83 c0 02 ff ff    	lea    -0xfd40(%ebx),%eax
    53af:	50                   	push   %eax
    53b0:	8d 83 c5 ff fe ff    	lea    -0x1003b(%ebx),%eax
    53b6:	6a 66                	push   $0x66
    53b8:	50                   	push   %eax
    53b9:	8d 83 74 02 ff ff    	lea    -0xfd8c(%ebx),%eax
    53bf:	50                   	push   %eax
    53c0:	e8 cb d4 ff ff       	call   2890 <__assert_fail@plt>
    53c5:	8d 83 c0 02 ff ff    	lea    -0xfd40(%ebx),%eax
    53cb:	50                   	push   %eax
    53cc:	8d 83 c5 ff fe ff    	lea    -0x1003b(%ebx),%eax
    53d2:	6a 63                	push   $0x63
    53d4:	50                   	push   %eax
    53d5:	8d 83 50 02 ff ff    	lea    -0xfdb0(%ebx),%eax
    53db:	50                   	push   %eax
    53dc:	e8 af d4 ff ff       	call   2890 <__assert_fail@plt>
    53e1:	8d 83 c0 02 ff ff    	lea    -0xfd40(%ebx),%eax
    53e7:	50                   	push   %eax
    53e8:	8d 83 c5 ff fe ff    	lea    -0x1003b(%ebx),%eax
    53ee:	6a 60                	push   $0x60
    53f0:	50                   	push   %eax
    53f1:	8d 83 24 02 ff ff    	lea    -0xfddc(%ebx),%eax
    53f7:	50                   	push   %eax
    53f8:	e8 93 d4 ff ff       	call   2890 <__assert_fail@plt>
    53fd:	8d 83 c0 02 ff ff    	lea    -0xfd40(%ebx),%eax
    5403:	50                   	push   %eax
    5404:	8d 83 c5 ff fe ff    	lea    -0x1003b(%ebx),%eax
    540a:	6a 5d                	push   $0x5d
    540c:	50                   	push   %eax
    540d:	8d 83 00 02 ff ff    	lea    -0xfe00(%ebx),%eax
    5413:	50                   	push   %eax
    5414:	e8 77 d4 ff ff       	call   2890 <__assert_fail@plt>
    5419:	8d 83 c0 02 ff ff    	lea    -0xfd40(%ebx),%eax
    541f:	50                   	push   %eax
    5420:	8d 83 c5 ff fe ff    	lea    -0x1003b(%ebx),%eax
    5426:	6a 5a                	push   $0x5a
    5428:	50                   	push   %eax
    5429:	8d 83 d4 01 ff ff    	lea    -0xfe2c(%ebx),%eax
    542f:	50                   	push   %eax
    5430:	e8 5b d4 ff ff       	call   2890 <__assert_fail@plt>
    5435:	8d 83 c0 02 ff ff    	lea    -0xfd40(%ebx),%eax
    543b:	50                   	push   %eax
    543c:	8d 83 c5 ff fe ff    	lea    -0x1003b(%ebx),%eax
    5442:	6a 57                	push   $0x57
    5444:	50                   	push   %eax
    5445:	8d 83 b0 01 ff ff    	lea    -0xfe50(%ebx),%eax
    544b:	50                   	push   %eax
    544c:	e8 3f d4 ff ff       	call   2890 <__assert_fail@plt>
    5451:	8d 83 c0 02 ff ff    	lea    -0xfd40(%ebx),%eax
    5457:	50                   	push   %eax
    5458:	8d 83 c5 ff fe ff    	lea    -0x1003b(%ebx),%eax
    545e:	6a 54                	push   $0x54
    5460:	50                   	push   %eax
    5461:	8d 83 84 01 ff ff    	lea    -0xfe7c(%ebx),%eax
    5467:	50                   	push   %eax
    5468:	e8 23 d4 ff ff       	call   2890 <__assert_fail@plt>
    546d:	8d 83 c0 02 ff ff    	lea    -0xfd40(%ebx),%eax
    5473:	50                   	push   %eax
    5474:	8d 83 c5 ff fe ff    	lea    -0x1003b(%ebx),%eax
    547a:	6a 51                	push   $0x51
    547c:	50                   	push   %eax
    547d:	8d 83 60 01 ff ff    	lea    -0xfea0(%ebx),%eax
    5483:	50                   	push   %eax
    5484:	e8 07 d4 ff ff       	call   2890 <__assert_fail@plt>
    5489:	66 90                	xchg   %ax,%ax
    548b:	66 90                	xchg   %ax,%ax
    548d:	66 90                	xchg   %ax,%ax
    548f:	90                   	nop

00005490 <init_cpu>:
    5490:	e8 55 de ff ff       	call   32ea <__x86.get_pc_thunk.ax>
    5495:	05 6b 5b 02 00       	add    $0x25b6b,%eax
    549a:	55                   	push   %ebp
    549b:	57                   	push   %edi
    549c:	31 c9                	xor    %ecx,%ecx
    549e:	56                   	push   %esi
    549f:	8d 90 20 1e 05 00    	lea    0x51e20(%eax),%edx
    54a5:	53                   	push   %ebx
    54a6:	8d 98 60 1d 05 00    	lea    0x51d60(%eax),%ebx
    54ac:	31 c0                	xor    %eax,%eax
    54ae:	66 89 4a 20          	mov    %cx,0x20(%edx)
    54b2:	c7 43 24 00 00 00 00 	movl   $0x0,0x24(%ebx)
    54b9:	c6 83 a0 00 00 00 00 	movb   $0x0,0xa0(%ebx)
    54c0:	c7 04 10 00 00 00 00 	movl   $0x0,(%eax,%edx,1)
    54c7:	c7 04 03 00 00 00 00 	movl   $0x0,(%ebx,%eax,1)
    54ce:	83 c0 04             	add    $0x4,%eax
    54d1:	83 f8 20             	cmp    $0x20,%eax
    54d4:	75 ea                	jne    54c0 <init_cpu+0x30>
    54d6:	8b 44 24 14          	mov    0x14(%esp),%eax
    54da:	ba ff ff ff ff       	mov    $0xffffffff,%edx
    54df:	c7 43 10 f0 ff ff 07 	movl   $0x7fffff0,0x10(%ebx)
    54e6:	66 89 53 28          	mov    %dx,0x28(%ebx)
    54ea:	c7 43 2c 00 00 00 00 	movl   $0x0,0x2c(%ebx)
    54f1:	89 da                	mov    %ebx,%edx
    54f3:	c7 43 30 00 00 00 00 	movl   $0x0,0x30(%ebx)
    54fa:	31 f6                	xor    %esi,%esi
    54fc:	89 43 20             	mov    %eax,0x20(%ebx)
    54ff:	90                   	nop
    5500:	31 c0                	xor    %eax,%eax
    5502:	c7 42 3c 00 00 00 00 	movl   $0x0,0x3c(%edx)
    5509:	c7 42 40 ff ff ff ff 	movl   $0xffffffff,0x40(%edx)
    5510:	66 89 42 38          	mov    %ax,0x38(%edx)
    5514:	8d 46 03             	lea    0x3(%esi),%eax
    5517:	83 c6 01             	add    $0x1,%esi
    551a:	83 c2 10             	add    $0x10,%edx
    551d:	c1 e0 04             	shl    $0x4,%eax
    5520:	01 d8                	add    %ebx,%eax
    5522:	83 fe 06             	cmp    $0x6,%esi
    5525:	c6 40 14 00          	movb   $0x0,0x14(%eax)
    5529:	75 d5                	jne    5500 <init_cpu+0x70>
    552b:	5b                   	pop    %ebx
    552c:	5e                   	pop    %esi
    552d:	5f                   	pop    %edi
    552e:	5d                   	pop    %ebp
    552f:	c3                   	ret    

00005530 <exec_inst>:
    5530:	56                   	push   %esi
    5531:	53                   	push   %ebx
    5532:	e8 89 d7 ff ff       	call   2cc0 <__x86.get_pc_thunk.bx>
    5537:	81 c3 c9 5a 02 00    	add    $0x25ac9,%ebx
    553d:	83 ec 0c             	sub    $0xc,%esp
    5540:	8d b3 60 1d 05 00    	lea    0x51d60(%ebx),%esi
    5546:	6a 01                	push   $0x1
    5548:	ff 76 20             	pushl  0x20(%esi)
    554b:	e8 90 4d 01 00       	call   1a2e0 <instr_fetch>
    5550:	5a                   	pop    %edx
    5551:	59                   	pop    %ecx
    5552:	0f b6 c0             	movzbl %al,%eax
    5555:	8d 93 a0 0b 00 00    	lea    0xba0(%ebx),%edx
    555b:	50                   	push   %eax
    555c:	ff 76 20             	pushl  0x20(%esi)
    555f:	ff 14 82             	call   *(%edx,%eax,4)
    5562:	83 c4 14             	add    $0x14,%esp
    5565:	5b                   	pop    %ebx
    5566:	5e                   	pop    %esi
    5567:	c3                   	ret    
    5568:	90                   	nop
    5569:	8d b4 26 00 00 00 00 	lea    0x0(%esi,%eiz,1),%esi

00005570 <exec>:
    5570:	55                   	push   %ebp
    5571:	57                   	push   %edi
    5572:	56                   	push   %esi
    5573:	53                   	push   %ebx
    5574:	e8 47 d7 ff ff       	call   2cc0 <__x86.get_pc_thunk.bx>
    5579:	81 c3 87 5a 02 00    	add    $0x25a87,%ebx
    557f:	83 ec 1c             	sub    $0x1c,%esp
    5582:	81 7c 24 30 a0 86 01 	cmpl   $0x186a0,0x30(%esp)
    5589:	00 
    558a:	8d 93 48 1e 05 00    	lea    0x51e48(%ebx),%edx
    5590:	8b 74 24 30          	mov    0x30(%esp),%esi
    5594:	89 14 24             	mov    %edx,(%esp)
    5597:	0f 96 c0             	setbe  %al
    559a:	83 3a 03             	cmpl   $0x3,(%edx)
    559d:	c7 02 01 00 00 00    	movl   $0x1,(%edx)
    55a3:	88 83 8d 14 05 00    	mov    %al,0x5148d(%ebx)
    55a9:	0f 94 c1             	sete   %cl
    55ac:	85 f6                	test   %esi,%esi
    55ae:	0f 84 8e 01 00 00    	je     5742 <exec+0x1d2>
    55b4:	89 cd                	mov    %ecx,%ebp
    55b6:	8d 8b e0 1c 05 00    	lea    0x51ce0(%ebx),%ecx
    55bc:	8d b3 60 1d 05 00    	lea    0x51d60(%ebx),%esi
    55c2:	89 4c 24 08          	mov    %ecx,0x8(%esp)
    55c6:	8d 8b 20 1d 05 00    	lea    0x51d20(%ebx),%ecx
    55cc:	89 4c 24 0c          	mov    %ecx,0xc(%esp)
    55d0:	89 e9                	mov    %ebp,%ecx
    55d2:	8b 6c 24 30          	mov    0x30(%esp),%ebp
    55d6:	88 4c 24 07          	mov    %cl,0x7(%esp)
    55da:	e9 80 00 00 00       	jmp    565f <exec+0xef>
    55df:	90                   	nop
    55e0:	e8 4b ff ff ff       	call   5530 <exec_inst>
    55e5:	83 ed 01             	sub    $0x1,%ebp
    55e8:	01 46 20             	add    %eax,0x20(%esi)
    55eb:	80 7c 24 07 00       	cmpb   $0x0,0x7(%esp)
    55f0:	89 c7                	mov    %eax,%edi
    55f2:	0f 85 a8 00 00 00    	jne    56a0 <exec+0x130>
    55f8:	8b 04 24             	mov    (%esp),%eax
    55fb:	83 38 03             	cmpl   $0x3,(%eax)
    55fe:	0f 84 ad 00 00 00    	je     56b1 <exec+0x141>
    5604:	e8 57 2c 01 00       	call   18260 <scan_watchpoint>
    5609:	85 c0                	test   %eax,%eax
    560b:	0f 85 df 00 00 00    	jne    56f0 <exec+0x180>
    5611:	80 be a0 00 00 00 00 	cmpb   $0x0,0xa0(%esi)
    5618:	74 23                	je     563d <exec+0xcd>
    561a:	f6 46 25 02          	testb  $0x2,0x25(%esi)
    561e:	74 1d                	je     563d <exec+0xcd>
    5620:	e8 cb dc ff ff       	call   32f0 <i8259_query_intr_no>
    5625:	89 c7                	mov    %eax,%edi
    5627:	e8 14 dd ff ff       	call   3340 <i8259_ack_intr>
    562c:	89 f8                	mov    %edi,%eax
    562e:	83 ec 0c             	sub    $0xc,%esp
    5631:	0f b6 f8             	movzbl %al,%edi
    5634:	57                   	push   %edi
    5635:	e8 66 67 00 00       	call   bda0 <raise_intr>
    563a:	83 c4 10             	add    $0x10,%esp
    563d:	85 ed                	test   %ebp,%ebp
    563f:	8b 04 24             	mov    (%esp),%eax
    5642:	0f 84 38 01 00 00    	je     5780 <exec+0x210>
    5648:	8b 00                	mov    (%eax),%eax
    564a:	83 f8 01             	cmp    $0x1,%eax
    564d:	0f 85 05 01 00 00    	jne    5758 <exec+0x1e8>
    5653:	0f b6 83 8d 14 05 00 	movzbl 0x5148d(%ebx),%eax
    565a:	c6 44 24 07 00       	movb   $0x0,0x7(%esp)
    565f:	84 c0                	test   %al,%al
    5661:	0f 84 79 ff ff ff    	je     55e0 <exec+0x70>
    5667:	83 ec 0c             	sub    $0xc,%esp
    566a:	ff 74 24 14          	pushl  0x14(%esp)
    566e:	e8 fd f5 ff ff       	call   4c70 <clear_operand_mem_addr>
    5673:	83 c4 10             	add    $0x10,%esp
    5676:	80 bb 8d 14 05 00 00 	cmpb   $0x0,0x5148d(%ebx)
    567d:	0f 84 5d ff ff ff    	je     55e0 <exec+0x70>
    5683:	83 ec 0c             	sub    $0xc,%esp
    5686:	ff 74 24 18          	pushl  0x18(%esp)
    568a:	e8 e1 f5 ff ff       	call   4c70 <clear_operand_mem_addr>
    568f:	83 c4 10             	add    $0x10,%esp
    5692:	e9 49 ff ff ff       	jmp    55e0 <exec+0x70>
    5697:	89 f6                	mov    %esi,%esi
    5699:	8d bc 27 00 00 00 00 	lea    0x0(%edi,%eiz,1),%edi
    56a0:	e8 ab 2a 01 00       	call   18150 <resume_breakpoints>
    56a5:	8b 04 24             	mov    (%esp),%eax
    56a8:	83 38 03             	cmpl   $0x3,(%eax)
    56ab:	0f 85 53 ff ff ff    	jne    5604 <exec+0x94>
    56b1:	8b 46 20             	mov    0x20(%esi),%eax
    56b4:	83 ec 0c             	sub    $0xc,%esp
    56b7:	83 e8 01             	sub    $0x1,%eax
    56ba:	50                   	push   %eax
    56bb:	e8 30 2a 01 00       	call   180f0 <find_breakpoint>
    56c0:	83 c4 10             	add    $0x10,%esp
    56c3:	85 c0                	test   %eax,%eax
    56c5:	0f 84 39 ff ff ff    	je     5604 <exec+0x94>
    56cb:	0f b6 10             	movzbl (%eax),%edx
    56ce:	52                   	push   %edx
    56cf:	6a 01                	push   $0x1
    56d1:	6a 01                	push   $0x1
    56d3:	ff 70 04             	pushl  0x4(%eax)
    56d6:	e8 55 4b 01 00       	call   1a230 <vaddr_write>
    56db:	83 c4 10             	add    $0x10,%esp
    56de:	83 6e 20 01          	subl   $0x1,0x20(%esi)
    56e2:	e8 79 2b 01 00       	call   18260 <scan_watchpoint>
    56e7:	85 c0                	test   %eax,%eax
    56e9:	0f 84 22 ff ff ff    	je     5611 <exec+0xa1>
    56ef:	90                   	nop
    56f0:	89 6c 24 30          	mov    %ebp,0x30(%esp)
    56f4:	ff 70 04             	pushl  0x4(%eax)
    56f7:	89 c5                	mov    %eax,%ebp
    56f9:	8b 46 20             	mov    0x20(%esi),%eax
    56fc:	29 f8                	sub    %edi,%eax
    56fe:	50                   	push   %eax
    56ff:	8b 45 00             	mov    0x0(%ebp),%eax
    5702:	c1 f8 0a             	sar    $0xa,%eax
    5705:	50                   	push   %eax
    5706:	8d 83 cc 02 ff ff    	lea    -0xfd34(%ebx),%eax
    570c:	50                   	push   %eax
    570d:	e8 ae d0 ff ff       	call   27c0 <printf@plt>
    5712:	8d 83 00 03 ff ff    	lea    -0xfd00(%ebx),%eax
    5718:	83 c4 0c             	add    $0xc,%esp
    571b:	ff 75 0c             	pushl  0xc(%ebp)
    571e:	ff 75 08             	pushl  0x8(%ebp)
    5721:	50                   	push   %eax
    5722:	e8 99 d0 ff ff       	call   27c0 <printf@plt>
    5727:	8b 45 0c             	mov    0xc(%ebp),%eax
    572a:	89 45 08             	mov    %eax,0x8(%ebp)
    572d:	8b 44 24 10          	mov    0x10(%esp),%eax
    5731:	83 c4 10             	add    $0x10,%esp
    5734:	8b 54 24 30          	mov    0x30(%esp),%edx
    5738:	c7 00 02 00 00 00    	movl   $0x2,(%eax)
    573e:	85 d2                	test   %edx,%edx
    5740:	75 09                	jne    574b <exec+0x1db>
    5742:	8b 04 24             	mov    (%esp),%eax
    5745:	c7 00 02 00 00 00    	movl   $0x2,(%eax)
    574b:	83 c4 1c             	add    $0x1c,%esp
    574e:	5b                   	pop    %ebx
    574f:	5e                   	pop    %esi
    5750:	5f                   	pop    %edi
    5751:	5d                   	pop    %ebp
    5752:	c3                   	ret    
    5753:	90                   	nop
    5754:	8d 74 26 00          	lea    0x0(%esi,%eiz,1),%esi
    5758:	85 c0                	test   %eax,%eax
    575a:	75 ef                	jne    574b <exec+0x1db>
    575c:	8d 83 25 03 ff ff    	lea    -0xfcdb(%ebx),%eax
    5762:	83 ec 0c             	sub    $0xc,%esp
    5765:	50                   	push   %eax
    5766:	e8 95 d0 ff ff       	call   2800 <puts@plt>
    576b:	83 c4 10             	add    $0x10,%esp
    576e:	83 c4 1c             	add    $0x1c,%esp
    5771:	5b                   	pop    %ebx
    5772:	5e                   	pop    %esi
    5773:	5f                   	pop    %edi
    5774:	5d                   	pop    %ebp
    5775:	c3                   	ret    
    5776:	8d 76 00             	lea    0x0(%esi),%esi
    5779:	8d bc 27 00 00 00 00 	lea    0x0(%edi,%eiz,1),%edi
    5780:	8b 00                	mov    (%eax),%eax
    5782:	85 c0                	test   %eax,%eax
    5784:	75 bc                	jne    5742 <exec+0x1d2>
    5786:	eb d4                	jmp    575c <exec+0x1ec>
    5788:	66 90                	xchg   %ax,%ax
    578a:	66 90                	xchg   %ax,%ax
    578c:	66 90                	xchg   %ax,%ax
    578e:	66 90                	xchg   %ax,%ax

00005790 <alu_test_add>:
    5790:	55                   	push   %ebp
    5791:	57                   	push   %edi
    5792:	56                   	push   %esi
    5793:	53                   	push   %ebx
    5794:	e8 21 3a 00 00       	call   91ba <__x86.get_pc_thunk.bp>
    5799:	81 c5 67 58 02 00    	add    $0x25867,%ebp
    579f:	83 ec 4c             	sub    $0x4c,%esp
    57a2:	8d 7c 24 40          	lea    0x40(%esp),%edi
    57a6:	8d 44 24 28          	lea    0x28(%esp),%eax
    57aa:	c7 44 24 24 00 00 00 	movl   $0x10000000,0x24(%esp)
    57b1:	10 
    57b2:	c7 44 24 28 fd ff ff 	movl   $0xfffffffd,0x28(%esp)
    57b9:	ff 
    57ba:	c7 44 24 2c fe ff ff 	movl   $0xfffffffe,0x2c(%esp)
    57c1:	ff 
    57c2:	89 7c 24 14          	mov    %edi,0x14(%esp)
    57c6:	8d bd 60 1d 05 00    	lea    0x51d60(%ebp),%edi
    57cc:	c7 44 24 30 ff ff ff 	movl   $0xffffffff,0x30(%esp)
    57d3:	ff 
    57d4:	c7 44 24 34 00 00 00 	movl   $0x0,0x34(%esp)
    57db:	00 
    57dc:	c7 44 24 38 01 00 00 	movl   $0x1,0x38(%esp)
    57e3:	00 
    57e4:	c7 44 24 3c 02 00 00 	movl   $0x2,0x3c(%esp)
    57eb:	00 
    57ec:	89 44 24 1c          	mov    %eax,0x1c(%esp)
    57f0:	89 44 24 18          	mov    %eax,0x18(%esp)
    57f4:	c7 44 24 0c 00 00 00 	movl   $0x10000000,0xc(%esp)
    57fb:	10 
    57fc:	8d 74 26 00          	lea    0x0(%esi,%eiz,1),%esi
    5800:	8b 74 24 1c          	mov    0x1c(%esp),%esi
    5804:	b9 00 00 00 10       	mov    $0x10000000,%ecx
    5809:	eb 0a                	jmp    5815 <alu_test_add+0x85>
    580b:	90                   	nop
    580c:	8d 74 26 00          	lea    0x0(%esi,%eiz,1),%esi
    5810:	8b 0e                	mov    (%esi),%ecx
    5812:	83 c6 04             	add    $0x4,%esi
    5815:	83 ec 08             	sub    $0x8,%esp
    5818:	89 eb                	mov    %ebp,%ebx
    581a:	ff 74 24 14          	pushl  0x14(%esp)
    581e:	51                   	push   %ecx
    581f:	89 4c 24 20          	mov    %ecx,0x20(%esp)
    5823:	e8 68 58 00 00       	call   b090 <alu_add>
    5828:	89 c3                	mov    %eax,%ebx
    582a:	8b 4c 24 20          	mov    0x20(%esp),%ecx
    582e:	8b 44 24 1c          	mov    0x1c(%esp),%eax
    5832:	83 c4 10             	add    $0x10,%esp
    5835:	01 c8                	add    %ecx,%eax
    5837:	9c                   	pushf  
    5838:	5a                   	pop    %edx
    5839:	39 c3                	cmp    %eax,%ebx
    583b:	0f 85 70 02 00 00    	jne    5ab1 <alu_test_add+0x321>
    5841:	0f b6 47 24          	movzbl 0x24(%edi),%eax
    5845:	89 d1                	mov    %edx,%ecx
    5847:	83 e1 01             	and    $0x1,%ecx
    584a:	89 c3                	mov    %eax,%ebx
    584c:	83 e3 01             	and    $0x1,%ebx
    584f:	38 cb                	cmp    %cl,%bl
    5851:	0f 85 4f 02 00 00    	jne    5aa6 <alu_test_add+0x316>
    5857:	89 c3                	mov    %eax,%ebx
    5859:	89 d1                	mov    %edx,%ecx
    585b:	c0 eb 02             	shr    $0x2,%bl
    585e:	c1 e9 02             	shr    $0x2,%ecx
    5861:	83 e3 01             	and    $0x1,%ebx
    5864:	83 e1 01             	and    $0x1,%ecx
    5867:	38 cb                	cmp    %cl,%bl
    5869:	0f 85 2c 02 00 00    	jne    5a9b <alu_test_add+0x30b>
    586f:	89 d1                	mov    %edx,%ecx
    5871:	89 c3                	mov    %eax,%ebx
    5873:	c1 e9 07             	shr    $0x7,%ecx
    5876:	c0 eb 07             	shr    $0x7,%bl
    5879:	83 e1 01             	and    $0x1,%ecx
    587c:	38 cb                	cmp    %cl,%bl
    587e:	0f 85 0c 02 00 00    	jne    5a90 <alu_test_add+0x300>
    5884:	89 d1                	mov    %edx,%ecx
    5886:	c0 e8 06             	shr    $0x6,%al
    5889:	c1 e9 06             	shr    $0x6,%ecx
    588c:	83 e0 01             	and    $0x1,%eax
    588f:	83 e1 01             	and    $0x1,%ecx
    5892:	38 c8                	cmp    %cl,%al
    5894:	0f 85 e8 01 00 00    	jne    5a82 <alu_test_add+0x2f2>
    589a:	0f b6 47 25          	movzbl 0x25(%edi),%eax
    589e:	c1 ea 0b             	shr    $0xb,%edx
    58a1:	83 e2 01             	and    $0x1,%edx
    58a4:	c0 e8 03             	shr    $0x3,%al
    58a7:	83 e0 01             	and    $0x1,%eax
    58aa:	38 d0                	cmp    %dl,%al
    58ac:	0f 85 c2 01 00 00    	jne    5a74 <alu_test_add+0x2e4>
    58b2:	3b 74 24 14          	cmp    0x14(%esp),%esi
    58b6:	0f 85 54 ff ff ff    	jne    5810 <alu_test_add+0x80>
    58bc:	8b 44 24 18          	mov    0x18(%esp),%eax
    58c0:	39 44 24 14          	cmp    %eax,0x14(%esp)
    58c4:	74 1a                	je     58e0 <alu_test_add+0x150>
    58c6:	8b 30                	mov    (%eax),%esi
    58c8:	83 c0 04             	add    $0x4,%eax
    58cb:	89 44 24 18          	mov    %eax,0x18(%esp)
    58cf:	89 74 24 0c          	mov    %esi,0xc(%esp)
    58d3:	e9 28 ff ff ff       	jmp    5800 <alu_test_add+0x70>
    58d8:	90                   	nop
    58d9:	8d b4 26 00 00 00 00 	lea    0x0(%esi,%eiz,1),%esi
    58e0:	83 ec 0c             	sub    $0xc,%esp
    58e3:	89 eb                	mov    %ebp,%ebx
    58e5:	6a 00                	push   $0x0
    58e7:	e8 84 cd ff ff       	call   2670 <time@plt>
    58ec:	89 04 24             	mov    %eax,(%esp)
    58ef:	e8 fc cd ff ff       	call   26f0 <srand@plt>
    58f4:	83 c4 10             	add    $0x10,%esp
    58f7:	c7 44 24 10 40 42 0f 	movl   $0xf4240,0x10(%esp)
    58fe:	00 
    58ff:	90                   	nop
    5900:	89 eb                	mov    %ebp,%ebx
    5902:	e8 49 ce ff ff       	call   2750 <rand@plt>
    5907:	89 c6                	mov    %eax,%esi
    5909:	e8 42 ce ff ff       	call   2750 <rand@plt>
    590e:	83 ec 08             	sub    $0x8,%esp
    5911:	56                   	push   %esi
    5912:	50                   	push   %eax
    5913:	89 44 24 1c          	mov    %eax,0x1c(%esp)
    5917:	e8 74 57 00 00       	call   b090 <alu_add>
    591c:	89 c3                	mov    %eax,%ebx
    591e:	8b 4c 24 1c          	mov    0x1c(%esp),%ecx
    5922:	89 f0                	mov    %esi,%eax
    5924:	83 c4 10             	add    $0x10,%esp
    5927:	01 c8                	add    %ecx,%eax
    5929:	9c                   	pushf  
    592a:	5a                   	pop    %edx
    592b:	39 c3                	cmp    %eax,%ebx
    592d:	0f 85 8d 00 00 00    	jne    59c0 <alu_test_add+0x230>
    5933:	0f b6 47 24          	movzbl 0x24(%edi),%eax
    5937:	89 d1                	mov    %edx,%ecx
    5939:	83 e1 01             	and    $0x1,%ecx
    593c:	89 c3                	mov    %eax,%ebx
    593e:	83 e3 01             	and    $0x1,%ebx
    5941:	38 cb                	cmp    %cl,%bl
    5943:	0f 85 0d 01 00 00    	jne    5a56 <alu_test_add+0x2c6>
    5949:	89 c3                	mov    %eax,%ebx
    594b:	89 d1                	mov    %edx,%ecx
    594d:	c0 eb 02             	shr    $0x2,%bl
    5950:	c1 e9 02             	shr    $0x2,%ecx
    5953:	83 e3 01             	and    $0x1,%ebx
    5956:	83 e1 01             	and    $0x1,%ecx
    5959:	38 cb                	cmp    %cl,%bl
    595b:	0f 85 d7 00 00 00    	jne    5a38 <alu_test_add+0x2a8>
    5961:	89 d1                	mov    %edx,%ecx
    5963:	89 c3                	mov    %eax,%ebx
    5965:	c1 e9 07             	shr    $0x7,%ecx
    5968:	c0 eb 07             	shr    $0x7,%bl
    596b:	83 e1 01             	and    $0x1,%ecx
    596e:	38 cb                	cmp    %cl,%bl
    5970:	0f 85 a4 00 00 00    	jne    5a1a <alu_test_add+0x28a>
    5976:	89 d1                	mov    %edx,%ecx
    5978:	c0 e8 06             	shr    $0x6,%al
    597b:	c1 e9 06             	shr    $0x6,%ecx
    597e:	83 e0 01             	and    $0x1,%eax
    5981:	83 e1 01             	and    $0x1,%ecx
    5984:	38 c8                	cmp    %cl,%al
    5986:	75 74                	jne    59fc <alu_test_add+0x26c>
    5988:	0f b6 47 25          	movzbl 0x25(%edi),%eax
    598c:	c1 ea 0b             	shr    $0xb,%edx
    598f:	83 e2 01             	and    $0x1,%edx
    5992:	c0 e8 03             	shr    $0x3,%al
    5995:	83 e0 01             	and    $0x1,%eax
    5998:	38 d0                	cmp    %dl,%al
    599a:	75 42                	jne    59de <alu_test_add+0x24e>
    599c:	83 6c 24 10 01       	subl   $0x1,0x10(%esp)
    59a1:	0f 85 59 ff ff ff    	jne    5900 <alu_test_add+0x170>
    59a7:	8d 85 38 04 ff ff    	lea    -0xfbc8(%ebp),%eax
    59ad:	83 ec 0c             	sub    $0xc,%esp
    59b0:	89 eb                	mov    %ebp,%ebx
    59b2:	50                   	push   %eax
    59b3:	e8 48 ce ff ff       	call   2800 <puts@plt>
    59b8:	83 c4 5c             	add    $0x5c,%esp
    59bb:	5b                   	pop    %ebx
    59bc:	5e                   	pop    %esi
    59bd:	5f                   	pop    %edi
    59be:	5d                   	pop    %ebp
    59bf:	c3                   	ret    
    59c0:	8d 85 44 08 ff ff    	lea    -0xf7bc(%ebp),%eax
    59c6:	50                   	push   %eax
    59c7:	6a 50                	push   $0x50
    59c9:	8d 85 36 03 ff ff    	lea    -0xfcca(%ebp),%eax
    59cf:	89 eb                	mov    %ebp,%ebx
    59d1:	50                   	push   %eax
    59d2:	8d 85 4e 03 ff ff    	lea    -0xfcb2(%ebp),%eax
    59d8:	50                   	push   %eax
    59d9:	e8 b2 ce ff ff       	call   2890 <__assert_fail@plt>
    59de:	8d 85 44 08 ff ff    	lea    -0xf7bc(%ebp),%eax
    59e4:	50                   	push   %eax
    59e5:	6a 55                	push   $0x55
    59e7:	8d 85 36 03 ff ff    	lea    -0xfcca(%ebp),%eax
    59ed:	89 eb                	mov    %ebp,%ebx
    59ef:	50                   	push   %eax
    59f0:	8d 85 18 04 ff ff    	lea    -0xfbe8(%ebp),%eax
    59f6:	50                   	push   %eax
    59f7:	e8 94 ce ff ff       	call   2890 <__assert_fail@plt>
    59fc:	8d 85 44 08 ff ff    	lea    -0xf7bc(%ebp),%eax
    5a02:	50                   	push   %eax
    5a03:	6a 54                	push   $0x54
    5a05:	8d 85 36 03 ff ff    	lea    -0xfcca(%ebp),%eax
    5a0b:	89 eb                	mov    %ebp,%ebx
    5a0d:	50                   	push   %eax
    5a0e:	8d 85 f8 03 ff ff    	lea    -0xfc08(%ebp),%eax
    5a14:	50                   	push   %eax
    5a15:	e8 76 ce ff ff       	call   2890 <__assert_fail@plt>
    5a1a:	8d 85 44 08 ff ff    	lea    -0xf7bc(%ebp),%eax
    5a20:	50                   	push   %eax
    5a21:	6a 53                	push   $0x53
    5a23:	8d 85 36 03 ff ff    	lea    -0xfcca(%ebp),%eax
    5a29:	89 eb                	mov    %ebp,%ebx
    5a2b:	50                   	push   %eax
    5a2c:	8d 85 d8 03 ff ff    	lea    -0xfc28(%ebp),%eax
    5a32:	50                   	push   %eax
    5a33:	e8 58 ce ff ff       	call   2890 <__assert_fail@plt>
    5a38:	8d 85 44 08 ff ff    	lea    -0xf7bc(%ebp),%eax
    5a3e:	50                   	push   %eax
    5a3f:	6a 52                	push   $0x52
    5a41:	8d 85 36 03 ff ff    	lea    -0xfcca(%ebp),%eax
    5a47:	89 eb                	mov    %ebp,%ebx
    5a49:	50                   	push   %eax
    5a4a:	8d 85 b8 03 ff ff    	lea    -0xfc48(%ebp),%eax
    5a50:	50                   	push   %eax
    5a51:	e8 3a ce ff ff       	call   2890 <__assert_fail@plt>
    5a56:	8d 85 44 08 ff ff    	lea    -0xf7bc(%ebp),%eax
    5a5c:	50                   	push   %eax
    5a5d:	6a 51                	push   $0x51
    5a5f:	8d 85 36 03 ff ff    	lea    -0xfcca(%ebp),%eax
    5a65:	89 eb                	mov    %ebp,%ebx
    5a67:	50                   	push   %eax
    5a68:	8d 85 98 03 ff ff    	lea    -0xfc68(%ebp),%eax
    5a6e:	50                   	push   %eax
    5a6f:	e8 1c ce ff ff       	call   2890 <__assert_fail@plt>
    5a74:	8d 85 44 08 ff ff    	lea    -0xf7bc(%ebp),%eax
    5a7a:	50                   	push   %eax
    5a7b:	6a 40                	push   $0x40
    5a7d:	e9 65 ff ff ff       	jmp    59e7 <alu_test_add+0x257>
    5a82:	8d 85 44 08 ff ff    	lea    -0xf7bc(%ebp),%eax
    5a88:	50                   	push   %eax
    5a89:	6a 3f                	push   $0x3f
    5a8b:	e9 75 ff ff ff       	jmp    5a05 <alu_test_add+0x275>
    5a90:	8d 85 44 08 ff ff    	lea    -0xf7bc(%ebp),%eax
    5a96:	50                   	push   %eax
    5a97:	6a 3e                	push   $0x3e
    5a99:	eb 88                	jmp    5a23 <alu_test_add+0x293>
    5a9b:	8d 85 44 08 ff ff    	lea    -0xf7bc(%ebp),%eax
    5aa1:	50                   	push   %eax
    5aa2:	6a 3d                	push   $0x3d
    5aa4:	eb 9b                	jmp    5a41 <alu_test_add+0x2b1>
    5aa6:	8d 85 44 08 ff ff    	lea    -0xf7bc(%ebp),%eax
    5aac:	50                   	push   %eax
    5aad:	6a 3c                	push   $0x3c
    5aaf:	eb ae                	jmp    5a5f <alu_test_add+0x2cf>
    5ab1:	8d 85 44 08 ff ff    	lea    -0xf7bc(%ebp),%eax
    5ab7:	50                   	push   %eax
    5ab8:	6a 3b                	push   $0x3b
    5aba:	e9 0a ff ff ff       	jmp    59c9 <alu_test_add+0x239>
    5abf:	90                   	nop

00005ac0 <alu_test_adc>:
    5ac0:	55                   	push   %ebp
    5ac1:	57                   	push   %edi
    5ac2:	56                   	push   %esi
    5ac3:	53                   	push   %ebx
    5ac4:	e8 f1 36 00 00       	call   91ba <__x86.get_pc_thunk.bp>
    5ac9:	81 c5 37 55 02 00    	add    $0x25537,%ebp
    5acf:	83 ec 4c             	sub    $0x4c,%esp
    5ad2:	8d 7c 24 40          	lea    0x40(%esp),%edi
    5ad6:	8d 44 24 28          	lea    0x28(%esp),%eax
    5ada:	c7 44 24 24 00 00 00 	movl   $0x10000000,0x24(%esp)
    5ae1:	10 
    5ae2:	c7 44 24 28 fd ff ff 	movl   $0xfffffffd,0x28(%esp)
    5ae9:	ff 
    5aea:	c7 44 24 2c fe ff ff 	movl   $0xfffffffe,0x2c(%esp)
    5af1:	ff 
    5af2:	89 7c 24 18          	mov    %edi,0x18(%esp)
    5af6:	8d bd 60 1d 05 00    	lea    0x51d60(%ebp),%edi
    5afc:	c7 44 24 30 ff ff ff 	movl   $0xffffffff,0x30(%esp)
    5b03:	ff 
    5b04:	c7 44 24 34 00 00 00 	movl   $0x0,0x34(%esp)
    5b0b:	00 
    5b0c:	c7 44 24 38 01 00 00 	movl   $0x1,0x38(%esp)
    5b13:	00 
    5b14:	c7 44 24 3c 02 00 00 	movl   $0x2,0x3c(%esp)
    5b1b:	00 
    5b1c:	89 44 24 1c          	mov    %eax,0x1c(%esp)
    5b20:	89 44 24 14          	mov    %eax,0x14(%esp)
    5b24:	c7 44 24 0c 00 00 00 	movl   $0x10000000,0xc(%esp)
    5b2b:	10 
    5b2c:	8d 74 26 00          	lea    0x0(%esi,%eiz,1),%esi
    5b30:	8b 74 24 1c          	mov    0x1c(%esp),%esi
    5b34:	b9 00 00 00 10       	mov    $0x10000000,%ecx
    5b39:	eb 0a                	jmp    5b45 <alu_test_adc+0x85>
    5b3b:	90                   	nop
    5b3c:	8d 74 26 00          	lea    0x0(%esi,%eiz,1),%esi
    5b40:	8b 0e                	mov    (%esi),%ecx
    5b42:	83 c6 04             	add    $0x4,%esi
    5b45:	83 ec 08             	sub    $0x8,%esp
    5b48:	80 67 24 fe          	andb   $0xfe,0x24(%edi)
    5b4c:	89 eb                	mov    %ebp,%ebx
    5b4e:	ff 74 24 14          	pushl  0x14(%esp)
    5b52:	51                   	push   %ecx
    5b53:	89 4c 24 20          	mov    %ecx,0x20(%esp)
    5b57:	e8 e4 55 00 00       	call   b140 <alu_adc>
    5b5c:	89 c3                	mov    %eax,%ebx
    5b5e:	8b 4c 24 20          	mov    0x20(%esp),%ecx
    5b62:	8b 44 24 1c          	mov    0x1c(%esp),%eax
    5b66:	83 c4 10             	add    $0x10,%esp
    5b69:	f8                   	clc    
    5b6a:	11 c8                	adc    %ecx,%eax
    5b6c:	9c                   	pushf  
    5b6d:	5a                   	pop    %edx
    5b6e:	39 c3                	cmp    %eax,%ebx
    5b70:	0f 85 6d 04 00 00    	jne    5fe3 <alu_test_adc+0x523>
    5b76:	0f b6 47 24          	movzbl 0x24(%edi),%eax
    5b7a:	89 d1                	mov    %edx,%ecx
    5b7c:	83 e1 01             	and    $0x1,%ecx
    5b7f:	89 c3                	mov    %eax,%ebx
    5b81:	83 e3 01             	and    $0x1,%ebx
    5b84:	38 cb                	cmp    %cl,%bl
    5b86:	0f 85 49 04 00 00    	jne    5fd5 <alu_test_adc+0x515>
    5b8c:	89 c3                	mov    %eax,%ebx
    5b8e:	89 d1                	mov    %edx,%ecx
    5b90:	c0 eb 02             	shr    $0x2,%bl
    5b93:	c1 e9 02             	shr    $0x2,%ecx
    5b96:	83 e3 01             	and    $0x1,%ebx
    5b99:	83 e1 01             	and    $0x1,%ecx
    5b9c:	38 cb                	cmp    %cl,%bl
    5b9e:	0f 85 23 04 00 00    	jne    5fc7 <alu_test_adc+0x507>
    5ba4:	89 d1                	mov    %edx,%ecx
    5ba6:	89 c3                	mov    %eax,%ebx
    5ba8:	c1 e9 07             	shr    $0x7,%ecx
    5bab:	c0 eb 07             	shr    $0x7,%bl
    5bae:	83 e1 01             	and    $0x1,%ecx
    5bb1:	38 cb                	cmp    %cl,%bl
    5bb3:	0f 85 00 04 00 00    	jne    5fb9 <alu_test_adc+0x4f9>
    5bb9:	89 d1                	mov    %edx,%ecx
    5bbb:	c0 e8 06             	shr    $0x6,%al
    5bbe:	c1 e9 06             	shr    $0x6,%ecx
    5bc1:	83 e0 01             	and    $0x1,%eax
    5bc4:	83 e1 01             	and    $0x1,%ecx
    5bc7:	38 c8                	cmp    %cl,%al
    5bc9:	0f 85 dc 03 00 00    	jne    5fab <alu_test_adc+0x4eb>
    5bcf:	0f b6 47 25          	movzbl 0x25(%edi),%eax
    5bd3:	c1 ea 0b             	shr    $0xb,%edx
    5bd6:	83 e2 01             	and    $0x1,%edx
    5bd9:	c0 e8 03             	shr    $0x3,%al
    5bdc:	83 e0 01             	and    $0x1,%eax
    5bdf:	38 d0                	cmp    %dl,%al
    5be1:	0f 85 b6 03 00 00    	jne    5f9d <alu_test_adc+0x4dd>
    5be7:	3b 74 24 18          	cmp    0x18(%esp),%esi
    5beb:	0f 85 4f ff ff ff    	jne    5b40 <alu_test_adc+0x80>
    5bf1:	8b 44 24 14          	mov    0x14(%esp),%eax
    5bf5:	39 44 24 18          	cmp    %eax,0x18(%esp)
    5bf9:	74 15                	je     5c10 <alu_test_adc+0x150>
    5bfb:	8b 30                	mov    (%eax),%esi
    5bfd:	83 c0 04             	add    $0x4,%eax
    5c00:	89 44 24 14          	mov    %eax,0x14(%esp)
    5c04:	89 74 24 0c          	mov    %esi,0xc(%esp)
    5c08:	e9 23 ff ff ff       	jmp    5b30 <alu_test_adc+0x70>
    5c0d:	8d 76 00             	lea    0x0(%esi),%esi
    5c10:	8b 44 24 1c          	mov    0x1c(%esp),%eax
    5c14:	c7 44 24 0c 00 00 00 	movl   $0x10000000,0xc(%esp)
    5c1b:	10 
    5c1c:	89 44 24 18          	mov    %eax,0x18(%esp)
    5c20:	8b 74 24 1c          	mov    0x1c(%esp),%esi
    5c24:	b9 00 00 00 10       	mov    $0x10000000,%ecx
    5c29:	eb 0a                	jmp    5c35 <alu_test_adc+0x175>
    5c2b:	90                   	nop
    5c2c:	8d 74 26 00          	lea    0x0(%esi,%eiz,1),%esi
    5c30:	8b 0e                	mov    (%esi),%ecx
    5c32:	83 c6 04             	add    $0x4,%esi
    5c35:	83 ec 08             	sub    $0x8,%esp
    5c38:	80 4f 24 01          	orb    $0x1,0x24(%edi)
    5c3c:	89 eb                	mov    %ebp,%ebx
    5c3e:	ff 74 24 14          	pushl  0x14(%esp)
    5c42:	51                   	push   %ecx
    5c43:	89 4c 24 20          	mov    %ecx,0x20(%esp)
    5c47:	e8 f4 54 00 00       	call   b140 <alu_adc>
    5c4c:	89 c3                	mov    %eax,%ebx
    5c4e:	8b 4c 24 20          	mov    0x20(%esp),%ecx
    5c52:	8b 44 24 1c          	mov    0x1c(%esp),%eax
    5c56:	83 c4 10             	add    $0x10,%esp
    5c59:	f9                   	stc    
    5c5a:	11 c8                	adc    %ecx,%eax
    5c5c:	9c                   	pushf  
    5c5d:	5a                   	pop    %edx
    5c5e:	39 c3                	cmp    %eax,%ebx
    5c60:	0f 85 be 03 00 00    	jne    6024 <alu_test_adc+0x564>
    5c66:	0f b6 47 24          	movzbl 0x24(%edi),%eax
    5c6a:	89 d1                	mov    %edx,%ecx
    5c6c:	83 e1 01             	and    $0x1,%ecx
    5c6f:	89 c3                	mov    %eax,%ebx
    5c71:	83 e3 01             	and    $0x1,%ebx
    5c74:	38 cb                	cmp    %cl,%bl
    5c76:	0f 85 fd 03 00 00    	jne    6079 <alu_test_adc+0x5b9>
    5c7c:	89 c3                	mov    %eax,%ebx
    5c7e:	89 d1                	mov    %edx,%ecx
    5c80:	c0 eb 02             	shr    $0x2,%bl
    5c83:	c1 e9 02             	shr    $0x2,%ecx
    5c86:	83 e3 01             	and    $0x1,%ebx
    5c89:	83 e1 01             	and    $0x1,%ecx
    5c8c:	38 cb                	cmp    %cl,%bl
    5c8e:	0f 85 d4 03 00 00    	jne    6068 <alu_test_adc+0x5a8>
    5c94:	89 d1                	mov    %edx,%ecx
    5c96:	89 c3                	mov    %eax,%ebx
    5c98:	c1 e9 07             	shr    $0x7,%ecx
    5c9b:	c0 eb 07             	shr    $0x7,%bl
    5c9e:	83 e1 01             	and    $0x1,%ecx
    5ca1:	38 cb                	cmp    %cl,%bl
    5ca3:	0f 85 ae 03 00 00    	jne    6057 <alu_test_adc+0x597>
    5ca9:	89 d1                	mov    %edx,%ecx
    5cab:	c0 e8 06             	shr    $0x6,%al
    5cae:	c1 e9 06             	shr    $0x6,%ecx
    5cb1:	83 e0 01             	and    $0x1,%eax
    5cb4:	83 e1 01             	and    $0x1,%ecx
    5cb7:	38 c8                	cmp    %cl,%al
    5cb9:	0f 85 87 03 00 00    	jne    6046 <alu_test_adc+0x586>
    5cbf:	0f b6 47 25          	movzbl 0x25(%edi),%eax
    5cc3:	c1 ea 0b             	shr    $0xb,%edx
    5cc6:	83 e2 01             	and    $0x1,%edx
    5cc9:	c0 e8 03             	shr    $0x3,%al
    5ccc:	83 e0 01             	and    $0x1,%eax
    5ccf:	38 d0                	cmp    %dl,%al
    5cd1:	0f 85 5e 03 00 00    	jne    6035 <alu_test_adc+0x575>
    5cd7:	3b 74 24 14          	cmp    0x14(%esp),%esi
    5cdb:	0f 85 4f ff ff ff    	jne    5c30 <alu_test_adc+0x170>
    5ce1:	8b 44 24 18          	mov    0x18(%esp),%eax
    5ce5:	8b 74 24 14          	mov    0x14(%esp),%esi
    5ce9:	39 f0                	cmp    %esi,%eax
    5ceb:	74 13                	je     5d00 <alu_test_adc+0x240>
    5ced:	8b 30                	mov    (%eax),%esi
    5cef:	83 c0 04             	add    $0x4,%eax
    5cf2:	89 44 24 18          	mov    %eax,0x18(%esp)
    5cf6:	89 74 24 0c          	mov    %esi,0xc(%esp)
    5cfa:	e9 21 ff ff ff       	jmp    5c20 <alu_test_adc+0x160>
    5cff:	90                   	nop
    5d00:	83 ec 0c             	sub    $0xc,%esp
    5d03:	89 eb                	mov    %ebp,%ebx
    5d05:	6a 00                	push   $0x0
    5d07:	e8 64 c9 ff ff       	call   2670 <time@plt>
    5d0c:	89 04 24             	mov    %eax,(%esp)
    5d0f:	e8 dc c9 ff ff       	call   26f0 <srand@plt>
    5d14:	83 c4 10             	add    $0x10,%esp
    5d17:	c7 44 24 10 40 42 0f 	movl   $0xf4240,0x10(%esp)
    5d1e:	00 
    5d1f:	90                   	nop
    5d20:	89 eb                	mov    %ebp,%ebx
    5d22:	e8 29 ca ff ff       	call   2750 <rand@plt>
    5d27:	89 c6                	mov    %eax,%esi
    5d29:	e8 22 ca ff ff       	call   2750 <rand@plt>
    5d2e:	83 ec 08             	sub    $0x8,%esp
    5d31:	80 67 24 fe          	andb   $0xfe,0x24(%edi)
    5d35:	56                   	push   %esi
    5d36:	50                   	push   %eax
    5d37:	89 44 24 1c          	mov    %eax,0x1c(%esp)
    5d3b:	e8 00 54 00 00       	call   b140 <alu_adc>
    5d40:	89 c3                	mov    %eax,%ebx
    5d42:	8b 4c 24 1c          	mov    0x1c(%esp),%ecx
    5d46:	89 f0                	mov    %esi,%eax
    5d48:	83 c4 10             	add    $0x10,%esp
    5d4b:	f8                   	clc    
    5d4c:	11 c8                	adc    %ecx,%eax
    5d4e:	9c                   	pushf  
    5d4f:	5a                   	pop    %edx
    5d50:	39 c3                	cmp    %eax,%ebx
    5d52:	0f 85 55 01 00 00    	jne    5ead <alu_test_adc+0x3ed>
    5d58:	0f b6 47 24          	movzbl 0x24(%edi),%eax
    5d5c:	89 d1                	mov    %edx,%ecx
    5d5e:	83 e1 01             	and    $0x1,%ecx
    5d61:	89 c3                	mov    %eax,%ebx
    5d63:	83 e3 01             	and    $0x1,%ebx
    5d66:	38 cb                	cmp    %cl,%bl
    5d68:	0f 85 e4 01 00 00    	jne    5f52 <alu_test_adc+0x492>
    5d6e:	89 c3                	mov    %eax,%ebx
    5d70:	89 d1                	mov    %edx,%ecx
    5d72:	c0 eb 02             	shr    $0x2,%bl
    5d75:	c1 e9 02             	shr    $0x2,%ecx
    5d78:	83 e3 01             	and    $0x1,%ebx
    5d7b:	83 e1 01             	and    $0x1,%ecx
    5d7e:	38 cb                	cmp    %cl,%bl
    5d80:	0f 85 ab 01 00 00    	jne    5f31 <alu_test_adc+0x471>
    5d86:	89 d1                	mov    %edx,%ecx
    5d88:	89 c3                	mov    %eax,%ebx
    5d8a:	c1 e9 07             	shr    $0x7,%ecx
    5d8d:	c0 eb 07             	shr    $0x7,%bl
    5d90:	83 e1 01             	and    $0x1,%ecx
    5d93:	38 cb                	cmp    %cl,%bl
    5d95:	0f 85 75 01 00 00    	jne    5f10 <alu_test_adc+0x450>
    5d9b:	89 d1                	mov    %edx,%ecx
    5d9d:	c0 e8 06             	shr    $0x6,%al
    5da0:	c1 e9 06             	shr    $0x6,%ecx
    5da3:	83 e0 01             	and    $0x1,%eax
    5da6:	83 e1 01             	and    $0x1,%ecx
    5da9:	38 c8                	cmp    %cl,%al
    5dab:	0f 85 3e 01 00 00    	jne    5eef <alu_test_adc+0x42f>
    5db1:	0f b6 47 25          	movzbl 0x25(%edi),%eax
    5db5:	c1 ea 0b             	shr    $0xb,%edx
    5db8:	83 e2 01             	and    $0x1,%edx
    5dbb:	c0 e8 03             	shr    $0x3,%al
    5dbe:	83 e0 01             	and    $0x1,%eax
    5dc1:	38 d0                	cmp    %dl,%al
    5dc3:	0f 85 05 01 00 00    	jne    5ece <alu_test_adc+0x40e>
    5dc9:	83 6c 24 10 01       	subl   $0x1,0x10(%esp)
    5dce:	0f 85 4c ff ff ff    	jne    5d20 <alu_test_adc+0x260>
    5dd4:	c7 44 24 10 40 42 0f 	movl   $0xf4240,0x10(%esp)
    5ddb:	00 
    5ddc:	8d 74 26 00          	lea    0x0(%esi,%eiz,1),%esi
    5de0:	89 eb                	mov    %ebp,%ebx
    5de2:	e8 69 c9 ff ff       	call   2750 <rand@plt>
    5de7:	89 c6                	mov    %eax,%esi
    5de9:	e8 62 c9 ff ff       	call   2750 <rand@plt>
    5dee:	83 ec 08             	sub    $0x8,%esp
    5df1:	80 4f 24 01          	orb    $0x1,0x24(%edi)
    5df5:	56                   	push   %esi
    5df6:	50                   	push   %eax
    5df7:	89 44 24 1c          	mov    %eax,0x1c(%esp)
    5dfb:	e8 40 53 00 00       	call   b140 <alu_adc>
    5e00:	89 c3                	mov    %eax,%ebx
    5e02:	8b 4c 24 1c          	mov    0x1c(%esp),%ecx
    5e06:	89 f0                	mov    %esi,%eax
    5e08:	83 c4 10             	add    $0x10,%esp
    5e0b:	f9                   	stc    
    5e0c:	11 c8                	adc    %ecx,%eax
    5e0e:	9c                   	pushf  
    5e0f:	5a                   	pop    %edx
    5e10:	39 c3                	cmp    %eax,%ebx
    5e12:	0f 85 fb 01 00 00    	jne    6013 <alu_test_adc+0x553>
    5e18:	0f b6 47 24          	movzbl 0x24(%edi),%eax
    5e1c:	89 d1                	mov    %edx,%ecx
    5e1e:	83 e1 01             	and    $0x1,%ecx
    5e21:	89 c3                	mov    %eax,%ebx
    5e23:	83 e3 01             	and    $0x1,%ebx
    5e26:	38 cb                	cmp    %cl,%bl
    5e28:	0f 85 45 01 00 00    	jne    5f73 <alu_test_adc+0x4b3>
    5e2e:	89 c3                	mov    %eax,%ebx
    5e30:	89 d1                	mov    %edx,%ecx
    5e32:	c0 eb 02             	shr    $0x2,%bl
    5e35:	c1 e9 02             	shr    $0x2,%ecx
    5e38:	83 e3 01             	and    $0x1,%ebx
    5e3b:	83 e1 01             	and    $0x1,%ecx
    5e3e:	38 cb                	cmp    %cl,%bl
    5e40:	0f 85 49 01 00 00    	jne    5f8f <alu_test_adc+0x4cf>
    5e46:	89 d1                	mov    %edx,%ecx
    5e48:	89 c3                	mov    %eax,%ebx
    5e4a:	c1 e9 07             	shr    $0x7,%ecx
    5e4d:	c0 eb 07             	shr    $0x7,%bl
    5e50:	83 e1 01             	and    $0x1,%ecx
    5e53:	38 cb                	cmp    %cl,%bl
    5e55:	0f 85 26 01 00 00    	jne    5f81 <alu_test_adc+0x4c1>
    5e5b:	89 d1                	mov    %edx,%ecx
    5e5d:	c0 e8 06             	shr    $0x6,%al
    5e60:	c1 e9 06             	shr    $0x6,%ecx
    5e63:	83 e0 01             	and    $0x1,%eax
    5e66:	83 e1 01             	and    $0x1,%ecx
    5e69:	38 c8                	cmp    %cl,%al
    5e6b:	0f 85 91 01 00 00    	jne    6002 <alu_test_adc+0x542>
    5e71:	0f b6 47 25          	movzbl 0x25(%edi),%eax
    5e75:	c1 ea 0b             	shr    $0xb,%edx
    5e78:	83 e2 01             	and    $0x1,%edx
    5e7b:	c0 e8 03             	shr    $0x3,%al
    5e7e:	83 e0 01             	and    $0x1,%eax
    5e81:	38 d0                	cmp    %dl,%al
    5e83:	0f 85 68 01 00 00    	jne    5ff1 <alu_test_adc+0x531>
    5e89:	83 6c 24 10 01       	subl   $0x1,0x10(%esp)
    5e8e:	0f 85 4c ff ff ff    	jne    5de0 <alu_test_adc+0x320>
    5e94:	8d 85 58 04 ff ff    	lea    -0xfba8(%ebp),%eax
    5e9a:	83 ec 0c             	sub    $0xc,%esp
    5e9d:	89 eb                	mov    %ebp,%ebx
    5e9f:	50                   	push   %eax
    5ea0:	e8 5b c9 ff ff       	call   2800 <puts@plt>
    5ea5:	83 c4 5c             	add    $0x5c,%esp
    5ea8:	5b                   	pop    %ebx
    5ea9:	5e                   	pop    %esi
    5eaa:	5f                   	pop    %edi
    5eab:	5d                   	pop    %ebp
    5eac:	c3                   	ret    
    5ead:	8d 85 34 08 ff ff    	lea    -0xf7cc(%ebp),%eax
    5eb3:	50                   	push   %eax
    5eb4:	68 a7 00 00 00       	push   $0xa7
    5eb9:	8d 85 36 03 ff ff    	lea    -0xfcca(%ebp),%eax
    5ebf:	89 eb                	mov    %ebp,%ebx
    5ec1:	50                   	push   %eax
    5ec2:	8d 85 4e 03 ff ff    	lea    -0xfcb2(%ebp),%eax
    5ec8:	50                   	push   %eax
    5ec9:	e8 c2 c9 ff ff       	call   2890 <__assert_fail@plt>
    5ece:	8d 85 34 08 ff ff    	lea    -0xf7cc(%ebp),%eax
    5ed4:	50                   	push   %eax
    5ed5:	68 ac 00 00 00       	push   $0xac
    5eda:	8d 85 36 03 ff ff    	lea    -0xfcca(%ebp),%eax
    5ee0:	89 eb                	mov    %ebp,%ebx
    5ee2:	50                   	push   %eax
    5ee3:	8d 85 18 04 ff ff    	lea    -0xfbe8(%ebp),%eax
    5ee9:	50                   	push   %eax
    5eea:	e8 a1 c9 ff ff       	call   2890 <__assert_fail@plt>
    5eef:	8d 85 34 08 ff ff    	lea    -0xf7cc(%ebp),%eax
    5ef5:	50                   	push   %eax
    5ef6:	68 ab 00 00 00       	push   $0xab
    5efb:	8d 85 36 03 ff ff    	lea    -0xfcca(%ebp),%eax
    5f01:	89 eb                	mov    %ebp,%ebx
    5f03:	50                   	push   %eax
    5f04:	8d 85 f8 03 ff ff    	lea    -0xfc08(%ebp),%eax
    5f0a:	50                   	push   %eax
    5f0b:	e8 80 c9 ff ff       	call   2890 <__assert_fail@plt>
    5f10:	8d 85 34 08 ff ff    	lea    -0xf7cc(%ebp),%eax
    5f16:	50                   	push   %eax
    5f17:	68 aa 00 00 00       	push   $0xaa
    5f1c:	8d 85 36 03 ff ff    	lea    -0xfcca(%ebp),%eax
    5f22:	89 eb                	mov    %ebp,%ebx
    5f24:	50                   	push   %eax
    5f25:	8d 85 d8 03 ff ff    	lea    -0xfc28(%ebp),%eax
    5f2b:	50                   	push   %eax
    5f2c:	e8 5f c9 ff ff       	call   2890 <__assert_fail@plt>
    5f31:	8d 85 34 08 ff ff    	lea    -0xf7cc(%ebp),%eax
    5f37:	50                   	push   %eax
    5f38:	68 a9 00 00 00       	push   $0xa9
    5f3d:	8d 85 36 03 ff ff    	lea    -0xfcca(%ebp),%eax
    5f43:	89 eb                	mov    %ebp,%ebx
    5f45:	50                   	push   %eax
    5f46:	8d 85 b8 03 ff ff    	lea    -0xfc48(%ebp),%eax
    5f4c:	50                   	push   %eax
    5f4d:	e8 3e c9 ff ff       	call   2890 <__assert_fail@plt>
    5f52:	8d 85 34 08 ff ff    	lea    -0xf7cc(%ebp),%eax
    5f58:	50                   	push   %eax
    5f59:	68 a8 00 00 00       	push   $0xa8
    5f5e:	8d 85 36 03 ff ff    	lea    -0xfcca(%ebp),%eax
    5f64:	89 eb                	mov    %ebp,%ebx
    5f66:	50                   	push   %eax
    5f67:	8d 85 98 03 ff ff    	lea    -0xfc68(%ebp),%eax
    5f6d:	50                   	push   %eax
    5f6e:	e8 1d c9 ff ff       	call   2890 <__assert_fail@plt>
    5f73:	8d 85 34 08 ff ff    	lea    -0xf7cc(%ebp),%eax
    5f79:	50                   	push   %eax
    5f7a:	68 bd 00 00 00       	push   $0xbd
    5f7f:	eb dd                	jmp    5f5e <alu_test_adc+0x49e>
    5f81:	8d 85 34 08 ff ff    	lea    -0xf7cc(%ebp),%eax
    5f87:	50                   	push   %eax
    5f88:	68 bf 00 00 00       	push   $0xbf
    5f8d:	eb 8d                	jmp    5f1c <alu_test_adc+0x45c>
    5f8f:	8d 85 34 08 ff ff    	lea    -0xf7cc(%ebp),%eax
    5f95:	50                   	push   %eax
    5f96:	68 be 00 00 00       	push   $0xbe
    5f9b:	eb a0                	jmp    5f3d <alu_test_adc+0x47d>
    5f9d:	8d 85 34 08 ff ff    	lea    -0xf7cc(%ebp),%eax
    5fa3:	50                   	push   %eax
    5fa4:	6a 79                	push   $0x79
    5fa6:	e9 2f ff ff ff       	jmp    5eda <alu_test_adc+0x41a>
    5fab:	8d 85 34 08 ff ff    	lea    -0xf7cc(%ebp),%eax
    5fb1:	50                   	push   %eax
    5fb2:	6a 78                	push   $0x78
    5fb4:	e9 42 ff ff ff       	jmp    5efb <alu_test_adc+0x43b>
    5fb9:	8d 85 34 08 ff ff    	lea    -0xf7cc(%ebp),%eax
    5fbf:	50                   	push   %eax
    5fc0:	6a 77                	push   $0x77
    5fc2:	e9 55 ff ff ff       	jmp    5f1c <alu_test_adc+0x45c>
    5fc7:	8d 85 34 08 ff ff    	lea    -0xf7cc(%ebp),%eax
    5fcd:	50                   	push   %eax
    5fce:	6a 76                	push   $0x76
    5fd0:	e9 68 ff ff ff       	jmp    5f3d <alu_test_adc+0x47d>
    5fd5:	8d 85 34 08 ff ff    	lea    -0xf7cc(%ebp),%eax
    5fdb:	50                   	push   %eax
    5fdc:	6a 75                	push   $0x75
    5fde:	e9 7b ff ff ff       	jmp    5f5e <alu_test_adc+0x49e>
    5fe3:	8d 85 34 08 ff ff    	lea    -0xf7cc(%ebp),%eax
    5fe9:	50                   	push   %eax
    5fea:	6a 74                	push   $0x74
    5fec:	e9 c8 fe ff ff       	jmp    5eb9 <alu_test_adc+0x3f9>
    5ff1:	8d 85 34 08 ff ff    	lea    -0xf7cc(%ebp),%eax
    5ff7:	50                   	push   %eax
    5ff8:	68 c1 00 00 00       	push   $0xc1
    5ffd:	e9 d8 fe ff ff       	jmp    5eda <alu_test_adc+0x41a>
    6002:	8d 85 34 08 ff ff    	lea    -0xf7cc(%ebp),%eax
    6008:	50                   	push   %eax
    6009:	68 c0 00 00 00       	push   $0xc0
    600e:	e9 e8 fe ff ff       	jmp    5efb <alu_test_adc+0x43b>
    6013:	8d 85 34 08 ff ff    	lea    -0xf7cc(%ebp),%eax
    6019:	50                   	push   %eax
    601a:	68 bc 00 00 00       	push   $0xbc
    601f:	e9 95 fe ff ff       	jmp    5eb9 <alu_test_adc+0x3f9>
    6024:	8d 85 34 08 ff ff    	lea    -0xf7cc(%ebp),%eax
    602a:	50                   	push   %eax
    602b:	68 90 00 00 00       	push   $0x90
    6030:	e9 84 fe ff ff       	jmp    5eb9 <alu_test_adc+0x3f9>
    6035:	8d 85 34 08 ff ff    	lea    -0xf7cc(%ebp),%eax
    603b:	50                   	push   %eax
    603c:	68 95 00 00 00       	push   $0x95
    6041:	e9 94 fe ff ff       	jmp    5eda <alu_test_adc+0x41a>
    6046:	8d 85 34 08 ff ff    	lea    -0xf7cc(%ebp),%eax
    604c:	50                   	push   %eax
    604d:	68 94 00 00 00       	push   $0x94
    6052:	e9 a4 fe ff ff       	jmp    5efb <alu_test_adc+0x43b>
    6057:	8d 85 34 08 ff ff    	lea    -0xf7cc(%ebp),%eax
    605d:	50                   	push   %eax
    605e:	68 93 00 00 00       	push   $0x93
    6063:	e9 b4 fe ff ff       	jmp    5f1c <alu_test_adc+0x45c>
    6068:	8d 85 34 08 ff ff    	lea    -0xf7cc(%ebp),%eax
    606e:	50                   	push   %eax
    606f:	68 92 00 00 00       	push   $0x92
    6074:	e9 c4 fe ff ff       	jmp    5f3d <alu_test_adc+0x47d>
    6079:	8d 85 34 08 ff ff    	lea    -0xf7cc(%ebp),%eax
    607f:	50                   	push   %eax
    6080:	68 91 00 00 00       	push   $0x91
    6085:	e9 d4 fe ff ff       	jmp    5f5e <alu_test_adc+0x49e>
    608a:	8d b6 00 00 00 00    	lea    0x0(%esi),%esi

00006090 <alu_test_sub>:
    6090:	55                   	push   %ebp
    6091:	57                   	push   %edi
    6092:	56                   	push   %esi
    6093:	53                   	push   %ebx
    6094:	e8 21 31 00 00       	call   91ba <__x86.get_pc_thunk.bp>
    6099:	81 c5 67 4f 02 00    	add    $0x24f67,%ebp
    609f:	83 ec 4c             	sub    $0x4c,%esp
    60a2:	8d 7c 24 40          	lea    0x40(%esp),%edi
    60a6:	8d 44 24 28          	lea    0x28(%esp),%eax
    60aa:	c7 44 24 24 00 00 00 	movl   $0x10000000,0x24(%esp)
    60b1:	10 
    60b2:	c7 44 24 28 fd ff ff 	movl   $0xfffffffd,0x28(%esp)
    60b9:	ff 
    60ba:	c7 44 24 2c fe ff ff 	movl   $0xfffffffe,0x2c(%esp)
    60c1:	ff 
    60c2:	89 7c 24 14          	mov    %edi,0x14(%esp)
    60c6:	8d bd 60 1d 05 00    	lea    0x51d60(%ebp),%edi
    60cc:	c7 44 24 30 ff ff ff 	movl   $0xffffffff,0x30(%esp)
    60d3:	ff 
    60d4:	c7 44 24 34 00 00 00 	movl   $0x0,0x34(%esp)
    60db:	00 
    60dc:	c7 44 24 38 01 00 00 	movl   $0x1,0x38(%esp)
    60e3:	00 
    60e4:	c7 44 24 3c 02 00 00 	movl   $0x2,0x3c(%esp)
    60eb:	00 
    60ec:	89 44 24 1c          	mov    %eax,0x1c(%esp)
    60f0:	89 44 24 18          	mov    %eax,0x18(%esp)
    60f4:	c7 44 24 0c 00 00 00 	movl   $0x10000000,0xc(%esp)
    60fb:	10 
    60fc:	8d 74 26 00          	lea    0x0(%esi,%eiz,1),%esi
    6100:	8b 74 24 1c          	mov    0x1c(%esp),%esi
    6104:	b9 00 00 00 10       	mov    $0x10000000,%ecx
    6109:	eb 0a                	jmp    6115 <alu_test_sub+0x85>
    610b:	90                   	nop
    610c:	8d 74 26 00          	lea    0x0(%esi,%eiz,1),%esi
    6110:	8b 0e                	mov    (%esi),%ecx
    6112:	83 c6 04             	add    $0x4,%esi
    6115:	83 ec 08             	sub    $0x8,%esp
    6118:	89 eb                	mov    %ebp,%ebx
    611a:	ff 74 24 14          	pushl  0x14(%esp)
    611e:	51                   	push   %ecx
    611f:	89 4c 24 20          	mov    %ecx,0x20(%esp)
    6123:	e8 c8 51 00 00       	call   b2f0 <alu_sub>
    6128:	89 c3                	mov    %eax,%ebx
    612a:	8b 4c 24 20          	mov    0x20(%esp),%ecx
    612e:	8b 44 24 1c          	mov    0x1c(%esp),%eax
    6132:	83 c4 10             	add    $0x10,%esp
    6135:	29 c8                	sub    %ecx,%eax
    6137:	9c                   	pushf  
    6138:	5a                   	pop    %edx
    6139:	39 c3                	cmp    %eax,%ebx
    613b:	0f 85 94 02 00 00    	jne    63d5 <alu_test_sub+0x345>
    6141:	0f b6 47 24          	movzbl 0x24(%edi),%eax
    6145:	89 d1                	mov    %edx,%ecx
    6147:	83 e1 01             	and    $0x1,%ecx
    614a:	89 c3                	mov    %eax,%ebx
    614c:	83 e3 01             	and    $0x1,%ebx
    614f:	38 cb                	cmp    %cl,%bl
    6151:	0f 85 70 02 00 00    	jne    63c7 <alu_test_sub+0x337>
    6157:	89 c3                	mov    %eax,%ebx
    6159:	89 d1                	mov    %edx,%ecx
    615b:	c0 eb 02             	shr    $0x2,%bl
    615e:	c1 e9 02             	shr    $0x2,%ecx
    6161:	83 e3 01             	and    $0x1,%ebx
    6164:	83 e1 01             	and    $0x1,%ecx
    6167:	38 cb                	cmp    %cl,%bl
    6169:	0f 85 4a 02 00 00    	jne    63b9 <alu_test_sub+0x329>
    616f:	89 d1                	mov    %edx,%ecx
    6171:	89 c3                	mov    %eax,%ebx
    6173:	c1 e9 07             	shr    $0x7,%ecx
    6176:	c0 eb 07             	shr    $0x7,%bl
    6179:	83 e1 01             	and    $0x1,%ecx
    617c:	38 cb                	cmp    %cl,%bl
    617e:	0f 85 24 02 00 00    	jne    63a8 <alu_test_sub+0x318>
    6184:	89 d1                	mov    %edx,%ecx
    6186:	c0 e8 06             	shr    $0x6,%al
    6189:	c1 e9 06             	shr    $0x6,%ecx
    618c:	83 e0 01             	and    $0x1,%eax
    618f:	83 e1 01             	and    $0x1,%ecx
    6192:	38 c8                	cmp    %cl,%al
    6194:	0f 85 fd 01 00 00    	jne    6397 <alu_test_sub+0x307>
    619a:	0f b6 47 25          	movzbl 0x25(%edi),%eax
    619e:	c1 ea 0b             	shr    $0xb,%edx
    61a1:	83 e2 01             	and    $0x1,%edx
    61a4:	c0 e8 03             	shr    $0x3,%al
    61a7:	83 e0 01             	and    $0x1,%eax
    61aa:	38 d0                	cmp    %dl,%al
    61ac:	0f 85 d4 01 00 00    	jne    6386 <alu_test_sub+0x2f6>
    61b2:	3b 74 24 14          	cmp    0x14(%esp),%esi
    61b6:	0f 85 54 ff ff ff    	jne    6110 <alu_test_sub+0x80>
    61bc:	8b 44 24 18          	mov    0x18(%esp),%eax
    61c0:	39 44 24 14          	cmp    %eax,0x14(%esp)
    61c4:	74 1a                	je     61e0 <alu_test_sub+0x150>
    61c6:	8b 30                	mov    (%eax),%esi
    61c8:	83 c0 04             	add    $0x4,%eax
    61cb:	89 44 24 18          	mov    %eax,0x18(%esp)
    61cf:	89 74 24 0c          	mov    %esi,0xc(%esp)
    61d3:	e9 28 ff ff ff       	jmp    6100 <alu_test_sub+0x70>
    61d8:	90                   	nop
    61d9:	8d b4 26 00 00 00 00 	lea    0x0(%esi,%eiz,1),%esi
    61e0:	83 ec 0c             	sub    $0xc,%esp
    61e3:	89 eb                	mov    %ebp,%ebx
    61e5:	6a 00                	push   $0x0
    61e7:	e8 84 c4 ff ff       	call   2670 <time@plt>
    61ec:	89 04 24             	mov    %eax,(%esp)
    61ef:	e8 fc c4 ff ff       	call   26f0 <srand@plt>
    61f4:	83 c4 10             	add    $0x10,%esp
    61f7:	c7 44 24 10 40 42 0f 	movl   $0xf4240,0x10(%esp)
    61fe:	00 
    61ff:	90                   	nop
    6200:	89 eb                	mov    %ebp,%ebx
    6202:	e8 49 c5 ff ff       	call   2750 <rand@plt>
    6207:	89 c6                	mov    %eax,%esi
    6209:	e8 42 c5 ff ff       	call   2750 <rand@plt>
    620e:	83 ec 08             	sub    $0x8,%esp
    6211:	56                   	push   %esi
    6212:	50                   	push   %eax
    6213:	89 44 24 1c          	mov    %eax,0x1c(%esp)
    6217:	e8 d4 50 00 00       	call   b2f0 <alu_sub>
    621c:	89 c3                	mov    %eax,%ebx
    621e:	8b 4c 24 1c          	mov    0x1c(%esp),%ecx
    6222:	89 f0                	mov    %esi,%eax
    6224:	83 c4 10             	add    $0x10,%esp
    6227:	29 c8                	sub    %ecx,%eax
    6229:	9c                   	pushf  
    622a:	5a                   	pop    %edx
    622b:	39 c3                	cmp    %eax,%ebx
    622d:	0f 85 8d 00 00 00    	jne    62c0 <alu_test_sub+0x230>
    6233:	0f b6 47 24          	movzbl 0x24(%edi),%eax
    6237:	89 d1                	mov    %edx,%ecx
    6239:	83 e1 01             	and    $0x1,%ecx
    623c:	89 c3                	mov    %eax,%ebx
    623e:	83 e3 01             	and    $0x1,%ebx
    6241:	38 cb                	cmp    %cl,%bl
    6243:	0f 85 1c 01 00 00    	jne    6365 <alu_test_sub+0x2d5>
    6249:	89 c3                	mov    %eax,%ebx
    624b:	89 d1                	mov    %edx,%ecx
    624d:	c0 eb 02             	shr    $0x2,%bl
    6250:	c1 e9 02             	shr    $0x2,%ecx
    6253:	83 e3 01             	and    $0x1,%ebx
    6256:	83 e1 01             	and    $0x1,%ecx
    6259:	38 cb                	cmp    %cl,%bl
    625b:	0f 85 e3 00 00 00    	jne    6344 <alu_test_sub+0x2b4>
    6261:	89 d1                	mov    %edx,%ecx
    6263:	89 c3                	mov    %eax,%ebx
    6265:	c1 e9 07             	shr    $0x7,%ecx
    6268:	c0 eb 07             	shr    $0x7,%bl
    626b:	83 e1 01             	and    $0x1,%ecx
    626e:	38 cb                	cmp    %cl,%bl
    6270:	0f 85 ad 00 00 00    	jne    6323 <alu_test_sub+0x293>
    6276:	89 d1                	mov    %edx,%ecx
    6278:	c0 e8 06             	shr    $0x6,%al
    627b:	c1 e9 06             	shr    $0x6,%ecx
    627e:	83 e0 01             	and    $0x1,%eax
    6281:	83 e1 01             	and    $0x1,%ecx
    6284:	38 c8                	cmp    %cl,%al
    6286:	75 7a                	jne    6302 <alu_test_sub+0x272>
    6288:	0f b6 47 25          	movzbl 0x25(%edi),%eax
    628c:	c1 ea 0b             	shr    $0xb,%edx
    628f:	83 e2 01             	and    $0x1,%edx
    6292:	c0 e8 03             	shr    $0x3,%al
    6295:	83 e0 01             	and    $0x1,%eax
    6298:	38 d0                	cmp    %dl,%al
    629a:	75 45                	jne    62e1 <alu_test_sub+0x251>
    629c:	83 6c 24 10 01       	subl   $0x1,0x10(%esp)
    62a1:	0f 85 59 ff ff ff    	jne    6200 <alu_test_sub+0x170>
    62a7:	8d 85 78 04 ff ff    	lea    -0xfb88(%ebp),%eax
    62ad:	83 ec 0c             	sub    $0xc,%esp
    62b0:	89 eb                	mov    %ebp,%ebx
    62b2:	50                   	push   %eax
    62b3:	e8 48 c5 ff ff       	call   2800 <puts@plt>
    62b8:	83 c4 5c             	add    $0x5c,%esp
    62bb:	5b                   	pop    %ebx
    62bc:	5e                   	pop    %esi
    62bd:	5f                   	pop    %edi
    62be:	5d                   	pop    %ebp
    62bf:	c3                   	ret    
    62c0:	8d 85 24 08 ff ff    	lea    -0xf7dc(%ebp),%eax
    62c6:	50                   	push   %eax
    62c7:	68 f5 00 00 00       	push   $0xf5
    62cc:	8d 85 36 03 ff ff    	lea    -0xfcca(%ebp),%eax
    62d2:	89 eb                	mov    %ebp,%ebx
    62d4:	50                   	push   %eax
    62d5:	8d 85 4e 03 ff ff    	lea    -0xfcb2(%ebp),%eax
    62db:	50                   	push   %eax
    62dc:	e8 af c5 ff ff       	call   2890 <__assert_fail@plt>
    62e1:	8d 85 24 08 ff ff    	lea    -0xf7dc(%ebp),%eax
    62e7:	50                   	push   %eax
    62e8:	68 fa 00 00 00       	push   $0xfa
    62ed:	8d 85 36 03 ff ff    	lea    -0xfcca(%ebp),%eax
    62f3:	89 eb                	mov    %ebp,%ebx
    62f5:	50                   	push   %eax
    62f6:	8d 85 18 04 ff ff    	lea    -0xfbe8(%ebp),%eax
    62fc:	50                   	push   %eax
    62fd:	e8 8e c5 ff ff       	call   2890 <__assert_fail@plt>
    6302:	8d 85 24 08 ff ff    	lea    -0xf7dc(%ebp),%eax
    6308:	50                   	push   %eax
    6309:	68 f9 00 00 00       	push   $0xf9
    630e:	8d 85 36 03 ff ff    	lea    -0xfcca(%ebp),%eax
    6314:	89 eb                	mov    %ebp,%ebx
    6316:	50                   	push   %eax
    6317:	8d 85 f8 03 ff ff    	lea    -0xfc08(%ebp),%eax
    631d:	50                   	push   %eax
    631e:	e8 6d c5 ff ff       	call   2890 <__assert_fail@plt>
    6323:	8d 85 24 08 ff ff    	lea    -0xf7dc(%ebp),%eax
    6329:	50                   	push   %eax
    632a:	68 f8 00 00 00       	push   $0xf8
    632f:	8d 85 36 03 ff ff    	lea    -0xfcca(%ebp),%eax
    6335:	89 eb                	mov    %ebp,%ebx
    6337:	50                   	push   %eax
    6338:	8d 85 d8 03 ff ff    	lea    -0xfc28(%ebp),%eax
    633e:	50                   	push   %eax
    633f:	e8 4c c5 ff ff       	call   2890 <__assert_fail@plt>
    6344:	8d 85 24 08 ff ff    	lea    -0xf7dc(%ebp),%eax
    634a:	50                   	push   %eax
    634b:	68 f7 00 00 00       	push   $0xf7
    6350:	8d 85 36 03 ff ff    	lea    -0xfcca(%ebp),%eax
    6356:	89 eb                	mov    %ebp,%ebx
    6358:	50                   	push   %eax
    6359:	8d 85 b8 03 ff ff    	lea    -0xfc48(%ebp),%eax
    635f:	50                   	push   %eax
    6360:	e8 2b c5 ff ff       	call   2890 <__assert_fail@plt>
    6365:	8d 85 24 08 ff ff    	lea    -0xf7dc(%ebp),%eax
    636b:	50                   	push   %eax
    636c:	68 f6 00 00 00       	push   $0xf6
    6371:	8d 85 36 03 ff ff    	lea    -0xfcca(%ebp),%eax
    6377:	89 eb                	mov    %ebp,%ebx
    6379:	50                   	push   %eax
    637a:	8d 85 98 03 ff ff    	lea    -0xfc68(%ebp),%eax
    6380:	50                   	push   %eax
    6381:	e8 0a c5 ff ff       	call   2890 <__assert_fail@plt>
    6386:	8d 85 24 08 ff ff    	lea    -0xf7dc(%ebp),%eax
    638c:	50                   	push   %eax
    638d:	68 e4 00 00 00       	push   $0xe4
    6392:	e9 56 ff ff ff       	jmp    62ed <alu_test_sub+0x25d>
    6397:	8d 85 24 08 ff ff    	lea    -0xf7dc(%ebp),%eax
    639d:	50                   	push   %eax
    639e:	68 e3 00 00 00       	push   $0xe3
    63a3:	e9 66 ff ff ff       	jmp    630e <alu_test_sub+0x27e>
    63a8:	8d 85 24 08 ff ff    	lea    -0xf7dc(%ebp),%eax
    63ae:	50                   	push   %eax
    63af:	68 e2 00 00 00       	push   $0xe2
    63b4:	e9 76 ff ff ff       	jmp    632f <alu_test_sub+0x29f>
    63b9:	8d 85 24 08 ff ff    	lea    -0xf7dc(%ebp),%eax
    63bf:	50                   	push   %eax
    63c0:	68 e1 00 00 00       	push   $0xe1
    63c5:	eb 89                	jmp    6350 <alu_test_sub+0x2c0>
    63c7:	8d 85 24 08 ff ff    	lea    -0xf7dc(%ebp),%eax
    63cd:	50                   	push   %eax
    63ce:	68 e0 00 00 00       	push   $0xe0
    63d3:	eb 9c                	jmp    6371 <alu_test_sub+0x2e1>
    63d5:	8d 85 24 08 ff ff    	lea    -0xf7dc(%ebp),%eax
    63db:	50                   	push   %eax
    63dc:	68 df 00 00 00       	push   $0xdf
    63e1:	e9 e6 fe ff ff       	jmp    62cc <alu_test_sub+0x23c>
    63e6:	8d 76 00             	lea    0x0(%esi),%esi
    63e9:	8d bc 27 00 00 00 00 	lea    0x0(%edi,%eiz,1),%edi

000063f0 <alu_test_sbb>:
    63f0:	55                   	push   %ebp
    63f1:	57                   	push   %edi
    63f2:	56                   	push   %esi
    63f3:	53                   	push   %ebx
    63f4:	e8 c1 2d 00 00       	call   91ba <__x86.get_pc_thunk.bp>
    63f9:	81 c5 07 4c 02 00    	add    $0x24c07,%ebp
    63ff:	83 ec 4c             	sub    $0x4c,%esp
    6402:	8d 7c 24 40          	lea    0x40(%esp),%edi
    6406:	8d 44 24 24          	lea    0x24(%esp),%eax
    640a:	c7 44 24 20 00 00 00 	movl   $0x10000000,0x20(%esp)
    6411:	10 
    6412:	c7 44 24 24 fd ff ff 	movl   $0xfffffffd,0x24(%esp)
    6419:	ff 
    641a:	c7 44 24 28 fe ff ff 	movl   $0xfffffffe,0x28(%esp)
    6421:	ff 
    6422:	89 7c 24 18          	mov    %edi,0x18(%esp)
    6426:	8d bd 60 1d 05 00    	lea    0x51d60(%ebp),%edi
    642c:	c7 44 24 2c ff ff ff 	movl   $0xffffffff,0x2c(%esp)
    6433:	ff 
